 template

 Timestamp is 551adfbd (Tue Mar 31 13:56:13 2015)

 Preferred load address is 00400000

 Start         Length     Name                   Class
 0001:00000000 000cde36H .text                   CODE
 0001:000cde40 0000b583H .text$x                 CODE
 0001:000d93d0 000011efH .text$yc                CODE
 0001:000da5c0 0000097aH .text$yd                CODE
 0002:00000000 0000048cH .idata$5                DATA
 0002:0000048c 00000004H .CRT$XCA                DATA
 0002:00000490 0000000cH .CRT$XCC                DATA
 0002:0000049c 0000001cH .CRT$XCL                DATA
 0002:000004b8 00000130H .CRT$XCU                DATA
 0002:000005e8 00000004H .CRT$XCZ                DATA
 0002:000005ec 00000004H .CRT$XIA                DATA
 0002:000005f0 00000014H .CRT$XIC                DATA
 0002:00000604 00000004H .CRT$XID                DATA
 0002:00000608 00000004H .CRT$XIY                DATA
 0002:0000060c 00000004H .CRT$XIZ                DATA
 0002:00000610 00000004H .CRT$XPA                DATA
 0002:00000614 00000004H .CRT$XPX                DATA
 0002:00000618 00000004H .CRT$XPXA               DATA
 0002:0000061c 00000004H .CRT$XPZ                DATA
 0002:00000620 00000004H .CRT$XTA                DATA
 0002:00000624 00000004H .CRT$XTZ                DATA
 0002:00000630 0001aaa0H .rdata                  DATA
 0002:0001b0d0 0000007dH .rdata$debug            DATA
 0002:0001b150 00002418H .rdata$r                DATA
 0002:0001d570 00000dc0H .rdata$sxdata           DATA
 0002:0001e330 00000004H .rtc$IAA                DATA
 0002:0001e334 00000004H .rtc$IZZ                DATA
 0002:0001e338 00000004H .rtc$TAA                DATA
 0002:0001e33c 00000004H .rtc$TZZ                DATA
 0002:0001e340 0000d064H .xdata$x                DATA
 0002:0002b3a4 00000000H ATL$__a                 DATA
 0002:0002b3a4 00000000H ATL$__z                 DATA
 0002:0002b3a4 0000012cH .idata$2                DATA
 0002:0002b4d0 00000014H .idata$3                DATA
 0002:0002b4e4 0000048cH .idata$4                DATA
 0002:0002b970 000012a0H .idata$6                DATA
 0002:0002cc10 00000000H .edata                  DATA
 0003:00000000 0005c4d1H .data                   DATA
 0003:0005c4e0 0000712cH .bss                    DATA

  Address         Publics by Value              Rva+Base       Lib:Object

 0000:00000000       __except_list              00000000     <absolute>
 0000:00000370       ___safe_se_handler_count   00000370     <absolute>
 0000:00000000       ___ImageBase               00400000     <linker-defined>
 0001:00000000       ??0bad_alloc@std@@QAE@PBD@Z 00401000 f i CelestialObjectClass.obj
 0001:00000030       ??1bad_alloc@std@@UAE@XZ   00401030 f i CelestialObjectClass.obj
 0001:00000050       ??_Gbad_alloc@std@@UAEPAXI@Z 00401050 f i CelestialObjectClass.obj
 0001:00000050       ??_Ebad_alloc@std@@UAEPAXI@Z 00401050 f i  CIL library: CIL module
 0001:00000080       ?length@?$char_traits@D@std@@SAIPBD@Z 00401080 f i CelestialObjectClass.obj
 0001:000000c0       ?copy@?$char_traits@D@std@@SAPADPADPBDI@Z 004010c0 f i CelestialObjectClass.obj
 0001:000000e0       ?move@?$char_traits@D@std@@SAPADPADPBDI@Z 004010e0 f i CelestialObjectClass.obj
 0001:00000100       ?assign@?$char_traits@D@std@@SAXAADABD@Z 00401100 f i CelestialObjectClass.obj
 0001:00000110       ??0CelestialObject@@QAE@XZ 00401110 f   CelestialObjectClass.obj
 0001:00000180       ??0CelestialObject@@QAE@HV?$basic_string@DU?$char_traits@D@std@@V?$allocator@D@2@@std@@MMMMMMM@Z 00401180 f   CelestialObjectClass.obj
 0001:00000250       ?createSprite@CelestialObject@@QAEXXZ 00401250 f   CelestialObjectClass.obj
 0001:000002b0       ?setPosition@CelestialObject@@QAEXMM@Z 004012b0 f   CelestialObjectClass.obj
 0001:000002f0       ?setV@CelestialObject@@QAEXMM@Z 004012f0 f   CelestialObjectClass.obj
 0001:00000310       ?setVX@CelestialObject@@QAEXM@Z 00401310 f   CelestialObjectClass.obj
 0001:00000330       ?setVY@CelestialObject@@QAEXM@Z 00401330 f   CelestialObjectClass.obj
 0001:00000370       ?setAX@CelestialObject@@QAEXM@Z 00401370 f   CelestialObjectClass.obj
 0001:00000390       ?setAY@CelestialObject@@QAEXM@Z 00401390 f   CelestialObjectClass.obj
 0001:000003b0       ?setMass@CelestialObject@@QAEXM@Z 004013b0 f   CelestialObjectClass.obj
 0001:000003d0       ?setleftClick@CelestialObject@@QAEX_N@Z 004013d0 f   CelestialObjectClass.obj
 0001:000003f0       ?setRightClick@CelestialObject@@QAEX_N@Z 004013f0 f   CelestialObjectClass.obj
 0001:00000410       ?setTargeted@CelestialObject@@QAEX_N@Z 00401410 f   CelestialObjectClass.obj
 0001:00000430       ?getSpriteIndex@CelestialObject@@QAEHXZ 00401430 f   CelestialObjectClass.obj
 0001:00000430       ?getSpriteIndex@CreationObject@@QAEHXZ 00401430 f   creationObject.obj
 0001:00000440       ?getImageFile@CelestialObject@@QAE?AV?$basic_string@DU?$char_traits@D@std@@V?$allocator@D@2@@std@@XZ 00401440 f   CelestialObjectClass.obj
 0001:00000480       ?getX@CelestialObject@@QAEMXZ 00401480 f   CelestialObjectClass.obj
 0001:000004a0       ?getY@CelestialObject@@QAEMXZ 004014a0 f   CelestialObjectClass.obj
 0001:000004c0       ?getVX@CelestialObject@@QAEMXZ 004014c0 f   CelestialObjectClass.obj
 0001:000004e0       ?getVY@CelestialObject@@QAEMXZ 004014e0 f   CelestialObjectClass.obj
 0001:00000500       ?getAX@CelestialObject@@QAEMXZ 00401500 f   CelestialObjectClass.obj
 0001:00000520       ?getAY@CelestialObject@@QAEMXZ 00401520 f   CelestialObjectClass.obj
 0001:00000540       ?getMass@CelestialObject@@QAEMXZ 00401540 f   CelestialObjectClass.obj
 0001:00000560       ?getWidth@CelestialObject@@QAEMXZ 00401560 f   CelestialObjectClass.obj
 0001:00000580       ?getHeight@CelestialObject@@QAEMXZ 00401580 f   CelestialObjectClass.obj
 0001:000005a0       ?getObjectExist@CelestialObject@@QAE_NXZ 004015a0 f   CelestialObjectClass.obj
 0001:000005c0       ?getleftClick@CelestialObject@@QAE_NXZ 004015c0 f   CelestialObjectClass.obj
 0001:000005e0       ?getRightClick@CelestialObject@@QAE_NXZ 004015e0 f   CelestialObjectClass.obj
 0001:00000600       ?getTargeted@CelestialObject@@QAE_NXZ 00401600 f   CelestialObjectClass.obj
 0001:00000620       ?deleteSprite@CelestialObject@@QAEXXZ 00401620 f   CelestialObjectClass.obj
 0001:00000640       ?nullObject@CelestialObject@@QAEXXZ 00401640 f   CelestialObjectClass.obj
 0001:000006b0       ??0?$basic_string@DU?$char_traits@D@std@@V?$allocator@D@2@@std@@QAE@ABV01@@Z 004016b0 f i CelestialObjectClass.obj
 0001:00000740       ??0?$basic_string@DU?$char_traits@D@std@@V?$allocator@D@2@@std@@QAE@XZ 00401740 f i CelestialObjectClass.obj
 0001:00000770       ??1?$basic_string@DU?$char_traits@D@std@@V?$allocator@D@2@@std@@QAE@XZ 00401770 f i CelestialObjectClass.obj
 0001:00000790       ??4?$basic_string@DU?$char_traits@D@std@@V?$allocator@D@2@@std@@QAEAAV01@ABV01@@Z 00401790 f i CelestialObjectClass.obj
 0001:000007b0       ??4?$basic_string@DU?$char_traits@D@std@@V?$allocator@D@2@@std@@QAEAAV01@PBD@Z 004017b0 f i CelestialObjectClass.obj
 0001:000007d0       ?c_str@?$basic_string@DU?$char_traits@D@std@@V?$allocator@D@2@@std@@QBEPBDXZ 004017d0 f i CelestialObjectClass.obj
 0001:000007f0       ?assign@?$basic_string@DU?$char_traits@D@std@@V?$allocator@D@2@@std@@QAEAAV12@ABV12@@Z 004017f0 f i CelestialObjectClass.obj
 0001:00000820       ?assign@?$basic_string@DU?$char_traits@D@std@@V?$allocator@D@2@@std@@QAEAAV12@ABV12@II@Z 00401820 f i CelestialObjectClass.obj
 0001:000008e0       ?assign@?$basic_string@DU?$char_traits@D@std@@V?$allocator@D@2@@std@@QAEAAV12@PBD@Z 004018e0 f i CelestialObjectClass.obj
 0001:00000910       ?size@?$basic_string@DU?$char_traits@D@std@@V?$allocator@D@2@@std@@QBEIXZ 00401910 f i CelestialObjectClass.obj
 0001:00000930       ?_Tidy@?$basic_string@DU?$char_traits@D@std@@V?$allocator@D@2@@std@@QAEX_NI@Z 00401930 f i CelestialObjectClass.obj
 0001:000009b0       ??0?$_String_val@DV?$allocator@D@std@@@std@@QAE@V?$allocator@D@1@@Z 004019b0 f i CelestialObjectClass.obj
 0001:000009d0       ??0?$allocator@D@std@@QAE@XZ 004019d0 f i CelestialObjectClass.obj
 0001:000009e0       ??0?$allocator@D@std@@QAE@ABV01@@Z 004019e0 f i CelestialObjectClass.obj
 0001:000009f0       ?assign@?$basic_string@DU?$char_traits@D@std@@V?$allocator@D@2@@std@@QAEAAV12@PBDI@Z 004019f0 f i CelestialObjectClass.obj
 0001:00000a70       ?erase@?$basic_string@DU?$char_traits@D@std@@V?$allocator@D@2@@std@@QAEAAV12@II@Z 00401a70 f i CelestialObjectClass.obj
 0001:00000b00       ?_Eos@?$basic_string@DU?$char_traits@D@std@@V?$allocator@D@2@@std@@QAEXI@Z 00401b00 f i CelestialObjectClass.obj
 0001:00000b40       ?_Grow@?$basic_string@DU?$char_traits@D@std@@V?$allocator@D@2@@std@@QAE_NI_N@Z 00401b40 f i CelestialObjectClass.obj
 0001:00000be0       ?_Myptr@?$basic_string@DU?$char_traits@D@std@@V?$allocator@D@2@@std@@QBEPBDXZ 00401be0 f i CelestialObjectClass.obj
 0001:00000be0       ?_Myptr@?$basic_string@DU?$char_traits@D@std@@V?$allocator@D@2@@std@@QAEPADXZ 00401be0 f i CelestialObjectClass.obj
 0001:00000c10       ?_Xran@?$basic_string@DU?$char_traits@D@std@@V?$allocator@D@2@@std@@QBEXXZ 00401c10 f i CelestialObjectClass.obj
 0001:00000c30       ?deallocate@?$allocator@D@std@@QAEXPADI@Z 00401c30 f i CelestialObjectClass.obj
 0001:00000c50       ?max_size@?$basic_string@DU?$char_traits@D@std@@V?$allocator@D@2@@std@@QBEIXZ 00401c50 f i CelestialObjectClass.obj
 0001:00000c90       ?_Copy@?$basic_string@DU?$char_traits@D@std@@V?$allocator@D@2@@std@@QAEXII@Z 00401c90 f i CelestialObjectClass.obj
 0001:00000e20       ?_Inside@?$basic_string@DU?$char_traits@D@std@@V?$allocator@D@2@@std@@QAE_NPBD@Z 00401e20 f i CelestialObjectClass.obj
 0001:00000e60       ?_Xlen@?$basic_string@DU?$char_traits@D@std@@V?$allocator@D@2@@std@@QBEXXZ 00401e60 f i CelestialObjectClass.obj
 0001:00000e80       ?allocate@?$allocator@D@std@@QAEPADI@Z 00401e80 f i CelestialObjectClass.obj
 0001:00000ea0       ?max_size@?$allocator@D@std@@QBEIXZ 00401ea0 f i CelestialObjectClass.obj
 0001:00000ed0       ??$_Allocate@D@std@@YAPADIPAD@Z 00401ed0 f i CelestialObjectClass.obj
 0001:00000f30       ??0bad_alloc@std@@QAE@ABV01@@Z 00401f30 f i CelestialObjectClass.obj
 0001:00000f60       ?GetStr@uString@AGK@@QBEPBDXZ 00401f60 f i Core.obj
 0001:00000f90       ?AppInitCode@@YAHXZ        00401f90 f   Core.obj
 0001:00000fa0       ?AppGatherData@@YAXKPAD@Z  00401fa0 f   Core.obj
 0001:00000fb0       ?TranslateKey@@YAII@Z      00401fb0 f   Core.obj
 0001:00001120       ?WndProc@@YGJPAUHWND__@@IIJ@Z 00402120 f   Core.obj
 0001:00001430       ?CreateWin32Window@@YAPAUHWND__@@PAUHINSTANCE__@@HHAAVuString@AGK@@HH_N@Z 00402430 f   Core.obj
 0001:00001680       ?CreateInternalBitmapsForLIBIMAGES@@YAXXZ 00402680 f   Core.obj
 0001:000019a0       _WinMain@16                004029a0 f   Core.obj
 0001:00001bc0       ??0CreationObject@@QAE@XZ  00402bc0 f   creationObject.obj
 0001:00001bf0       ??0CreationObject@@QAE@HPADMMHMMM@Z 00402bf0 f   creationObject.obj
 0001:00001c50       ?createSprite@CreationObject@@QAEXXZ 00402c50 f   creationObject.obj
 0001:00001ce0       ?getImageFile@CreationObject@@QAEPADXZ 00402ce0 f   creationObject.obj
 0001:00001d00       ?getMass@CreationObject@@QAEMXZ 00402d00 f   creationObject.obj
 0001:00001d20       _atan2f                    00402d20 f i template.obj
 0001:00001d40       _sqrtf                     00402d40 f i template.obj
 0001:00001d60       ?atan2@@YAMMM@Z            00402d60 f i template.obj
 0001:00001d80       ?pow@@YAMMH@Z              00402d80 f i template.obj
 0001:00001da0       ?sqrt@@YAMM@Z              00402da0 f i template.obj
 0001:00001dc0       ??0app@@QAE@XZ             00402dc0 f i template.obj
 0001:00001de0       ??_H@YGXPAXIHP6EPAX0@Z@Z   00402de0 f i template.obj
 0001:00001e10       ??1CelestialObject@@QAE@XZ 00402e10 f i template.obj
 0001:00001e30       ?createAddObjects@@YAXXZ   00402e30 f   template.obj
 0001:00002090       ?addObjects@@YAXXZ         00403090 f   template.obj
 0001:00002280       ??4CelestialObject@@QAEAAV0@ABV0@@Z 00403280 f i template.obj
 0001:00002330       ?dragPlanet@@YAXAAVCelestialObject@@@Z 00403330 f   template.obj
 0001:00002680       ?targetPlanet@@YAXXZ       00403680 f   template.obj
 0001:00002730       ?initialDisplayInfo@@YAXXZ 00403730 f   template.obj
 0001:00002a70       ?displayInfo@@YAXXZ        00403a70 f   template.obj
 0001:00002d20       ?addInputs@@YAXXZ          00403d20 f   template.obj
 0001:00002eb0       ?massBTNPress@@YAXXZ       00403eb0 f   template.obj
 0001:00002f40       ?deleteBTNPress@@YAXXZ     00403f40 f   template.obj
 0001:00002fb0       ?resetBTNPress@@YAXXZ      00403fb0 f   template.obj
 0001:000035b0       ?deathStarBTNPress@@YAXXZ  004045b0 f   template.obj
 0001:000035f0       ?checkAllButtons@@YAXXZ    004045f0 f   template.obj
 0001:00003650       ?deathStarMoving@@YAXXZ    00404650 f   template.obj
 0001:00003740       ?deathStarLaser@@YAXXZ     00404740 f   template.obj
 0001:000039f0       ?deathStarCommand@@YAXXZ   004049f0 f   template.obj
 0001:00003b30       ?forceXFunc@@YAMVCelestialObject@@0@Z 00404b30 f   template.obj
 0001:00003c20       ?forceYFunc@@YAMVCelestialObject@@0@Z 00404c20 f   template.obj
 0001:00003d10       ?collisionDetection@@YAXAAVCelestialObject@@0@Z 00404d10 f   template.obj
 0001:00003de0       ?updatePosition@@YAXAAVCelestialObject@@MM@Z 00404de0 f   template.obj
 0001:00003ef0       ?Begin@app@@QAEXXZ         00404ef0 f   template.obj
 0001:00004100       ?Loop@app@@QAEXXZ          00405100 f   template.obj
 0001:00004390       ??0CelestialObject@@QAE@ABV0@@Z 00405390 f i template.obj
 0001:00004440       ?End@app@@QAEXXZ           00405440 f   template.obj
 0001:00004440       ??1?$_String_val@DV?$allocator@D@std@@@std@@QAE@XZ 00405440 f   CelestialObjectClass.obj
 0001:00004450       ??0?$basic_string@DU?$char_traits@D@std@@V?$allocator@D@2@@std@@QAE@PBD@Z 00405450 f i template.obj
 0001:000044d0       ??$_Pow_int@M@@YAMMH@Z     004054d0 f i template.obj
 0001:00004540       ??BuString@AGK@@QBEPBDXZ   00405540 f i AGKWindows:Wrapper.obj
 0001:00004560       ??1cAutoLock@AGK@@QAE@XZ   00405560 f i AGKWindows:Wrapper.obj
 0001:00004570       ??0cNetworkMessage@AGK@@QAE@XZ 00405570 f i AGKWindows:Wrapper.obj
 0001:000045a0       ?b2Mul@@YA?AUb2Vec2@@ABUb2Transform@@ABU1@@Z 004055a0 f i AGKWindows:Wrapper.obj
 0001:000045e0       ??_Eb2Draw@@UAEPAXI@Z      004055e0 f i AGKWindows:Wrapper.obj
 0001:000045e0       ??_EDebugDraw@AGK@@UAEPAXI@Z 004055e0 f i AGKWindows:Wrapper.obj
 0001:000045e0       ??_GDebugDraw@AGK@@UAEPAXI@Z 004055e0 f i AGKWindows:Wrapper.obj
 0001:000045e0       ??_Gb2Draw@@UAEPAXI@Z      004055e0 f i AGKWindows:Wrapper.obj
 0001:00004610       ?ApplyForce@b2Body@@QAEXABUb2Vec2@@0@Z 00405610 f i AGKWindows:Wrapper.obj
 0001:00004690       ??0b2DistanceJointDef@@QAE@XZ 00405690 f i AGKWindows:Wrapper.obj
 0001:000046c0       ??0b2WheelJointDef@@QAE@XZ 004056c0 f i AGKWindows:Wrapper.obj
 0001:00004710       ??0b2MouseJointDef@@QAE@XZ 00405710 f i AGKWindows:Wrapper.obj
 0001:00004750       ??0b2PrismaticJointDef@@QAE@XZ 00405750 f i AGKWindows:Wrapper.obj
 0001:000047a0       ??0b2PulleyJointDef@@QAE@XZ 004057a0 f i AGKWindows:Wrapper.obj
 0001:000047f0       ??0b2RevoluteJointDef@@QAE@XZ 004057f0 f i AGKWindows:Wrapper.obj
 0001:00004830       ??0b2WeldJointDef@@QAE@XZ  00405830 f i AGKWindows:Wrapper.obj
 0001:000048a0       ?SetFakeDeviceName@agk@AGK@@SAXPAD@Z 004058a0 f   AGKWindows:Wrapper.obj
 0001:000048c0       ?RestoreWriteDir@agk@AGK@@SAXXZ 004058c0 f   AGKWindows:Wrapper.obj
 0001:000048d0       ?MouseRightButton@agk@AGK@@SAXIH@Z 004058d0 f   AGKWindows:Wrapper.obj
 0001:00004940       ?SetMultiTouchExist@agk@AGK@@SAX_N@Z 00405940 f   AGKWindows:Wrapper.obj
 0001:00004950       ?SetMouseExist@agk@AGK@@SAX_N@Z 00405950 f   AGKWindows:Wrapper.obj
 0001:00004960       ?SetJoystickExist@agk@AGK@@SAX_N@Z 00405960 f   AGKWindows:Wrapper.obj
 0001:00004970       ?SetKeyboardExist@agk@AGK@@SAX_N@Z 00405970 f   AGKWindows:Wrapper.obj
 0001:00004980       ?SetAccelerometerExist@agk@AGK@@SAX_N@Z 00405980 f   AGKWindows:Wrapper.obj
 0001:00004990       ?Accelerometer@agk@AGK@@SAXMMM@Z 00405990 f   AGKWindows:Wrapper.obj
 0001:000049b0       ?CharDown@agk@AGK@@SAXI@Z  004059b0 f   AGKWindows:Wrapper.obj
 0001:000049e0       ?JoystickAxis@agk@AGK@@SAXPAXHHM@Z 004059e0 f   AGKWindows:Wrapper.obj
 0001:00004ad0       ?JoystickButton@agk@AGK@@SAXPAXHH@Z 00405ad0 f   AGKWindows:Wrapper.obj
 0001:00004b10       ?ScreenToDeviceX@agk@AGK@@SAHM@Z 00405b10 f   AGKWindows:Wrapper.obj
 0001:00004b60       ?ScreenToDeviceY@agk@AGK@@SAHM@Z 00405b60 f   AGKWindows:Wrapper.obj
 0001:00004bb0       ?DeviceToScreenX@agk@AGK@@SAMH@Z 00405bb0 f   AGKWindows:Wrapper.obj
 0001:00004bf0       ?DeviceToScreenY@agk@AGK@@SAMH@Z 00405bf0 f   AGKWindows:Wrapper.obj
 0001:00004c30       ?ScreenToViewportX@agk@AGK@@SAHM@Z 00405c30 f   AGKWindows:Wrapper.obj
 0001:00004c70       ?ScreenToViewportY@agk@AGK@@SAHM@Z 00405c70 f   AGKWindows:Wrapper.obj
 0001:00004cb0       ?ViewportToScreenX@agk@AGK@@SAMH@Z 00405cb0 f   AGKWindows:Wrapper.obj
 0001:00004ce0       ?ViewportToScreenY@agk@AGK@@SAMH@Z 00405ce0 f   AGKWindows:Wrapper.obj
 0001:00004d20       ?RotatePointX@agk@AGK@@SAMMM@Z 00405d20 f   AGKWindows:Wrapper.obj
 0001:00004da0       ?RotatePointY@agk@AGK@@SAMMM@Z 00405da0 f   AGKWindows:Wrapper.obj
 0001:00004e20       ?DeviceVolume@agk@AGK@@SAXH@Z 00405e20 f   AGKWindows:Wrapper.obj
 0001:00004e50       ?HandleMusicEvents@agk@AGK@@SAXI@Z 00405e50 f   AGKWindows:Wrapper.obj
 0001:00004e70       ?SetResolutionMode@agk@AGK@@SAXH@Z 00405e70 f   AGKWindows:Wrapper.obj
 0001:00004ea0       ?DestroyGL@agk@AGK@@SAXXZ  00405ea0 f   AGKWindows:Wrapper.obj
 0001:00004eb0       ?SetSyncRate@agk@AGK@@SAXMH@Z 00405eb0 f   AGKWindows:Wrapper.obj
 0001:00004ef0       ?CreateDefaultImage@agk@AGK@@KAXPBDIPAI@Z 00405ef0 f   AGKWindows:Wrapper.obj
 0001:00004fb0       ?CanOrientationChange@agk@AGK@@SAHH@Z 00405fb0 f   AGKWindows:Wrapper.obj
 0001:00005030       ?Resumed@agk@AGK@@SAXH@Z   00406030 f   AGKWindows:Wrapper.obj
 0001:00005040       ?SetTransitionMode@agk@AGK@@SAXH@Z 00406040 f   AGKWindows:Wrapper.obj
 0001:00005060       ?GetCL@agk@AGK@@SAPADXZ    00406060 f   AGKWindows:Wrapper.obj
 0001:000050a0       ?SetScissor@agk@AGK@@SAXMMMM@Z 004060a0 f   AGKWindows:Wrapper.obj
 0001:00005240       ?GetDeviceWidth@agk@AGK@@SAHXZ 00406240 f   AGKWindows:Wrapper.obj
 0001:00005250       ?GetRealDeviceWidth@agk@AGK@@SAHXZ 00406250 f   AGKWindows:Wrapper.obj
 0001:00005260       ?SetFakeDeviceWidth@agk@AGK@@SAXH@Z 00406260 f   AGKWindows:Wrapper.obj
 0001:00005270       ?GetDeviceHeight@agk@AGK@@SAHXZ 00406270 f   AGKWindows:Wrapper.obj
 0001:00005280       ?GetRealDeviceHeight@agk@AGK@@SAHXZ 00406280 f   AGKWindows:Wrapper.obj
 0001:00005290       ?SetFakeDeviceHeight@agk@AGK@@SAXH@Z 00406290 f   AGKWindows:Wrapper.obj
 0001:000052a0       ?ResetScissor@agk@AGK@@KAXXZ 004062a0 f   AGKWindows:Wrapper.obj
 0001:000052d0       ?GetVirtualWidth@agk@AGK@@SAHXZ 004062d0 f   AGKWindows:Wrapper.obj
 0001:000052e0       ?GetVirtualHeight@agk@AGK@@SAHXZ 004062e0 f   AGKWindows:Wrapper.obj
 0001:000052f0       ?GetDisplayAspect@agk@AGK@@SAMXZ 004062f0 f   AGKWindows:Wrapper.obj
 0001:00005300       ?GetOrientation@agk@AGK@@SAHXZ 00406300 f   AGKWindows:Wrapper.obj
 0001:00005310       ?GetResumed@agk@AGK@@SAHXZ 00406310 f   AGKWindows:Wrapper.obj
 0001:00005320       ?BindDefaultFramebuffer@agk@AGK@@SAXXZ 00406320 f   AGKWindows:Wrapper.obj
 0001:00005380       ?SetDefaultMagFilter@agk@AGK@@SAXI@Z 00406380 f   AGKWindows:Wrapper.obj
 0001:000053a0       ?SetDefaultMinFilter@agk@AGK@@SAXI@Z 004063a0 f   AGKWindows:Wrapper.obj
 0001:000053c0       ?SetViewZoomMode@agk@AGK@@SAXH@Z 004063c0 f   AGKWindows:Wrapper.obj
 0001:000053e0       ?GetViewOffsetX@agk@AGK@@SAMXZ 004063e0 f   AGKWindows:Wrapper.obj
 0001:000053f0       ?GetViewOffsetY@agk@AGK@@SAMXZ 004063f0 f   AGKWindows:Wrapper.obj
 0001:00005400       ?GetViewZoom@agk@AGK@@SAMXZ 00406400 f   AGKWindows:Wrapper.obj
 0001:00005410       ?Break@agk@AGK@@SAXXZ      00406410 f   AGKWindows:Wrapper.obj
 0001:00005420       ?ClearScreen@agk@AGK@@SAXXZ 00406420 f   AGKWindows:Wrapper.obj
 0001:00005430       ?SetAlphaTestThreshold@agk@AGK@@SAXI@Z 00406430 f   AGKWindows:Wrapper.obj
 0001:00005460       ?SetGenerateMipmaps@agk@AGK@@SAXH@Z 00406460 f   AGKWindows:Wrapper.obj
 0001:00005480       ?Timer@agk@AGK@@SAMXZ      00406480 f   AGKWindows:Wrapper.obj
 0001:000054a0       ?ResetTimer@agk@AGK@@SAXXZ 004064a0 f   AGKWindows:Wrapper.obj
 0001:000054d0       ?GetRunTime@agk@AGK@@SAMXZ 004064d0 f   AGKWindows:Wrapper.obj
 0001:000054f0       ?GetSeconds@agk@AGK@@SAHXZ 004064f0 f   AGKWindows:Wrapper.obj
 0001:00005520       ?GetFrameTime@agk@AGK@@SAMXZ 00406520 f   AGKWindows:Wrapper.obj
 0001:00005530       ?GetMilliseconds@agk@AGK@@SAIXZ 00406530 f   AGKWindows:Wrapper.obj
 0001:00005540       ?SetRandomSeed@agk@AGK@@SAXI@Z 00406540 f   AGKWindows:Wrapper.obj
 0001:00005550       ?Random@agk@AGK@@SAIXZ     00406550 f   AGKWindows:Wrapper.obj
 0001:00005570       ?Random@agk@AGK@@SAIII@Z   00406570 f   AGKWindows:Wrapper.obj
 0001:000055a0       ?RandomSign@agk@AGK@@SAHH@Z 004065a0 f   AGKWindows:Wrapper.obj
 0001:000055d0       ?ATanFull@agk@AGK@@SAMMM@Z 004065d0 f   AGKWindows:Wrapper.obj
 0001:000056e0       ?ATanFullRad@agk@AGK@@SAMMM@Z 004066e0 f   AGKWindows:Wrapper.obj
 0001:000057f0       ?SetSortTextures@agk@AGK@@SAXH@Z 004067f0 f   AGKWindows:Wrapper.obj
 0001:00005810       ?SetSortDepth@agk@AGK@@SAXH@Z 00406810 f   AGKWindows:Wrapper.obj
 0001:00005830       ?SetSortTransparentDepth@agk@AGK@@SAXH@Z 00406830 f   AGKWindows:Wrapper.obj
 0001:00005850       ?SetSortCreated@agk@AGK@@SAXH@Z 00406850 f   AGKWindows:Wrapper.obj
 0001:00005870       ?ScreenFPS@agk@AGK@@SAMXZ  00406870 f   AGKWindows:Wrapper.obj
 0001:00005880       ?EnableClearDepth@agk@AGK@@SAXI@Z 00406880 f   AGKWindows:Wrapper.obj
 0001:000058a0       ?EnableClearColor@agk@AGK@@SAXI@Z 004068a0 f   AGKWindows:Wrapper.obj
 0001:000058c0       ?SetBorderColor@agk@AGK@@SAXIII@Z 004068c0 f   AGKWindows:Wrapper.obj
 0001:00005910       ?SetClearColor@agk@AGK@@SAXIII@Z 00406910 f   AGKWindows:Wrapper.obj
 0001:00005960       ?ShowChooseImageScreen@agk@AGK@@SAIXZ 00406960 f   AGKWindows:Wrapper.obj
 0001:000059b0       ?ChooseInternal@agk@AGK@@SAXH@Z 004069b0 f   AGKWindows:Wrapper.obj
 0001:000059f0       ?IsChoosingImage@agk@AGK@@SAIXZ 004069f0 f   AGKWindows:Wrapper.obj
 0001:00005a00       ?ShowImageCaptureScreen@agk@AGK@@SAIXZ 00406a00 f   AGKWindows:Wrapper.obj
 0001:00005a30       ?CancelCapture@agk@AGK@@SAXXZ 00406a30 f   AGKWindows:Wrapper.obj
 0001:00005a40       ?IsCapturingImage@agk@AGK@@SAIXZ 00406a40 f   AGKWindows:Wrapper.obj
 0001:00005a50       ?GetCapturedImage@agk@AGK@@SAIXZ 00406a50 f   AGKWindows:Wrapper.obj
 0001:00005a70       ?SetPhysicsGravity@agk@AGK@@SAXMM@Z 00406a70 f   AGKWindows:Wrapper.obj
 0001:00005af0       ?SetPhysicsDebugOn@agk@AGK@@SAXXZ 00406af0 f   AGKWindows:Wrapper.obj
 0001:00005b00       ?SetPhysicsDebugOff@agk@AGK@@SAXXZ 00406b00 f   AGKWindows:Wrapper.obj
 0001:00005b10       ?SetPhysicsMaxPolygonPoints@agk@AGK@@SAXH@Z 00406b10 f   AGKWindows:Wrapper.obj
 0001:00005b40       ?GetPhysicsWorld@agk@AGK@@SAPAVb2World@@XZ 00406b40 f   AGKWindows:Wrapper.obj
 0001:00005b50       ?CreatePulleyJoint2@agk@AGK@@SAXIIMH@Z 00406b50 f   AGKWindows:Wrapper.obj
 0001:00005b80       ?PhysicsRayCast@agk@AGK@@SAHMMMM@Z 00406b80 f   AGKWindows:Wrapper.obj
 0001:00005c10       ?PhysicsRayCastGroup@agk@AGK@@SAHHMMMM@Z 00406c10 f   AGKWindows:Wrapper.obj
 0001:00005ca0       ?PhysicsRayCastCategory@agk@AGK@@SAHIMMMM@Z 00406ca0 f   AGKWindows:Wrapper.obj
 0001:00005d30       ?GetRayCastSprite@agk@AGK@@SAPAVcSprite@2@XZ 00406d30 f   AGKWindows:Wrapper.obj
 0001:00005d40       ?GetRayCastSpriteID@agk@AGK@@SAIXZ 00406d40 f   AGKWindows:Wrapper.obj
 0001:00005d60       ?GetRayCastX@agk@AGK@@SAMXZ 00406d60 f   AGKWindows:Wrapper.obj
 0001:00005d90       ?GetRayCastY@agk@AGK@@SAMXZ 00406d90 f   AGKWindows:Wrapper.obj
 0001:00005dc0       ?GetRayCastNormalX@agk@AGK@@SAMXZ 00406dc0 f   AGKWindows:Wrapper.obj
 0001:00005df0       ?GetRayCastNormalY@agk@AGK@@SAMXZ 00406df0 f   AGKWindows:Wrapper.obj
 0001:00005e20       ?GetRayCastFraction@agk@AGK@@SAMXZ 00406e20 f   AGKWindows:Wrapper.obj
 0001:00005e40       ?GetSpriteDistancePoint1X@agk@AGK@@SAMXZ 00406e40 f   AGKWindows:Wrapper.obj
 0001:00005e60       ?GetSpriteDistancePoint1Y@agk@AGK@@SAMXZ 00406e60 f   AGKWindows:Wrapper.obj
 0001:00005e80       ?GetSpriteDistancePoint2X@agk@AGK@@SAMXZ 00406e80 f   AGKWindows:Wrapper.obj
 0001:00005ea0       ?GetSpriteDistancePoint2Y@agk@AGK@@SAMXZ 00406ea0 f   AGKWindows:Wrapper.obj
 0001:00005ec0       ?GetFirstContact@agk@AGK@@SAHXZ 00406ec0 f   AGKWindows:Wrapper.obj
 0001:00005f00       ?GetNextContact@agk@AGK@@SAHXZ 00406f00 f   AGKWindows:Wrapper.obj
 0001:00005f40       ?GetContactWorldX@agk@AGK@@SAMXZ 00406f40 f   AGKWindows:Wrapper.obj
 0001:00005f90       ?GetContactWorldY@agk@AGK@@SAMXZ 00406f90 f   AGKWindows:Wrapper.obj
 0001:00005fe0       ?GetContactSpriteID1@agk@AGK@@SAIXZ 00406fe0 f   AGKWindows:Wrapper.obj
 0001:00006010       ?GetContactSpriteID2@agk@AGK@@SAIXZ 00407010 f   AGKWindows:Wrapper.obj
 0001:00006040       ?GetContactSprite1@agk@AGK@@SAPAVcSprite@2@XZ 00407040 f   AGKWindows:Wrapper.obj
 0001:00006060       ?GetContactSprite2@agk@AGK@@SAPAVcSprite@2@XZ 00407060 f   AGKWindows:Wrapper.obj
 0001:00006080       ?GetSpriteNextContact@agk@AGK@@SAHXZ 00407080 f   AGKWindows:Wrapper.obj
 0001:000060a0       ?GetSpriteContactWorldX@agk@AGK@@SAMXZ 004070a0 f   AGKWindows:Wrapper.obj
 0001:000060c0       ?GetSpriteContactWorldY@agk@AGK@@SAMXZ 004070c0 f   AGKWindows:Wrapper.obj
 0001:000060e0       ?GetSpriteContactSpriteID2@agk@AGK@@SAIXZ 004070e0 f   AGKWindows:Wrapper.obj
 0001:00006100       ?GetSpriteContactSprite2@agk@AGK@@SAPAVcSprite@2@XZ 00407100 f   AGKWindows:Wrapper.obj
 0001:00006120       ?GetPhysicsCollisionX@agk@AGK@@SAMXZ 00407120 f   AGKWindows:Wrapper.obj
 0001:00006140       ?GetPhysicsCollisionY@agk@AGK@@SAMXZ 00407140 f   AGKWindows:Wrapper.obj
 0001:00006160       ?GetPhysicsCollisionWorldX@agk@AGK@@SAMXZ 00407160 f   AGKWindows:Wrapper.obj
 0001:00006180       ?GetPhysicsCollisionWorldY@agk@AGK@@SAMXZ 00407180 f   AGKWindows:Wrapper.obj
 0001:000061a0       ?SetTextDefaultMinFilter@agk@AGK@@SAXI@Z 004071a0 f   AGKWindows:Wrapper.obj
 0001:000061b0       ?SetTextDefaultMagFilter@agk@AGK@@SAXI@Z 004071b0 f   AGKWindows:Wrapper.obj
 0001:000061c0       ?Print@agk@AGK@@SAXPBD@Z   004071c0 f   AGKWindows:Wrapper.obj
 0001:000061f0       ?Print@agk@AGK@@SAXABVuString@2@@Z 004071f0 f   AGKWindows:Wrapper.obj
 0001:00006230       ?Print@agk@AGK@@SAXH@Z     00407230 f   AGKWindows:Wrapper.obj
 0001:00006260       ?Print@agk@AGK@@SAXI@Z     00407260 f   AGKWindows:Wrapper.obj
 0001:00006290       ?Print@agk@AGK@@SAXM@Z     00407290 f   AGKWindows:Wrapper.obj
 0001:000062c0       ?PrintC@agk@AGK@@SAXPBD@Z  004072c0 f   AGKWindows:Wrapper.obj
 0001:000062e0       ?PrintC@agk@AGK@@SAXABVuString@2@@Z 004072e0 f   AGKWindows:Wrapper.obj
 0001:00006310       ?PrintC@agk@AGK@@SAXH@Z    00407310 f   AGKWindows:Wrapper.obj
 0001:00006340       ?PrintC@agk@AGK@@SAXI@Z    00407340 f   AGKWindows:Wrapper.obj
 0001:00006370       ?PrintC@agk@AGK@@SAXM@Z    00407370 f   AGKWindows:Wrapper.obj
 0001:000063a0       ?SetPrintSize@agk@AGK@@SAXM@Z 004073a0 f   AGKWindows:Wrapper.obj
 0001:000063c0       ?SetPrintSpacing@agk@AGK@@SAXM@Z 004073c0 f   AGKWindows:Wrapper.obj
 0001:000063e0       ?SetPrintColor@agk@AGK@@SAXIII@Z 004073e0 f   AGKWindows:Wrapper.obj
 0001:00006410       ?SetPrintColor@agk@AGK@@SAXIIII@Z 00407410 f   AGKWindows:Wrapper.obj
 0001:00006440       ?GetRawTouchCount@agk@AGK@@SAIH@Z 00407440 f   AGKWindows:Wrapper.obj
 0001:00006460       ?GetRawFirstTouchEvent@agk@AGK@@SAIH@Z 00407460 f   AGKWindows:Wrapper.obj
 0001:00006490       ?GetRawNextTouchEvent@agk@AGK@@SAIXZ 00407490 f   AGKWindows:Wrapper.obj
 0001:000064a0       ?GetRawTouchType@agk@AGK@@SAHI@Z 004074a0 f   AGKWindows:Wrapper.obj
 0001:000064e0       ?GetRawTouchStartX@agk@AGK@@SAMI@Z 004074e0 f   AGKWindows:Wrapper.obj
 0001:00006500       ?GetRawTouchStartY@agk@AGK@@SAMI@Z 00407500 f   AGKWindows:Wrapper.obj
 0001:00006520       ?GetRawTouchCurrentX@agk@AGK@@SAMI@Z 00407520 f   AGKWindows:Wrapper.obj
 0001:00006540       ?GetRawTouchCurrentY@agk@AGK@@SAMI@Z 00407540 f   AGKWindows:Wrapper.obj
 0001:00006560       ?GetRawTouchLastX@agk@AGK@@SAMI@Z 00407560 f   AGKWindows:Wrapper.obj
 0001:00006580       ?GetRawTouchLastY@agk@AGK@@SAMI@Z 00407580 f   AGKWindows:Wrapper.obj
 0001:000065a0       ?GetRawTouchReleased@agk@AGK@@SAHI@Z 004075a0 f   AGKWindows:Wrapper.obj
 0001:000065d0       ?SetRawTouchValue@agk@AGK@@SAXIH@Z 004075d0 f   AGKWindows:Wrapper.obj
 0001:000065f0       ?GetRawTouchValue@agk@AGK@@SAHI@Z 004075f0 f   AGKWindows:Wrapper.obj
 0001:00006610       ?GetRawTouchTime@agk@AGK@@SAMI@Z 00407610 f   AGKWindows:Wrapper.obj
 0001:00006630       ?LoadSound@agk@AGK@@SAXIPBD@Z 00407630 f   AGKWindows:Wrapper.obj
 0001:000066a0       ?LoadSound@agk@AGK@@SAIPBD@Z 004076a0 f   AGKWindows:Wrapper.obj
 0001:00006710       ?LoadSound@agk@AGK@@SAXIABVuString@2@@Z 00407710 f   AGKWindows:Wrapper.obj
 0001:00006730       ?LoadSound@agk@AGK@@SAIABVuString@2@@Z 00407730 f   AGKWindows:Wrapper.obj
 0001:00006750       ?PlaySound@agk@AGK@@SAXI@Z 00407750 f   AGKWindows:Wrapper.obj
 0001:00006770       ?PlaySound@agk@AGK@@SAXIH@Z 00407770 f   AGKWindows:Wrapper.obj
 0001:00006790       ?PlaySound@agk@AGK@@SAXIHH@Z 00407790 f   AGKWindows:Wrapper.obj
 0001:000067b0       ?PlaySound@agk@AGK@@SAXIHHH@Z 004077b0 f   AGKWindows:Wrapper.obj
 0001:000067c0       ?StopSound@agk@AGK@@SAXI@Z 004077c0 f   AGKWindows:Wrapper.obj
 0001:000067d0       ?DeleteSound@agk@AGK@@SAXI@Z 004077d0 f   AGKWindows:Wrapper.obj
 0001:000067e0       ?GetSoundExists@agk@AGK@@SAII@Z 004077e0 f   AGKWindows:Wrapper.obj
 0001:000067f0       ?GetSoundInstances@agk@AGK@@SAII@Z 004077f0 f   AGKWindows:Wrapper.obj
 0001:00006800       ?GetSoundsPlaying@agk@AGK@@SAII@Z 00407800 f   AGKWindows:Wrapper.obj
 0001:00006810       ?SetSoundSystemVolume@agk@AGK@@SAXH@Z 00407810 f   AGKWindows:Wrapper.obj
 0001:00006820       ?LoadMusic@agk@AGK@@SAIPBD@Z 00407820 f   AGKWindows:Wrapper.obj
 0001:00006890       ?LoadMusic@agk@AGK@@SAXIPBD@Z 00407890 f   AGKWindows:Wrapper.obj
 0001:00006900       ?SetMusicFileVolume@agk@AGK@@SAXIH@Z 00407900 f   AGKWindows:Wrapper.obj
 0001:00006920       ?PlayMusic@agk@AGK@@SAXXZ  00407920 f   AGKWindows:Wrapper.obj
 0001:00006940       ?PlayMusic@agk@AGK@@SAXI@Z 00407940 f   AGKWindows:Wrapper.obj
 0001:00006960       ?PlayMusic@agk@AGK@@SAXIH@Z 00407960 f   AGKWindows:Wrapper.obj
 0001:00006990       ?PlayMusic@agk@AGK@@SAXIHII@Z 00407990 f   AGKWindows:Wrapper.obj
 0001:000069c0       ?PauseMusic@agk@AGK@@SAXXZ 004079c0 f   AGKWindows:Wrapper.obj
 0001:000069d0       ?ResumeMusic@agk@AGK@@SAXXZ 004079d0 f   AGKWindows:Wrapper.obj
 0001:000069e0       ?StopMusic@agk@AGK@@SAXXZ  004079e0 f   AGKWindows:Wrapper.obj
 0001:000069f0       ?DeleteMusic@agk@AGK@@SAXI@Z 004079f0 f   AGKWindows:Wrapper.obj
 0001:00006a10       ?GetMusicPlaying@agk@AGK@@SAHXZ 00407a10 f   AGKWindows:Wrapper.obj
 0001:00006a20       ?SetMusicSystemVolume@agk@AGK@@SAXH@Z 00407a20 f   AGKWindows:Wrapper.obj
 0001:00006a40       ?GetMusicExists@agk@AGK@@SAII@Z 00407a40 f   AGKWindows:Wrapper.obj
 0001:00006a60       ?DeleteFileA@agk@AGK@@SAXPBD@Z 00407a60 f   AGKWindows:Wrapper.obj
 0001:00006a70       ?GetFileExists@agk@AGK@@SAHPBD@Z 00407a70 f   AGKWindows:Wrapper.obj
 0001:00006a90       ?ChooseRawFile@agk@AGK@@SAPADPBD@Z 00407a90 f   AGKWindows:Wrapper.obj
 0001:00006b40       ?Str@agk@AGK@@SAPADH@Z     00407b40 f   AGKWindows:Wrapper.obj
 0001:00006b70       ?Str@agk@AGK@@SAPADM@Z     00407b70 f   AGKWindows:Wrapper.obj
 0001:00006ba0       ?Str@agk@AGK@@SAPADMI@Z    00407ba0 f   AGKWindows:Wrapper.obj
 0001:00006be0       ?Bin@agk@AGK@@SAPADH@Z     00407be0 f   AGKWindows:Wrapper.obj
 0001:00006c70       ?Hex@agk@AGK@@SAPADH@Z     00407c70 f   AGKWindows:Wrapper.obj
 0001:00006ca0       ?Val@agk@AGK@@SAHPBD@Z     00407ca0 f   AGKWindows:Wrapper.obj
 0001:00006d30       ?Val@agk@AGK@@SAHPBDH@Z    00407d30 f   AGKWindows:Wrapper.obj
 0001:00006d70       ?ValFloat@agk@AGK@@SAMPBD@Z 00407d70 f   AGKWindows:Wrapper.obj
 0001:00006e00       ?Left@agk@AGK@@SAPADPBDI@Z 00407e00 f   AGKWindows:Wrapper.obj
 0001:00006e90       ?Right@agk@AGK@@SAPADPBDI@Z 00407e90 f   AGKWindows:Wrapper.obj
 0001:00006f40       ?Asc@agk@AGK@@SAIPBD@Z     00407f40 f   AGKWindows:Wrapper.obj
 0001:00006f60       ?Len@agk@AGK@@SAIPBD@Z     00407f60 f   AGKWindows:Wrapper.obj
 0001:00006f80       ?Chr@agk@AGK@@SAPADI@Z     00407f80 f   AGKWindows:Wrapper.obj
 0001:00006fa0       ?Lower@agk@AGK@@SAPADPBD@Z 00407fa0 f   AGKWindows:Wrapper.obj
 0001:00007010       ?Upper@agk@AGK@@SAPADPBD@Z 00408010 f   AGKWindows:Wrapper.obj
 0001:00007080       ?Spaces@agk@AGK@@SAPADI@Z  00408080 f   AGKWindows:Wrapper.obj
 0001:000070c0       ?CountStringTokens@agk@AGK@@SAHPBD0@Z 004080c0 f   AGKWindows:Wrapper.obj
 0001:00007130       ?GetStringToken@agk@AGK@@SAPADPBD0H@Z 00408130 f   AGKWindows:Wrapper.obj
 0001:000071a0       ?GetCurrentDir@agk@AGK@@SAPADXZ 004081a0 f   AGKWindows:Wrapper.obj
 0001:000071e0       ?GetFolder@agk@AGK@@SAPADXZ 004081e0 f   AGKWindows:Wrapper.obj
 0001:00007220       ?SetFolder@agk@AGK@@SAHPBD@Z 00408220 f   AGKWindows:Wrapper.obj
 0001:00007230       ?GetFirstFolder@agk@AGK@@SAPADXZ 00408230 f   AGKWindows:Wrapper.obj
 0001:00007280       ?GetNextFolder@agk@AGK@@SAPADXZ 00408280 f   AGKWindows:Wrapper.obj
 0001:000072d0       ?GetFirstFile@agk@AGK@@SAPADXZ 004082d0 f   AGKWindows:Wrapper.obj
 0001:00007320       ?GetNextFile@agk@AGK@@SAPADXZ 00408320 f   AGKWindows:Wrapper.obj
 0001:00007370       ?SetErrorMode@agk@AGK@@SAXH@Z 00408370 f   AGKWindows:Wrapper.obj
 0001:00007380       ?GetLastError@agk@AGK@@SAPADXZ 00408380 f   AGKWindows:Wrapper.obj
 0001:000073c0       ?GetErrorOccurred@agk@AGK@@SAHXZ 004083c0 f   AGKWindows:Wrapper.obj
 0001:000073e0       ?SetWarningCallback@agk@AGK@@SAXP6AXPBD@Z@Z 004083e0 f   AGKWindows:Wrapper.obj
 0001:000073f0       ?SetErrorCallback@agk@AGK@@SAXP6AXPBD@Z@Z 004083f0 f   AGKWindows:Wrapper.obj
 0001:00007400       ?Message@agk@AGK@@SAXPBD@Z 00408400 f   AGKWindows:Wrapper.obj
 0001:00007410       ?GetJoystickExists@agk@AGK@@SAHXZ 00408410 f   AGKWindows:Wrapper.obj
 0001:00007430       ?GetRawMouseX@agk@AGK@@SAMXZ 00408430 f   AGKWindows:Wrapper.obj
 0001:00007440       ?GetRawMouseY@agk@AGK@@SAMXZ 00408440 f   AGKWindows:Wrapper.obj
 0001:00007450       ?GetRawMouseLeftPressed@agk@AGK@@SAHXZ 00408450 f   AGKWindows:Wrapper.obj
 0001:00007490       ?GetRawMouseLeftState@agk@AGK@@SAHXZ 00408490 f   AGKWindows:Wrapper.obj
 0001:000074c0       ?GetRawMouseLeftReleased@agk@AGK@@SAHXZ 004084c0 f   AGKWindows:Wrapper.obj
 0001:00007500       ?GetRawMouseRightPressed@agk@AGK@@SAHXZ 00408500 f   AGKWindows:Wrapper.obj
 0001:00007540       ?GetRawMouseRightState@agk@AGK@@SAHXZ 00408540 f   AGKWindows:Wrapper.obj
 0001:00007570       ?GetRawMouseRightReleased@agk@AGK@@SAHXZ 00408570 f   AGKWindows:Wrapper.obj
 0001:000075b0       ?CompleteRawJoystickDetection@agk@AGK@@SAXXZ 004085b0 f   AGKWindows:Wrapper.obj
 0001:000075c0       ?SetRawJoystickDeadZone@agk@AGK@@SAXM@Z 004085c0 f   AGKWindows:Wrapper.obj
 0001:000075d0       ?SetVirtualJoystickDeadZone@agk@AGK@@SAXM@Z 004085d0 f   AGKWindows:Wrapper.obj
 0001:000075e0       ?GetRawKeyPressed@agk@AGK@@SAHI@Z 004085e0 f   AGKWindows:Wrapper.obj
 0001:00007610       ?GetRawKeyState@agk@AGK@@SAHI@Z 00408610 f   AGKWindows:Wrapper.obj
 0001:00007630       ?GetRawKeyReleased@agk@AGK@@SAHI@Z 00408630 f   AGKWindows:Wrapper.obj
 0001:00007660       ?GetRawLastKey@agk@AGK@@SAHXZ 00408660 f   AGKWindows:Wrapper.obj
 0001:00007670       ?GetPointerPressed@agk@AGK@@SAHXZ 00408670 f   AGKWindows:Wrapper.obj
 0001:00007690       ?GetPointerReleased@agk@AGK@@SAHXZ 00408690 f   AGKWindows:Wrapper.obj
 0001:000076b0       ?GetPointerState@agk@AGK@@SAHXZ 004086b0 f   AGKWindows:Wrapper.obj
 0001:000076c0       ?GetPointerX@agk@AGK@@SAMXZ 004086c0 f   AGKWindows:Wrapper.obj
 0001:00007710       ?GetPointerY@agk@AGK@@SAMXZ 00408710 f   AGKWindows:Wrapper.obj
 0001:00007760       ?SetJoystickDeadZone@agk@AGK@@SAXM@Z 00408760 f   AGKWindows:Wrapper.obj
 0001:00007770       ?StartTextInput@agk@AGK@@SAXXZ 00408770 f   AGKWindows:Wrapper.obj
 0001:000077a0       ?StartTextInput@agk@AGK@@SAXPBD@Z 004087a0 f   AGKWindows:Wrapper.obj
 0001:000077e0       ?StopTextInput@agk@AGK@@SAXXZ 004087e0 f   AGKWindows:Wrapper.obj
 0001:000077f0       ?GetTextInputState@agk@AGK@@SAHXZ 004087f0 f   AGKWindows:Wrapper.obj
 0001:00007800       ?GetTextInputCompleted@agk@AGK@@SAHXZ 00408800 f   AGKWindows:Wrapper.obj
 0001:00007820       ?GetTextInputCancelled@agk@AGK@@SAHXZ 00408820 f   AGKWindows:Wrapper.obj
 0001:00007830       ?GetTextInput@agk@AGK@@SAPADXZ 00408830 f   AGKWindows:Wrapper.obj
 0001:00007870       ?GetPrevChar@agk@AGK@@SAIXZ 00408870 f   AGKWindows:Wrapper.obj
 0001:00007880       ?GetLastChar@agk@AGK@@SAIXZ 00408880 f   AGKWindows:Wrapper.obj
 0001:00007890       ?SetCursorBlinkTime@agk@AGK@@SAXM@Z 00408890 f   AGKWindows:Wrapper.obj
 0001:000078c0       ?SetTextInputMaxChars@agk@AGK@@SAXH@Z 004088c0 f   AGKWindows:Wrapper.obj
 0001:000078e0       ?SetTextInputLabel@agk@AGK@@SAXPBD@Z 004088e0 f   AGKWindows:Wrapper.obj
 0001:00007900       ?GetManagedSpriteDrawnCount@agk@AGK@@SAIXZ 00408900 f   AGKWindows:Wrapper.obj
 0001:00007910       ?GetManagedSpriteCount@agk@AGK@@SAIXZ 00408910 f   AGKWindows:Wrapper.obj
 0001:00007920       ?GetManagedSpriteSortedCount@agk@AGK@@SAIXZ 00408920 f   AGKWindows:Wrapper.obj
 0001:00007930       ?GetPixelsDrawn@agk@AGK@@SAIXZ 00408930 f   AGKWindows:Wrapper.obj
 0001:00007940       ?GetManagedSpriteDrawCalls@agk@AGK@@SAIXZ 00408940 f   AGKWindows:Wrapper.obj
 0001:00007950       ?GetParticleDrawnPointCount@agk@AGK@@SAIXZ 00408950 f   AGKWindows:Wrapper.obj
 0001:00007960       ?GetParticleDrawnQuadCount@agk@AGK@@SAIXZ 00408960 f   AGKWindows:Wrapper.obj
 0001:00007970       ?GetUpdateTime@agk@AGK@@SAMXZ 00408970 f   AGKWindows:Wrapper.obj
 0001:00007980       ?GetPhysicsTime@agk@AGK@@SAMXZ 00408980 f   AGKWindows:Wrapper.obj
 0001:00007990       ?GetDrawingSetupTime@agk@AGK@@SAMXZ 00408990 f   AGKWindows:Wrapper.obj
 0001:000079a0       ?GetDrawingTime@agk@AGK@@SAMXZ 004089a0 f   AGKWindows:Wrapper.obj
 0001:000079b0       ?GetLeapYear@agk@AGK@@SAHH@Z 004089b0 f   AGKWindows:Wrapper.obj
 0001:00007a10       ?GetUnixFromDate64@agk@AGK@@SA_JHHHHHH@Z 00408a10 f   AGKWindows:Wrapper.obj
 0001:00007bf0       ?GetYearFromUnix64@agk@AGK@@SAH_JPAH@Z 00408bf0 f   AGKWindows:Wrapper.obj
 0001:00007db0       ?GetMonthFromUnix64@agk@AGK@@SAH_J@Z 00408db0 f   AGKWindows:Wrapper.obj
 0001:00007e10       ?GetDayFromUnix64@agk@AGK@@SAH_J@Z 00408e10 f   AGKWindows:Wrapper.obj
 0001:00007e70       ?GetHoursFromUnix64@agk@AGK@@SAH_J@Z 00408e70 f   AGKWindows:Wrapper.obj
 0001:00007ee0       ?GetMinutesFromUnix64@agk@AGK@@SAH_J@Z 00408ee0 f   AGKWindows:Wrapper.obj
 0001:00007f50       ?GetSecondsFromUnix64@agk@AGK@@SAH_J@Z 00408f50 f   AGKWindows:Wrapper.obj
 0001:00007fc0       ?GetUnixFromDate@agk@AGK@@SAHHHHHHH@Z 00408fc0 f   AGKWindows:Wrapper.obj
 0001:00008170       ?GetYearFromUnix32@agk@AGK@@SAHHPAH@Z 00409170 f   AGKWindows:Wrapper.obj
 0001:00008300       ?GetYearFromUnix@agk@AGK@@SAHH@Z 00409300 f   AGKWindows:Wrapper.obj
 0001:00008320       ?GetMonthFromUnix@agk@AGK@@SAHH@Z 00409320 f   AGKWindows:Wrapper.obj
 0001:00008370       ?GetDaysFromUnix@agk@AGK@@SAHH@Z 00409370 f   AGKWindows:Wrapper.obj
 0001:000083d0       ?GetHoursFromUnix@agk@AGK@@SAHH@Z 004093d0 f   AGKWindows:Wrapper.obj
 0001:00008430       ?GetMinutesFromUnix@agk@AGK@@SAHH@Z 00409430 f   AGKWindows:Wrapper.obj
 0001:000084a0       ?GetSecondsFromUnix@agk@AGK@@SAHH@Z 004094a0 f   AGKWindows:Wrapper.obj
 0001:000084f0       ?SetInneractiveDetails@agk@AGK@@SAXPBD@Z 004094f0 f   AGKWindows:Wrapper.obj
 0001:00008530       ?SetAdvertPosition@agk@AGK@@SAXMMM@Z 00409530 f   AGKWindows:Wrapper.obj
 0001:000085d0       ?SetAdvertLocation@agk@AGK@@SAXHHM@Z 004095d0 f   AGKWindows:Wrapper.obj
 0001:00008700       ?DeleteAdvert@agk@AGK@@SAXXZ 00409700 f   AGKWindows:Wrapper.obj
 0001:00008750       ?DrawAd@agk@AGK@@KAXXZ     00409750 f   AGKWindows:Wrapper.obj
 0001:00008760       ?ExtractZip@agk@AGK@@SAXPBD0@Z 00409760 f   AGKWindows:Wrapper.obj
 0001:00008770       ?TouchMoved@agk@AGK@@SAXIHH@Z 00409770 f   AGKWindows:Wrapper.obj
 0001:00008840       ?TouchReleased@agk@AGK@@SAXIHH@Z 00409840 f   AGKWindows:Wrapper.obj
 0001:00008910       ?MouseMove@agk@AGK@@SAXIHH@Z 00409910 f   AGKWindows:Wrapper.obj
 0001:00008a10       ?WorldToScreenX@agk@AGK@@SAMM@Z 00409a10 f   AGKWindows:Wrapper.obj
 0001:00008a70       ?WorldToScreenY@agk@AGK@@SAMM@Z 00409a70 f   AGKWindows:Wrapper.obj
 0001:00008ad0       ?ScreenToWorldX@agk@AGK@@SAMM@Z 00409ad0 f   AGKWindows:Wrapper.obj
 0001:00008b30       ?ScreenToWorldY@agk@AGK@@SAMM@Z 00409b30 f   AGKWindows:Wrapper.obj
 0001:00008b90       ?ResetAllStates@agk@AGK@@SAXXZ 00409b90 f   AGKWindows:Wrapper.obj
 0001:00008cf0       ?CleanUp@agk@AGK@@SAXXZ    00409cf0 f   AGKWindows:Wrapper.obj
 0001:00008d70       ?RecalculateDisplay@agk@AGK@@KAXXZ 00409d70 f   AGKWindows:Wrapper.obj
 0001:00008ea0       ?UpdatePhysicsWalls@agk@AGK@@KAXXZ 00409ea0 f   AGKWindows:Wrapper.obj
 0001:00009390       ?SetVirtualResolution@agk@AGK@@SAXHH@Z 0040a390 f   AGKWindows:Wrapper.obj
 0001:00009470       ?UpdateDeviceSize@agk@AGK@@SAXII@Z 0040a470 f   AGKWindows:Wrapper.obj
 0001:00009530       ?Swap@agk@AGK@@SAXXZ       0040a530 f   AGKWindows:Wrapper.obj
 0001:000096c0       ?ChooseImage@agk@AGK@@SAIXZ 0040a6c0 f   AGKWindows:Wrapper.obj
 0001:000096d0       ?SetPhysicsScale@agk@AGK@@SAXM@Z 0040a6d0 f   AGKWindows:Wrapper.obj
 0001:00009700       ?SetPhysicsWallTop@agk@AGK@@SAXH@Z 0040a700 f   AGKWindows:Wrapper.obj
 0001:000098e0       ?SetPhysicsWallLeft@agk@AGK@@SAXH@Z 0040a8e0 f   AGKWindows:Wrapper.obj
 0001:00009ab0       ?SetPhysicsWallRight@agk@AGK@@SAXH@Z 0040aab0 f   AGKWindows:Wrapper.obj
 0001:00009c90       ?SetPhysicsWallBottom@agk@AGK@@SAXH@Z 0040ac90 f   AGKWindows:Wrapper.obj
 0001:00009e80       ?GetLastError@agk@AGK@@SAHAAVuString@2@@Z 0040ae80 f   AGKWindows:Wrapper.obj
 0001:00009eb0       ?Error@agk@AGK@@SAXABVuString@2@@Z 0040aeb0 f   AGKWindows:Wrapper.obj
 0001:00009f90       ?Warning@agk@AGK@@SAXABVuString@2@@Z 0040af90 f   AGKWindows:Wrapper.obj
 0001:0000a040       ?GetRawJoystickExists@agk@AGK@@SAHI@Z 0040b040 f   AGKWindows:Wrapper.obj
 0001:0000a0e0       ?GetRawJoystickX@agk@AGK@@SAMI@Z 0040b0e0 f   AGKWindows:Wrapper.obj
 0001:0000a1c0       ?GetRawJoystickY@agk@AGK@@SAMI@Z 0040b1c0 f   AGKWindows:Wrapper.obj
 0001:0000a2a0       ?GetRawJoystickZ@agk@AGK@@SAMI@Z 0040b2a0 f   AGKWindows:Wrapper.obj
 0001:0000a380       ?GetRawJoystickRX@agk@AGK@@SAMI@Z 0040b380 f   AGKWindows:Wrapper.obj
 0001:0000a460       ?GetRawJoystickRY@agk@AGK@@SAMI@Z 0040b460 f   AGKWindows:Wrapper.obj
 0001:0000a540       ?GetRawJoystickRZ@agk@AGK@@SAMI@Z 0040b540 f   AGKWindows:Wrapper.obj
 0001:0000a620       ?GetRawJoystickButtonPressed@agk@AGK@@SAHII@Z 0040b620 f   AGKWindows:Wrapper.obj
 0001:0000a730       ?GetRawJoystickButtonState@agk@AGK@@SAHII@Z 0040b730 f   AGKWindows:Wrapper.obj
 0001:0000a830       ?GetRawJoystickButtonReleased@agk@AGK@@SAHII@Z 0040b830 f   AGKWindows:Wrapper.obj
 0001:0000a940       ?AddVirtualJoystick@agk@AGK@@SAXIMMM@Z 0040b940 f   AGKWindows:Wrapper.obj
 0001:0000aa60       ?DeleteVirtualJoystick@agk@AGK@@SAXI@Z 0040ba60 f   AGKWindows:Wrapper.obj
 0001:0000ab10       ?GetVirtualJoystickExists@agk@AGK@@SAHI@Z 0040bb10 f   AGKWindows:Wrapper.obj
 0001:0000aba0       ?GetVirtualJoystickX@agk@AGK@@SAMI@Z 0040bba0 f   AGKWindows:Wrapper.obj
 0001:0000ac80       ?GetVirtualJoystickY@agk@AGK@@SAMI@Z 0040bc80 f   AGKWindows:Wrapper.obj
 0001:0000ad60       ?SetVirtualJoystickAlpha@agk@AGK@@SAXIII@Z 0040bd60 f   AGKWindows:Wrapper.obj
 0001:0000ae50       ?SetVirtualJoystickPosition@agk@AGK@@SAXIMM@Z 0040be50 f   AGKWindows:Wrapper.obj
 0001:0000af40       ?SetVirtualJoystickSize@agk@AGK@@SAXIM@Z 0040bf40 f   AGKWindows:Wrapper.obj
 0001:0000b020       ?SetVirtualJoystickActive@agk@AGK@@SAXIH@Z 0040c020 f   AGKWindows:Wrapper.obj
 0001:0000b110       ?SetVirtualJoystickVisible@agk@AGK@@SAXIH@Z 0040c110 f   AGKWindows:Wrapper.obj
 0001:0000b200       ?AddVirtualButton@agk@AGK@@SAXIMMM@Z 0040c200 f   AGKWindows:Wrapper.obj
 0001:0000b320       ?DeleteVirtualButton@agk@AGK@@SAXI@Z 0040c320 f   AGKWindows:Wrapper.obj
 0001:0000b3d0       ?GetVirtualButtonExists@agk@AGK@@SAHI@Z 0040c3d0 f   AGKWindows:Wrapper.obj
 0001:0000b460       ?GetVirtualButtonPressed@agk@AGK@@SAHI@Z 0040c460 f   AGKWindows:Wrapper.obj
 0001:0000b560       ?GetVirtualButtonReleased@agk@AGK@@SAHI@Z 0040c560 f   AGKWindows:Wrapper.obj
 0001:0000b660       ?GetVirtualButtonState@agk@AGK@@SAHI@Z 0040c660 f   AGKWindows:Wrapper.obj
 0001:0000b750       ?SetVirtualButtonColor@agk@AGK@@SAXIIII@Z 0040c750 f   AGKWindows:Wrapper.obj
 0001:0000b840       ?SetVirtualButtonAlpha@agk@AGK@@SAXII@Z 0040c840 f   AGKWindows:Wrapper.obj
 0001:0000b920       ?SetVirtualButtonPosition@agk@AGK@@SAXIMM@Z 0040c920 f   AGKWindows:Wrapper.obj
 0001:0000ba10       ?SetVirtualButtonSize@agk@AGK@@SAXIM@Z 0040ca10 f   AGKWindows:Wrapper.obj
 0001:0000baf0       ?SetVirtualButtonActive@agk@AGK@@SAXIH@Z 0040caf0 f   AGKWindows:Wrapper.obj
 0001:0000bbe0       ?SetVirtualButtonVisible@agk@AGK@@SAXIH@Z 0040cbe0 f   AGKWindows:Wrapper.obj
 0001:0000bcd0       ?SetVirtualButtonText@agk@AGK@@SAXIPBD@Z 0040ccd0 f   AGKWindows:Wrapper.obj
 0001:0000bdb0       ?GetJoystickX@agk@AGK@@SAMXZ 0040cdb0 f   AGKWindows:Wrapper.obj
 0001:0000bea0       ?GetJoystickY@agk@AGK@@SAMXZ 0040cea0 f   AGKWindows:Wrapper.obj
 0001:0000bf90       ?SetJoystickScreenPosition@agk@AGK@@SAXMMM@Z 0040cf90 f   AGKWindows:Wrapper.obj
 0001:0000c010       ?GetButtonPressed@agk@AGK@@SAHI@Z 0040d010 f   AGKWindows:Wrapper.obj
 0001:0000c1f0       ?GetButtonState@agk@AGK@@SAHI@Z 0040d1f0 f   AGKWindows:Wrapper.obj
 0001:0000c410       ?GetButtonReleased@agk@AGK@@SAHI@Z 0040d410 f   AGKWindows:Wrapper.obj
 0001:0000c630       ?SetButtonScreenPosition@agk@AGK@@SAXIMMM@Z 0040d630 f   AGKWindows:Wrapper.obj
 0001:0000c750       ?GetTextInput@agk@AGK@@SAHAAVuString@2@@Z 0040d750 f   AGKWindows:Wrapper.obj
 0001:0000c780       ?CreateAdvert@agk@AGK@@SAXHHHH@Z 0040d780 f   AGKWindows:Wrapper.obj
 0001:0000cb90       ?UpdateAd@agk@AGK@@KAXXZ   0040db90 f   AGKWindows:Wrapper.obj
 0001:0000d630       ?ConvertToReal@cFileEntry@AGK@@SAXAAVuString@2@@Z 0040e630 f   AGKWindows:Wrapper.obj
 0001:0000d6d0       ?SetAppName@agk@AGK@@SAXPBD@Z 0040e6d0 f   AGKWindows:Wrapper.obj
 0001:0000d880       ?TouchPressed@agk@AGK@@SAXIHH@Z 0040e880 f   AGKWindows:Wrapper.obj
 0001:0000dbc0       ?MouseLeftButton@agk@AGK@@SAXIH@Z 0040ebc0 f   AGKWindows:Wrapper.obj
 0001:0000dfb0       ?KeyDown@agk@AGK@@SAXI@Z   0040efb0 f   AGKWindows:Wrapper.obj
 0001:0000e050       ?KeyUp@agk@AGK@@SAXI@Z     0040f050 f   AGKWindows:Wrapper.obj
 0001:0000e0f0       ?OrientationChanged@agk@AGK@@SAXH@Z 0040f0f0 f   AGKWindows:Wrapper.obj
 0001:0000e1b0       ?SetOrientationAllowed@agk@AGK@@SAXHHHH@Z 0040f1b0 f   AGKWindows:Wrapper.obj
 0001:0000e300       ?SetDisplayAspect@agk@AGK@@SAXM@Z 0040f300 f   AGKWindows:Wrapper.obj
 0001:0000e380       ?SetViewOffset@agk@AGK@@SAXMM@Z 0040f380 f   AGKWindows:Wrapper.obj
 0001:0000e450       ?SetViewZoom@agk@AGK@@SAXM@Z 0040f450 f   AGKWindows:Wrapper.obj
 0001:0000e520       ?StepPhysics@agk@AGK@@SAXM@Z 0040f520 f   AGKWindows:Wrapper.obj
 0001:0000e820       ?Update@agk@AGK@@SAXM@Z    0040f820 f   AGKWindows:Wrapper.obj
 0001:0000f0d0       ?Render@agk@AGK@@SAXXZ     004100d0 f   AGKWindows:Wrapper.obj
 0001:0000f7f0       ?GetImagePtr@agk@AGK@@SAPAVcImage@2@I@Z 004107f0 f   AGKWindows:Wrapper.obj
 0001:0000f830       ?GetImageExists@agk@AGK@@SAII@Z 00410830 f   AGKWindows:Wrapper.obj
 0001:0000f870       ?GetImageWidth@agk@AGK@@SAMI@Z 00410870 f   AGKWindows:Wrapper.obj
 0001:0000f8c0       ?GetImageHeight@agk@AGK@@SAMI@Z 004108c0 f   AGKWindows:Wrapper.obj
 0001:0000f910       ?SetImageMinFilter@agk@AGK@@SAXII@Z 00410910 f   AGKWindows:Wrapper.obj
 0001:0000f960       ?SetImageMagFilter@agk@AGK@@SAXII@Z 00410960 f   AGKWindows:Wrapper.obj
 0001:0000f9b0       ?SetImageWrapU@agk@AGK@@SAXII@Z 004109b0 f   AGKWindows:Wrapper.obj
 0001:0000fa00       ?SetImageWrapV@agk@AGK@@SAXII@Z 00410a00 f   AGKWindows:Wrapper.obj
 0001:0000fa50       ?SetImageMask@agk@AGK@@SAXIIHHHH@Z 00410a50 f   AGKWindows:Wrapper.obj
 0001:0000fbf0       ?SaveImage@agk@AGK@@SAXIPBD@Z 00410bf0 f   AGKWindows:Wrapper.obj
 0001:0000fd00       ?GetImageFilename@agk@AGK@@SAPADI@Z 00410d00 f   AGKWindows:Wrapper.obj
 0001:0000fe10       ?DecodeQRCode@agk@AGK@@SAPADI@Z 00410e10 f   AGKWindows:Wrapper.obj
 0001:0000ff30       ?PrintImage@agk@AGK@@SAXIM@Z 00410f30 f   AGKWindows:Wrapper.obj
 0001:00010030       ?GetSpritePtr@agk@AGK@@SAPAVcSprite@2@I@Z 00411030 f   AGKWindows:Wrapper.obj
 0001:000100e0       ?GetSpriteImageID@agk@AGK@@SAII@Z 004110e0 f   AGKWindows:Wrapper.obj
 0001:000101b0       ?GetSpriteExists@agk@AGK@@SAII@Z 004111b0 f   AGKWindows:Wrapper.obj
 0001:000101f0       ?SetSpriteImage@agk@AGK@@SAXIIH@Z 004111f0 f   AGKWindows:Wrapper.obj
 0001:00010360       ?SetSpriteUV@agk@AGK@@SAXIMMMMMMMM@Z 00411360 f   AGKWindows:Wrapper.obj
 0001:00010460       ?ResetSpriteUV@agk@AGK@@SAXI@Z 00411460 f   AGKWindows:Wrapper.obj
 0001:00010530       ?SetSpritePosition@agk@AGK@@SAXIMM@Z 00411530 f   AGKWindows:Wrapper.obj
 0001:00010610       ?SetSpritePositionByOffset@agk@AGK@@SAXIMM@Z 00411610 f   AGKWindows:Wrapper.obj
 0001:000106f0       ?SetSpriteX@agk@AGK@@SAXIM@Z 004116f0 f   AGKWindows:Wrapper.obj
 0001:000107c0       ?SetSpriteY@agk@AGK@@SAXIM@Z 004117c0 f   AGKWindows:Wrapper.obj
 0001:00010890       ?SetSpriteAngle@agk@AGK@@SAXIM@Z 00411890 f   AGKWindows:Wrapper.obj
 0001:00010960       ?SetSpriteAngleRad@agk@AGK@@SAXIM@Z 00411960 f   AGKWindows:Wrapper.obj
 0001:00010a30       ?SetSpriteDepth@agk@AGK@@SAXIH@Z 00411a30 f   AGKWindows:Wrapper.obj
 0001:00010b00       ?SetSpriteFlip@agk@AGK@@SAXIHH@Z 00411b00 f   AGKWindows:Wrapper.obj
 0001:00010bd0       ?SetSpriteSnap@agk@AGK@@SAXIH@Z 00411bd0 f   AGKWindows:Wrapper.obj
 0001:00010ca0       ?SetSpriteVisible@agk@AGK@@SAXIH@Z 00411ca0 f   AGKWindows:Wrapper.obj
 0001:00010d70       ?SetSpriteActive@agk@AGK@@SAXIH@Z 00411d70 f   AGKWindows:Wrapper.obj
 0001:00010e40       ?GetSpriteX@agk@AGK@@SAMI@Z 00411e40 f   AGKWindows:Wrapper.obj
 0001:00010f10       ?GetSpriteY@agk@AGK@@SAMI@Z 00411f10 f   AGKWindows:Wrapper.obj
 0001:00010fe0       ?GetSpriteXByOffset@agk@AGK@@SAMI@Z 00411fe0 f   AGKWindows:Wrapper.obj
 0001:000110b0       ?GetSpriteYByOffset@agk@AGK@@SAMI@Z 004120b0 f   AGKWindows:Wrapper.obj
 0001:00011180       ?GetSpriteWidth@agk@AGK@@SAMI@Z 00412180 f   AGKWindows:Wrapper.obj
 0001:00011250       ?GetSpriteAngle@agk@AGK@@SAMI@Z 00412250 f   AGKWindows:Wrapper.obj
 0001:00011320       ?GetSpriteAngleRad@agk@AGK@@SAMI@Z 00412320 f   AGKWindows:Wrapper.obj
 0001:000113f0       ?GetSpriteHeight@agk@AGK@@SAMI@Z 004123f0 f   AGKWindows:Wrapper.obj
 0001:000114c0       ?GetSpriteHitTest@agk@AGK@@SAHIMM@Z 004124c0 f   AGKWindows:Wrapper.obj
 0001:000115a0       ?GetSpriteHit@agk@AGK@@SAHMM@Z 004125a0 f   AGKWindows:Wrapper.obj
 0001:000116c0       ?GetSpriteHitGroup@agk@AGK@@SAHHMM@Z 004126c0 f   AGKWindows:Wrapper.obj
 0001:00011810       ?GetSpriteHitCategory@agk@AGK@@SAHIMM@Z 00412810 f   AGKWindows:Wrapper.obj
 0001:00011960       ?GetSpriteDepth@agk@AGK@@SAHI@Z 00412960 f   AGKWindows:Wrapper.obj
 0001:00011a30       ?GetSpriteColorRed@agk@AGK@@SAII@Z 00412a30 f   AGKWindows:Wrapper.obj
 0001:00011b00       ?GetSpriteColorGreen@agk@AGK@@SAII@Z 00412b00 f   AGKWindows:Wrapper.obj
 0001:00011bd0       ?GetSpriteColorBlue@agk@AGK@@SAII@Z 00412bd0 f   AGKWindows:Wrapper.obj
 0001:00011ca0       ?GetSpriteColorAlpha@agk@AGK@@SAII@Z 00412ca0 f   AGKWindows:Wrapper.obj
 0001:00011d70       ?GetSpritePlaying@agk@AGK@@SAHI@Z 00412d70 f   AGKWindows:Wrapper.obj
 0001:00011e40       ?GetSpriteVisible@agk@AGK@@SAHI@Z 00412e40 f   AGKWindows:Wrapper.obj
 0001:00011f10       ?GetSpriteActive@agk@AGK@@SAHI@Z 00412f10 f   AGKWindows:Wrapper.obj
 0001:00011fe0       ?GetSpriteGroup@agk@AGK@@SAHI@Z 00412fe0 f   AGKWindows:Wrapper.obj
 0001:000120b0       ?GetSpriteXFromPixel@agk@AGK@@SAMIH@Z 004130b0 f   AGKWindows:Wrapper.obj
 0001:00012180       ?GetSpriteYFromPixel@agk@AGK@@SAMIH@Z 00413180 f   AGKWindows:Wrapper.obj
 0001:00012250       ?GetSpritePixelFromX@agk@AGK@@SAHIM@Z 00413250 f   AGKWindows:Wrapper.obj
 0001:00012320       ?GetSpritePixelFromY@agk@AGK@@SAHIM@Z 00413320 f   AGKWindows:Wrapper.obj
 0001:000123f0       ?SetSpriteSize@agk@AGK@@SAXIMM@Z 004133f0 f   AGKWindows:Wrapper.obj
 0001:000124d0       ?SetSpriteAnimation@agk@AGK@@SAXIHHH@Z 004134d0 f   AGKWindows:Wrapper.obj
 0001:000125a0       ?AddSpriteAnimationFrame@agk@AGK@@SAXII@Z 004135a0 f   AGKWindows:Wrapper.obj
 0001:000126f0       ?ClearSpriteAnimationFrames@agk@AGK@@SAXI@Z 004136f0 f   AGKWindows:Wrapper.obj
 0001:000127c0       ?SetSpriteSpeed@agk@AGK@@SAXIM@Z 004137c0 f   AGKWindows:Wrapper.obj
 0001:00012890       ?PlaySprite@agk@AGK@@SAXIMHHH@Z 00413890 f   AGKWindows:Wrapper.obj
 0001:00012970       ?StopSprite@agk@AGK@@SAXI@Z 00413970 f   AGKWindows:Wrapper.obj
 0001:00012a40       ?ResumeSprite@agk@AGK@@SAXI@Z 00413a40 f   AGKWindows:Wrapper.obj
 0001:00012b10       ?SetSpriteFrame@agk@AGK@@SAXIH@Z 00413b10 f   AGKWindows:Wrapper.obj
 0001:00012be0       ?GetSpriteCurrentFrame@agk@AGK@@SAHI@Z 00413be0 f   AGKWindows:Wrapper.obj
 0001:00012cb0       ?GetSpriteFrameCount@agk@AGK@@SAHI@Z 00413cb0 f   AGKWindows:Wrapper.obj
 0001:00012d80       ?SetSpriteTransparency@agk@AGK@@SAXIH@Z 00413d80 f   AGKWindows:Wrapper.obj
 0001:00012e50       ?SetSpriteOffset@agk@AGK@@SAXIMM@Z 00413e50 f   AGKWindows:Wrapper.obj
 0001:00012f30       ?SetSpriteColor@agk@AGK@@SAXIHHHH@Z 00413f30 f   AGKWindows:Wrapper.obj
 0001:00013010       ?SetSpriteColorRed@agk@AGK@@SAXIH@Z 00414010 f   AGKWindows:Wrapper.obj
 0001:000130e0       ?SetSpriteColorGreen@agk@AGK@@SAXIH@Z 004140e0 f   AGKWindows:Wrapper.obj
 0001:000131b0       ?SetSpriteColorBlue@agk@AGK@@SAXIH@Z 004141b0 f   AGKWindows:Wrapper.obj
 0001:00013280       ?SetSpriteColorAlpha@agk@AGK@@SAXIH@Z 00414280 f   AGKWindows:Wrapper.obj
 0001:00013350       ?SetSpriteUVBorder@agk@AGK@@SAXIM@Z 00414350 f   AGKWindows:Wrapper.obj
 0001:00013420       ?SetSpriteUVOffset@agk@AGK@@SAXIMM@Z 00414420 f   AGKWindows:Wrapper.obj
 0001:00013500       ?SetSpriteUVScale@agk@AGK@@SAXIMM@Z 00414500 f   AGKWindows:Wrapper.obj
 0001:000135e0       ?FixSpriteToScreen@agk@AGK@@SAXIH@Z 004145e0 f   AGKWindows:Wrapper.obj
 0001:000136b0       ?SetSpriteScale@agk@AGK@@SAXIMM@Z 004146b0 f   AGKWindows:Wrapper.obj
 0001:00013790       ?SetSpriteScaleByOffset@agk@AGK@@SAXIMM@Z 00414790 f   AGKWindows:Wrapper.obj
 0001:00013870       ?SetSpriteScissor@agk@AGK@@SAXIMMMM@Z 00414870 f   AGKWindows:Wrapper.obj
 0001:00013950       ?DrawSprite@agk@AGK@@SAXI@Z 00414950 f   AGKWindows:Wrapper.obj
 0001:00013a20       ?SetPhysicsForcePosition@agk@AGK@@SAXIMM@Z 00414a20 f   AGKWindows:Wrapper.obj
 0001:00013ae0       ?SetPhysicsForcePower@agk@AGK@@SAXIM@Z 00414ae0 f   AGKWindows:Wrapper.obj
 0001:00013ba0       ?SetPhysicsForceRange@agk@AGK@@SAXIM@Z 00414ba0 f   AGKWindows:Wrapper.obj
 0001:00013c60       ?SetSpriteShape@agk@AGK@@SAXIH@Z 00414c60 f   AGKWindows:Wrapper.obj
 0001:00013dd0       ?SetSpriteShapeBox@agk@AGK@@SAXIMMMMM@Z 00414dd0 f   AGKWindows:Wrapper.obj
 0001:00013ec0       ?SetSpriteShapeCircle@agk@AGK@@SAXIMMM@Z 00414ec0 f   AGKWindows:Wrapper.obj
 0001:00013fa0       ?SetSpriteShapePolygon@agk@AGK@@SAXIIIMM@Z 00414fa0 f   AGKWindows:Wrapper.obj
 0001:00014080       ?AddSpriteShapeBox@agk@AGK@@SAXIMMMMM@Z 00415080 f   AGKWindows:Wrapper.obj
 0001:00014170       ?AddSpriteShapeCircle@agk@AGK@@SAXIMMM@Z 00415170 f   AGKWindows:Wrapper.obj
 0001:00014250       ?AddSpriteShapePolygon@agk@AGK@@SAXIIIMM@Z 00415250 f   AGKWindows:Wrapper.obj
 0001:00014330       ?ClearSpriteShapes@agk@AGK@@SAXI@Z 00415330 f   AGKWindows:Wrapper.obj
 0001:00014400       ?SetSpritePhysicsCOM@agk@AGK@@SAXIMM@Z 00415400 f   AGKWindows:Wrapper.obj
 0001:000144e0       ?CalculateSpritePhysicsCOM@agk@AGK@@SAXI@Z 004154e0 f   AGKWindows:Wrapper.obj
 0001:000145b0       ?SetSpritePhysicsOn@agk@AGK@@SAXIH@Z 004155b0 f   AGKWindows:Wrapper.obj
 0001:000146e0       ?SetSpritePhysicsOff@agk@AGK@@SAXI@Z 004156e0 f   AGKWindows:Wrapper.obj
 0001:000147b0       ?SetSpritePhysicsDelete@agk@AGK@@SAXI@Z 004157b0 f   AGKWindows:Wrapper.obj
 0001:00014880       ?SetSpritePhysicsFriction@agk@AGK@@SAXIM@Z 00415880 f   AGKWindows:Wrapper.obj
 0001:000149b0       ?SetSpritePhysicsRestitution@agk@AGK@@SAXIM@Z 004159b0 f   AGKWindows:Wrapper.obj
 0001:00014ae0       ?SetSpritePhysicsCanRotate@agk@AGK@@SAXIH@Z 00415ae0 f   AGKWindows:Wrapper.obj
 0001:00014c10       ?SetSpritePhysicsVelocity@agk@AGK@@SAXIMM@Z 00415c10 f   AGKWindows:Wrapper.obj
 0001:00014d50       ?SetSpritePhysicsAngularVelocity@agk@AGK@@SAXIM@Z 00415d50 f   AGKWindows:Wrapper.obj
 0001:00014e80       ?SetSpritePhysicsDamping@agk@AGK@@SAXIM@Z 00415e80 f   AGKWindows:Wrapper.obj
 0001:00014fb0       ?SetSpritePhysicsAngularDamping@agk@AGK@@SAXIM@Z 00415fb0 f   AGKWindows:Wrapper.obj
 0001:000150e0       ?SetSpritePhysicsIsBullet@agk@AGK@@SAXIH@Z 004160e0 f   AGKWindows:Wrapper.obj
 0001:00015210       ?SetSpritePhysicsMass@agk@AGK@@SAXIM@Z 00416210 f   AGKWindows:Wrapper.obj
 0001:00015340       ?SetSpritePhysicsIsSensor@agk@AGK@@SAXIH@Z 00416340 f   AGKWindows:Wrapper.obj
 0001:00015470       ?SetSpriteGroup@agk@AGK@@SAXIH@Z 00416470 f   AGKWindows:Wrapper.obj
 0001:00015540       ?SetSpriteCategoryBits@agk@AGK@@SAXII@Z 00416540 f   AGKWindows:Wrapper.obj
 0001:00015610       ?SetSpriteCategoryBit@agk@AGK@@SAXIIH@Z 00416610 f   AGKWindows:Wrapper.obj
 0001:000156e0       ?SetSpriteCollideBits@agk@AGK@@SAXII@Z 004166e0 f   AGKWindows:Wrapper.obj
 0001:000157b0       ?SetSpriteCollideBit@agk@AGK@@SAXIIH@Z 004167b0 f   AGKWindows:Wrapper.obj
 0001:00015880       ?SetSpritePhysicsForce@agk@AGK@@SAXIMMMM@Z 00416880 f   AGKWindows:Wrapper.obj
 0001:000159c0       ?SetSpritePhysicsTorque@agk@AGK@@SAXIM@Z 004169c0 f   AGKWindows:Wrapper.obj
 0001:00015af0       ?SetSpritePhysicsImpulse@agk@AGK@@SAXIMMMM@Z 00416af0 f   AGKWindows:Wrapper.obj
 0001:00015c30       ?SetSpritePhysicsAngularImpulse@agk@AGK@@SAXIM@Z 00416c30 f   AGKWindows:Wrapper.obj
 0001:00015d60       ?GetSpritePhysicsVelocityX@agk@AGK@@SAMI@Z 00416d60 f   AGKWindows:Wrapper.obj
 0001:00015e90       ?GetSpritePhysicsVelocityY@agk@AGK@@SAMI@Z 00416e90 f   AGKWindows:Wrapper.obj
 0001:00015fc0       ?GetSpritePhysicsAngularVelocity@agk@AGK@@SAMI@Z 00416fc0 f   AGKWindows:Wrapper.obj
 0001:000160f0       ?GetSpritePhysicsMass@agk@AGK@@SAMI@Z 004170f0 f   AGKWindows:Wrapper.obj
 0001:00016220       ?GetJointExists@agk@AGK@@SAHI@Z 00417220 f   AGKWindows:Wrapper.obj
 0001:00016260       ?SetJointLimitOn@agk@AGK@@SAXIMM@Z 00417260 f   AGKWindows:Wrapper.obj
 0001:000163d0       ?SetJointLimitOff@agk@AGK@@SAXI@Z 004173d0 f   AGKWindows:Wrapper.obj
 0001:000164d0       ?SetJointMotorOn@agk@AGK@@SAXIMM@Z 004174d0 f   AGKWindows:Wrapper.obj
 0001:00016680       ?SetJointMotorOff@agk@AGK@@SAXI@Z 00417680 f   AGKWindows:Wrapper.obj
 0001:000167d0       ?SetJointMouseTarget@agk@AGK@@SAXIMM@Z 004177d0 f   AGKWindows:Wrapper.obj
 0001:000168e0       ?GetJointReactionForceX@agk@AGK@@SAMI@Z 004178e0 f   AGKWindows:Wrapper.obj
 0001:000169d0       ?GetJointReactionForceY@agk@AGK@@SAMI@Z 004179d0 f   AGKWindows:Wrapper.obj
 0001:00016ad0       ?GetJointReactionTorque@agk@AGK@@SAMI@Z 00417ad0 f   AGKWindows:Wrapper.obj
 0001:00016bb0       ?SpriteRayCastSingle@agk@AGK@@SAHPAVcSprite@2@MMMM@Z 00417bb0 f   AGKWindows:Wrapper.obj
 0001:00016f20       ?SpriteRayCast@agk@AGK@@SAHMMMM@Z 00417f20 f   AGKWindows:Wrapper.obj
 0001:000171b0       ?SpriteRayCastGroup@agk@AGK@@SAHHMMMM@Z 004181b0 f   AGKWindows:Wrapper.obj
 0001:00017450       ?SpriteRayCastCategory@agk@AGK@@SAHIMMMM@Z 00418450 f   AGKWindows:Wrapper.obj
 0001:000176f0       ?GetSpriteInBox@agk@AGK@@SAHIMMMM@Z 004186f0 f   AGKWindows:Wrapper.obj
 0001:000177e0       ?GetSpriteInCircle@agk@AGK@@SAHIMMM@Z 004187e0 f   AGKWindows:Wrapper.obj
 0001:000178c0       ?GetSpriteCollision@agk@AGK@@SAHII@Z 004188c0 f   AGKWindows:Wrapper.obj
 0001:00017a20       ?GetSpriteDistance@agk@AGK@@SAMII@Z 00418a20 f   AGKWindows:Wrapper.obj
 0001:00017b70       ?GetSpriteFirstContact@agk@AGK@@SAHI@Z 00418b70 f   AGKWindows:Wrapper.obj
 0001:00017ca0       ?GetPhysicsCollision@agk@AGK@@SAHII@Z 00418ca0 f   AGKWindows:Wrapper.obj
 0001:00017e60       ?GetParticlesExists@agk@AGK@@SAHI@Z 00418e60 f   AGKWindows:Wrapper.obj
 0001:00017eb0       ?SetParticlesPosition@agk@AGK@@SAXIMM@Z 00418eb0 f   AGKWindows:Wrapper.obj
 0001:00017f80       ?SetParticlesDepth@agk@AGK@@SAXIH@Z 00418f80 f   AGKWindows:Wrapper.obj
 0001:00018040       ?SetParticlesFrequency@agk@AGK@@SAXIM@Z 00419040 f   AGKWindows:Wrapper.obj
 0001:00018110       ?SetParticlesStartZone@agk@AGK@@SAXIMMMM@Z 00419110 f   AGKWindows:Wrapper.obj
 0001:000181f0       ?SetParticlesDirection@agk@AGK@@SAXIMM@Z 004191f0 f   AGKWindows:Wrapper.obj
 0001:000182c0       ?SetParticlesVelocityRange@agk@AGK@@SAXIMM@Z 004192c0 f   AGKWindows:Wrapper.obj
 0001:00018390       ?SetParticlesAngle@agk@AGK@@SAXIM@Z 00419390 f   AGKWindows:Wrapper.obj
 0001:00018460       ?SetParticlesAngleRad@agk@AGK@@SAXIM@Z 00419460 f   AGKWindows:Wrapper.obj
 0001:00018530       ?SetParticlesSize@agk@AGK@@SAXIM@Z 00419530 f   AGKWindows:Wrapper.obj
 0001:00018600       ?SetParticlesLife@agk@AGK@@SAXIM@Z 00419600 f   AGKWindows:Wrapper.obj
 0001:000186d0       ?SetParticlesMax@agk@AGK@@SAXIH@Z 004196d0 f   AGKWindows:Wrapper.obj
 0001:00018790       ?ResetParticleCount@agk@AGK@@SAXI@Z 00419790 f   AGKWindows:Wrapper.obj
 0001:00018850       ?SetParticlesImage@agk@AGK@@SAXII@Z 00419850 f   AGKWindows:Wrapper.obj
 0001:00018990       ?SetParticlesVisible@agk@AGK@@SAXIH@Z 00419990 f   AGKWindows:Wrapper.obj
 0001:00018a50       ?SetParticlesActive@agk@AGK@@SAXIH@Z 00419a50 f   AGKWindows:Wrapper.obj
 0001:00018b10       ?SetParticlesColorInterpolation@agk@AGK@@SAXIH@Z 00419b10 f   AGKWindows:Wrapper.obj
 0001:00018bd0       ?GetParticlesX@agk@AGK@@SAMI@Z 00419bd0 f   AGKWindows:Wrapper.obj
 0001:00018c90       ?GetParticlesY@agk@AGK@@SAMI@Z 00419c90 f   AGKWindows:Wrapper.obj
 0001:00018d50       ?GetParticlesDepth@agk@AGK@@SAHI@Z 00419d50 f   AGKWindows:Wrapper.obj
 0001:00018e10       ?GetParticlesVisible@agk@AGK@@SAHI@Z 00419e10 f   AGKWindows:Wrapper.obj
 0001:00018ed0       ?GetParticlesActive@agk@AGK@@SAHI@Z 00419ed0 f   AGKWindows:Wrapper.obj
 0001:00018f90       ?GetParticlesFrequency@agk@AGK@@SAMI@Z 00419f90 f   AGKWindows:Wrapper.obj
 0001:00019050       ?GetParticlesDirectionX@agk@AGK@@SAMI@Z 0041a050 f   AGKWindows:Wrapper.obj
 0001:00019110       ?GetParticlesDirectionY@agk@AGK@@SAMI@Z 0041a110 f   AGKWindows:Wrapper.obj
 0001:000191d0       ?GetParticlesAngle@agk@AGK@@SAMI@Z 0041a1d0 f   AGKWindows:Wrapper.obj
 0001:000192a0       ?GetParticlesAngleRad@agk@AGK@@SAMI@Z 0041a2a0 f   AGKWindows:Wrapper.obj
 0001:00019360       ?GetParticlesSize@agk@AGK@@SAMI@Z 0041a360 f   AGKWindows:Wrapper.obj
 0001:00019420       ?GetParticlesLife@agk@AGK@@SAMI@Z 0041a420 f   AGKWindows:Wrapper.obj
 0001:000194e0       ?GetParticlesMaxReached@agk@AGK@@SAHI@Z 0041a4e0 f   AGKWindows:Wrapper.obj
 0001:000195a0       ?AddParticlesForce@agk@AGK@@SAXIMMMM@Z 0041a5a0 f   AGKWindows:Wrapper.obj
 0001:00019680       ?ClearParticlesForces@agk@AGK@@SAXI@Z 0041a680 f   AGKWindows:Wrapper.obj
 0001:00019740       ?AddParticlesColorKeyFrame@agk@AGK@@SAXIMIIII@Z 0041a740 f   AGKWindows:Wrapper.obj
 0001:00019820       ?ClearParticlesColors@agk@AGK@@SAXI@Z 0041a820 f   AGKWindows:Wrapper.obj
 0001:000198e0       ?FixParticlesToScreen@agk@AGK@@SAXIH@Z 0041a8e0 f   AGKWindows:Wrapper.obj
 0001:000199b0       ?UpdateParticles@agk@AGK@@SAXIM@Z 0041a9b0 f   AGKWindows:Wrapper.obj
 0001:00019a80       ?GetTextExists@agk@AGK@@SAII@Z 0041aa80 f   AGKWindows:Wrapper.obj
 0001:00019ac0       ?SetTextString@agk@AGK@@SAXIPBD@Z 0041aac0 f   AGKWindows:Wrapper.obj
 0001:00019b90       ?SetTextPosition@agk@AGK@@SAXIMM@Z 0041ab90 f   AGKWindows:Wrapper.obj
 0001:00019c70       ?SetTextX@agk@AGK@@SAXIM@Z 0041ac70 f   AGKWindows:Wrapper.obj
 0001:00019d40       ?SetTextY@agk@AGK@@SAXIM@Z 0041ad40 f   AGKWindows:Wrapper.obj
 0001:00019e10       ?SetTextAlignment@agk@AGK@@SAXIH@Z 0041ae10 f   AGKWindows:Wrapper.obj
 0001:00019ee0       ?SetTextSize@agk@AGK@@SAXIM@Z 0041aee0 f   AGKWindows:Wrapper.obj
 0001:00019fb0       ?SetTextSpacing@agk@AGK@@SAXIM@Z 0041afb0 f   AGKWindows:Wrapper.obj
 0001:0001a080       ?SetTextLineSpacing@agk@AGK@@SAXIM@Z 0041b080 f   AGKWindows:Wrapper.obj
 0001:0001a150       ?SetTextDepth@agk@AGK@@SAXIH@Z 0041b150 f   AGKWindows:Wrapper.obj
 0001:0001a220       ?SetTextVisible@agk@AGK@@SAXIH@Z 0041b220 f   AGKWindows:Wrapper.obj
 0001:0001a2f0       ?SetTextColor@agk@AGK@@SAXIIIII@Z 0041b2f0 f   AGKWindows:Wrapper.obj
 0001:0001a3d0       ?SetTextColorRed@agk@AGK@@SAXII@Z 0041b3d0 f   AGKWindows:Wrapper.obj
 0001:0001a4a0       ?SetTextColorGreen@agk@AGK@@SAXII@Z 0041b4a0 f   AGKWindows:Wrapper.obj
 0001:0001a570       ?SetTextColorBlue@agk@AGK@@SAXII@Z 0041b570 f   AGKWindows:Wrapper.obj
 0001:0001a640       ?SetTextColorAlpha@agk@AGK@@SAXII@Z 0041b640 f   AGKWindows:Wrapper.obj
 0001:0001a710       ?GetTextColorRed@agk@AGK@@SAII@Z 0041b710 f   AGKWindows:Wrapper.obj
 0001:0001a7d0       ?GetTextColorGreen@agk@AGK@@SAII@Z 0041b7d0 f   AGKWindows:Wrapper.obj
 0001:0001a890       ?GetTextColorBlue@agk@AGK@@SAII@Z 0041b890 f   AGKWindows:Wrapper.obj
 0001:0001a950       ?GetTextColorAlpha@agk@AGK@@SAII@Z 0041b950 f   AGKWindows:Wrapper.obj
 0001:0001aa10       ?SetTextCharPosition@agk@AGK@@SAXIIMM@Z 0041ba10 f   AGKWindows:Wrapper.obj
 0001:0001aaf0       ?SetTextCharX@agk@AGK@@SAXIIM@Z 0041baf0 f   AGKWindows:Wrapper.obj
 0001:0001abc0       ?SetTextCharY@agk@AGK@@SAXIIM@Z 0041bbc0 f   AGKWindows:Wrapper.obj
 0001:0001ac90       ?SetTextCharAngle@agk@AGK@@SAXIIM@Z 0041bc90 f   AGKWindows:Wrapper.obj
 0001:0001ad60       ?SetTextCharAngleRad@agk@AGK@@SAXIIM@Z 0041bd60 f   AGKWindows:Wrapper.obj
 0001:0001ae30       ?SetTextCharColor@agk@AGK@@SAXIIIIII@Z 0041be30 f   AGKWindows:Wrapper.obj
 0001:0001af10       ?SetTextCharColorRed@agk@AGK@@SAXIII@Z 0041bf10 f   AGKWindows:Wrapper.obj
 0001:0001afe0       ?SetTextCharColorGreen@agk@AGK@@SAXIII@Z 0041bfe0 f   AGKWindows:Wrapper.obj
 0001:0001b0b0       ?SetTextCharColorBlue@agk@AGK@@SAXIII@Z 0041c0b0 f   AGKWindows:Wrapper.obj
 0001:0001b180       ?SetTextCharColorAlpha@agk@AGK@@SAXIII@Z 0041c180 f   AGKWindows:Wrapper.obj
 0001:0001b250       ?GetTextCharX@agk@AGK@@SAMII@Z 0041c250 f   AGKWindows:Wrapper.obj
 0001:0001b320       ?GetTextCharY@agk@AGK@@SAMII@Z 0041c320 f   AGKWindows:Wrapper.obj
 0001:0001b3f0       ?GetTextCharAngle@agk@AGK@@SAMII@Z 0041c3f0 f   AGKWindows:Wrapper.obj
 0001:0001b4c0       ?GetTextCharAngleRad@agk@AGK@@SAMII@Z 0041c4c0 f   AGKWindows:Wrapper.obj
 0001:0001b590       ?GetTextCharColorRed@agk@AGK@@SAIII@Z 0041c590 f   AGKWindows:Wrapper.obj
 0001:0001b660       ?GetTextCharColorGreen@agk@AGK@@SAIII@Z 0041c660 f   AGKWindows:Wrapper.obj
 0001:0001b730       ?GetTextCharColorBlue@agk@AGK@@SAIII@Z 0041c730 f   AGKWindows:Wrapper.obj
 0001:0001b800       ?GetTextCharColorAlpha@agk@AGK@@SAIII@Z 0041c800 f   AGKWindows:Wrapper.obj
 0001:0001b8d0       ?GetTextX@agk@AGK@@SAMI@Z  0041c8d0 f   AGKWindows:Wrapper.obj
 0001:0001b9a0       ?GetTextY@agk@AGK@@SAMI@Z  0041c9a0 f   AGKWindows:Wrapper.obj
 0001:0001ba70       ?GetTextLength@agk@AGK@@SAII@Z 0041ca70 f   AGKWindows:Wrapper.obj
 0001:0001bb40       ?GetTextTotalWidth@agk@AGK@@SAMI@Z 0041cb40 f   AGKWindows:Wrapper.obj
 0001:0001bc00       ?GetTextTotalHeight@agk@AGK@@SAMI@Z 0041cc00 f   AGKWindows:Wrapper.obj
 0001:0001bcc0       ?GetTextHitTest@agk@AGK@@SAHIMM@Z 0041ccc0 f   AGKWindows:Wrapper.obj
 0001:0001bda0       ?SetTextFontImage@agk@AGK@@SAXII@Z 0041cda0 f   AGKWindows:Wrapper.obj
 0001:0001bf00       ?SetTextExtendedFontImage@agk@AGK@@SAXII@Z 0041cf00 f   AGKWindows:Wrapper.obj
 0001:0001c060       ?SetTextDefaultFontImage@agk@AGK@@SAXI@Z 0041d060 f   AGKWindows:Wrapper.obj
 0001:0001c130       ?SetTextDefaultExtendedFontImage@agk@AGK@@SAXI@Z 0041d130 f   AGKWindows:Wrapper.obj
 0001:0001c200       ?FixTextToScreen@agk@AGK@@SAXIH@Z 0041d200 f   AGKWindows:Wrapper.obj
 0001:0001c2d0       ?SetTextMaxWidth@agk@AGK@@SAXIM@Z 0041d2d0 f   AGKWindows:Wrapper.obj
 0001:0001c3a0       ?SetTextScissor@agk@AGK@@SAXIMMMM@Z 0041d3a0 f   AGKWindows:Wrapper.obj
 0001:0001c480       ?GetTextVisible@agk@AGK@@SAHI@Z 0041d480 f   AGKWindows:Wrapper.obj
 0001:0001c550       ?GetTextDepth@agk@AGK@@SAHI@Z 0041d550 f   AGKWindows:Wrapper.obj
 0001:0001c610       ?GetTextSize@agk@AGK@@SAMI@Z 0041d610 f   AGKWindows:Wrapper.obj
 0001:0001c6d0       ?GetTextSpacing@agk@AGK@@SAMI@Z 0041d6d0 f   AGKWindows:Wrapper.obj
 0001:0001c790       ?GetTextLineSpacing@agk@AGK@@SAMI@Z 0041d790 f   AGKWindows:Wrapper.obj
 0001:0001c850       ?GetTextString@agk@AGK@@SAPADI@Z 0041d850 f   AGKWindows:Wrapper.obj
 0001:0001c970       ?FileIsOpen@agk@AGK@@SAHI@Z 0041d970 f   AGKWindows:Wrapper.obj
 0001:0001ca30       ?FileEOF@agk@AGK@@SAHI@Z   0041da30 f   AGKWindows:Wrapper.obj
 0001:0001cb00       ?GetFileSize@agk@AGK@@SAHI@Z 0041db00 f   AGKWindows:Wrapper.obj
 0001:0001cbc0       ?WriteInteger@agk@AGK@@SAXIH@Z 0041dbc0 f   AGKWindows:Wrapper.obj
 0001:0001cc80       ?WriteFloat@agk@AGK@@SAXIM@Z 0041dc80 f   AGKWindows:Wrapper.obj
 0001:0001cd40       ?WriteString@agk@AGK@@SAXIPBD@Z 0041dd40 f   AGKWindows:Wrapper.obj
 0001:0001ce40       ?WriteLine@agk@AGK@@SAXIPBD@Z 0041de40 f   AGKWindows:Wrapper.obj
 0001:0001cf40       ?ReadInteger@agk@AGK@@SAHI@Z 0041df40 f   AGKWindows:Wrapper.obj
 0001:0001d000       ?ReadFloat@agk@AGK@@SAMI@Z 0041e000 f   AGKWindows:Wrapper.obj
 0001:0001d0c0       ?ReadString@agk@AGK@@SAPADI@Z 0041e0c0 f   AGKWindows:Wrapper.obj
 0001:0001d1f0       ?ReadLine@agk@AGK@@SAPADI@Z 0041e1f0 f   AGKWindows:Wrapper.obj
 0001:0001d320       ?Mid@agk@AGK@@SAPADPBDIH@Z 0041e320 f   AGKWindows:Wrapper.obj
 0001:0001d420       ?SetNetworkNoMoreClients@agk@AGK@@SAXI@Z 0041e420 f   AGKWindows:Wrapper.obj
 0001:0001d4e0       ?IsNetworkActive@agk@AGK@@SAII@Z 0041e4e0 f   AGKWindows:Wrapper.obj
 0001:0001d5a0       ?SetNetworkLatency@agk@AGK@@SAXII@Z 0041e5a0 f   AGKWindows:Wrapper.obj
 0001:0001d660       ?GetNetworkMyClientID@agk@AGK@@SAII@Z 0041e660 f   AGKWindows:Wrapper.obj
 0001:0001d720       ?GetNetworkNumClients@agk@AGK@@SAII@Z 0041e720 f   AGKWindows:Wrapper.obj
 0001:0001d7e0       ?GetNetworkFirstClient@agk@AGK@@SAII@Z 0041e7e0 f   AGKWindows:Wrapper.obj
 0001:0001d8a0       ?GetNetworkNextClient@agk@AGK@@SAII@Z 0041e8a0 f   AGKWindows:Wrapper.obj
 0001:0001d960       ?GetNetworkClientDisconnected@agk@AGK@@SAIII@Z 0041e960 f   AGKWindows:Wrapper.obj
 0001:0001da20       ?DeleteNetworkClient@agk@AGK@@SAXII@Z 0041ea20 f   AGKWindows:Wrapper.obj
 0001:0001dae0       ?GetNetworkClientName@agk@AGK@@SAPADII@Z 0041eae0 f   AGKWindows:Wrapper.obj
 0001:0001dc00       ?GetNetworkClientPing@agk@AGK@@SAMII@Z 0041ec00 f   AGKWindows:Wrapper.obj
 0001:0001dcc0       ?GetNetworkServerID@agk@AGK@@SAII@Z 0041ecc0 f   AGKWindows:Wrapper.obj
 0001:0001dd80       ?SetNetworkLocalInteger@agk@AGK@@SAXIPBDHH@Z 0041ed80 f   AGKWindows:Wrapper.obj
 0001:0001de40       ?SetNetworkLocalFloat@agk@AGK@@SAXIPBDMH@Z 0041ee40 f   AGKWindows:Wrapper.obj
 0001:0001df10       ?GetNetworkClientInteger@agk@AGK@@SAHIIPBD@Z 0041ef10 f   AGKWindows:Wrapper.obj
 0001:0001dfd0       ?GetNetworkClientFloat@agk@AGK@@SAMIIPBD@Z 0041efd0 f   AGKWindows:Wrapper.obj
 0001:0001e090       ?AddNetworkMessageInteger@agk@AGK@@SAXIH@Z 0041f090 f   AGKWindows:Wrapper.obj
 0001:0001e150       ?AddNetworkMessageFloat@agk@AGK@@SAXIM@Z 0041f150 f   AGKWindows:Wrapper.obj
 0001:0001e210       ?AddNetworkMessageString@agk@AGK@@SAXIPBD@Z 0041f210 f   AGKWindows:Wrapper.obj
 0001:0001e2e0       ?GetNetworkMessageFromIP@agk@AGK@@SAPADI@Z 0041f2e0 f   AGKWindows:Wrapper.obj
 0001:0001e3e0       ?GetNetworkMessageFromClient@agk@AGK@@SAII@Z 0041f3e0 f   AGKWindows:Wrapper.obj
 0001:0001e4a0       ?GetNetworkMessageInteger@agk@AGK@@SAHI@Z 0041f4a0 f   AGKWindows:Wrapper.obj
 0001:0001e560       ?GetNetworkMessageFloat@agk@AGK@@SAMI@Z 0041f560 f   AGKWindows:Wrapper.obj
 0001:0001e620       ?GetNetworkMessageString@agk@AGK@@SAPADI@Z 0041f620 f   AGKWindows:Wrapper.obj
 0001:0001e740       ?SetNetworkClientUserData@agk@AGK@@SAXIIIH@Z 0041f740 f   AGKWindows:Wrapper.obj
 0001:0001e800       ?GetNetworkClientUserData@agk@AGK@@SAHIII@Z 0041f800 f   AGKWindows:Wrapper.obj
 0001:0001e8c0       ?SetHTTPHost@agk@AGK@@SAIIPBDH00@Z 0041f8c0 f   AGKWindows:Wrapper.obj
 0001:0001e9f0       ?CloseHTTPConnection@agk@AGK@@SAXI@Z 0041f9f0 f   AGKWindows:Wrapper.obj
 0001:0001eab0       ?SendHTTPRequest@agk@AGK@@SAPADIPBD0@Z 0041fab0 f   AGKWindows:Wrapper.obj
 0001:0001eb70       ?SendHTTPRequestASync@agk@AGK@@SAHIPBD0@Z 0041fb70 f   AGKWindows:Wrapper.obj
 0001:0001ec40       ?SendHTTPFile@agk@AGK@@SAHIPBD00@Z 0041fc40 f   AGKWindows:Wrapper.obj
 0001:0001ed10       ?GetHTTPResponseReady@agk@AGK@@SAHI@Z 0041fd10 f   AGKWindows:Wrapper.obj
 0001:0001edd0       ?GetHTTPResponseC@agk@AGK@@SAPBDI@Z 0041fdd0 f   AGKWindows:Wrapper.obj
 0001:0001ee90       ?GetHTTPFile@agk@AGK@@SAHIPBD00@Z 0041fe90 f   AGKWindows:Wrapper.obj
 0001:0001ef60       ?GetHTTPFileComplete@agk@AGK@@SAHI@Z 0041ff60 f   AGKWindows:Wrapper.obj
 0001:0001f020       ?GetHTTPFileProgress@agk@AGK@@SAMI@Z 00420020 f   AGKWindows:Wrapper.obj
 0001:0001f0e0       ?FixOrientationByDefault@agk@AGK@@SAXXZ 004200e0 f   AGKWindows:Wrapper.obj
 0001:0001f370       ?GetRawAccelX@agk@AGK@@SAMXZ 00420370 f   AGKWindows:Wrapper.obj
 0001:0001f3c0       ?GetRawAccelY@agk@AGK@@SAMXZ 004203c0 f   AGKWindows:Wrapper.obj
 0001:0001f410       ?GetRawAccelZ@agk@AGK@@SAMXZ 00420410 f   AGKWindows:Wrapper.obj
 0001:0001f420       ?SetVirtualJoystickImageInner@agk@AGK@@SAXII@Z 00420420 f   AGKWindows:Wrapper.obj
 0001:0001f570       ?SetVirtualJoystickImageOuter@agk@AGK@@SAXII@Z 00420570 f   AGKWindows:Wrapper.obj
 0001:0001f6c0       ?SetVirtualButtonImageUp@agk@AGK@@SAXII@Z 004206c0 f   AGKWindows:Wrapper.obj
 0001:0001f810       ?SetVirtualButtonImageDown@agk@AGK@@SAXII@Z 00420810 f   AGKWindows:Wrapper.obj
 0001:0001f960       ?GetDirectionX@agk@AGK@@SAMXZ 00420960 f   AGKWindows:Wrapper.obj
 0001:0001f9d0       ?GetDirectionY@agk@AGK@@SAMXZ 004209d0 f   AGKWindows:Wrapper.obj
 0001:0001fa40       ?GetDirectionAngle@agk@AGK@@SAMXZ 00420a40 f   AGKWindows:Wrapper.obj
 0001:0001fb70       ?GetDirectionSpeed@agk@AGK@@SAMXZ 00420b70 f   AGKWindows:Wrapper.obj
 0001:0001fcb0       ?GetEditBoxExists@agk@AGK@@SAHI@Z 00420cb0 f   AGKWindows:Wrapper.obj
 0001:0001fd00       ?GetEditBoxHasFocus@agk@AGK@@SAHI@Z 00420d00 f   AGKWindows:Wrapper.obj
 0001:0001fdd0       ?GetCurrentEditBox@agk@AGK@@SAIXZ 00420dd0 f   AGKWindows:Wrapper.obj
 0001:0001fe80       ?SetEditBoxPosition@agk@AGK@@SAXIMM@Z 00420e80 f   AGKWindows:Wrapper.obj
 0001:0001ff60       ?SetEditBoxSize@agk@AGK@@SAXIMM@Z 00420f60 f   AGKWindows:Wrapper.obj
 0001:00020040       ?SetEditBoxDepth@agk@AGK@@SAXIH@Z 00421040 f   AGKWindows:Wrapper.obj
 0001:00020110       ?SetEditBoxBorderSize@agk@AGK@@SAXIM@Z 00421110 f   AGKWindows:Wrapper.obj
 0001:000201e0       ?SetEditBoxBorderColor@agk@AGK@@SAXIIIII@Z 004211e0 f   AGKWindows:Wrapper.obj
 0001:000202c0       ?SetEditBoxBackgroundColor@agk@AGK@@SAXIIIII@Z 004212c0 f   AGKWindows:Wrapper.obj
 0001:000203a0       ?SetEditBoxText@agk@AGK@@SAXIPBD@Z 004213a0 f   AGKWindows:Wrapper.obj
 0001:00020470       ?SetEditBoxTextColor@agk@AGK@@SAXIIII@Z 00421470 f   AGKWindows:Wrapper.obj
 0001:00020540       ?SetEditBoxCursorColor@agk@AGK@@SAXIIII@Z 00421540 f   AGKWindows:Wrapper.obj
 0001:00020610       ?SetEditBoxFontImage@agk@AGK@@SAXII@Z 00421610 f   AGKWindows:Wrapper.obj
 0001:00020710       ?SetEditBoxTextSize@agk@AGK@@SAXIM@Z 00421710 f   AGKWindows:Wrapper.obj
 0001:000207e0       ?SetEditBoxFocus@agk@AGK@@SAXIH@Z 004217e0 f   AGKWindows:Wrapper.obj
 0001:000208b0       ?SetEditBoxActive@agk@AGK@@SAXIH@Z 004218b0 f   AGKWindows:Wrapper.obj
 0001:00020980       ?SetEditBoxVisible@agk@AGK@@SAXIH@Z 00421980 f   AGKWindows:Wrapper.obj
 0001:00020a50       ?SetEditBoxBorderImage@agk@AGK@@SAXII@Z 00421a50 f   AGKWindows:Wrapper.obj
 0001:00020b50       ?SetEditBoxBackgroundImage@agk@AGK@@SAXII@Z 00421b50 f   AGKWindows:Wrapper.obj
 0001:00020c50       ?SetEditBoxCursorBlinkTime@agk@AGK@@SAXIM@Z 00421c50 f   AGKWindows:Wrapper.obj
 0001:00020d20       ?SetEditBoxCursorWidth@agk@AGK@@SAXIM@Z 00421d20 f   AGKWindows:Wrapper.obj
 0001:00020df0       ?SetEditBoxMaxChars@agk@AGK@@SAXII@Z 00421df0 f   AGKWindows:Wrapper.obj
 0001:00020ec0       ?SetEditBoxMaxLines@agk@AGK@@SAXII@Z 00421ec0 f   AGKWindows:Wrapper.obj
 0001:00020f90       ?SetEditBoxMultiLine@agk@AGK@@SAXIH@Z 00421f90 f   AGKWindows:Wrapper.obj
 0001:00021060       ?SetEditBoxScissor@agk@AGK@@SAXIMMMM@Z 00422060 f   AGKWindows:Wrapper.obj
 0001:00021140       ?FixEditBoxToScreen@agk@AGK@@SAXIH@Z 00422140 f   AGKWindows:Wrapper.obj
 0001:00021210       ?GetEditBoxText@agk@AGK@@SAPADI@Z 00422210 f   AGKWindows:Wrapper.obj
 0001:000212e0       ?GetEditBoxX@agk@AGK@@SAMI@Z 004222e0 f   AGKWindows:Wrapper.obj
 0001:000213a0       ?GetEditBoxY@agk@AGK@@SAMI@Z 004223a0 f   AGKWindows:Wrapper.obj
 0001:00021460       ?GetEditBoxWidth@agk@AGK@@SAMI@Z 00422460 f   AGKWindows:Wrapper.obj
 0001:00021520       ?GetEditBoxHeight@agk@AGK@@SAMI@Z 00422520 f   AGKWindows:Wrapper.obj
 0001:000215e0       ?GetEditBoxChanged@agk@AGK@@SAHI@Z 004225e0 f   AGKWindows:Wrapper.obj
 0001:000216d0       ?GetEditBoxActive@agk@AGK@@SAHI@Z 004226d0 f   AGKWindows:Wrapper.obj
 0001:000217a0       ?GetEditBoxVisible@agk@AGK@@SAHI@Z 004227a0 f   AGKWindows:Wrapper.obj
 0001:00021870       ?GetEditBoxLines@agk@AGK@@SAHI@Z 00422870 f   AGKWindows:Wrapper.obj
 0001:00021940       ?AddZipEntry@agk@AGK@@SAXIPBD0@Z 00422940 f   AGKWindows:Wrapper.obj
 0001:00021a10       ?AddNewFile@cFileEntry@AGK@@SAXPBD@Z 00422a10 f   AGKWindows:Wrapper.obj
 0001:00021b20       ?ClearAll@cFileEntry@AGK@@SAXXZ 00422b20 f   AGKWindows:Wrapper.obj
 0001:00021c50       ?MasterReset@agk@AGK@@SAXXZ 00422c50 f   AGKWindows:Wrapper.obj
 0001:00022c90       ?Sync@agk@AGK@@SAXXZ       00423c90 f   AGKWindows:Wrapper.obj
 0001:00022cb0       ?LoadImage@agk@AGK@@SAXIPBDH@Z 00423cb0 f   AGKWindows:Wrapper.obj
 0001:00022e80       ?LoadImage@agk@AGK@@SAXIPBD@Z 00423e80 f   AGKWindows:Wrapper.obj
 0001:00022ea0       ?LoadImage@agk@AGK@@SAIPBDH@Z 00423ea0 f   AGKWindows:Wrapper.obj
 0001:00022fc0       ?LoadImage@agk@AGK@@SAIPBD@Z 00423fc0 f   AGKWindows:Wrapper.obj
 0001:00022fe0       ?LoadSubImage@agk@AGK@@SAXIIPBD@Z 00423fe0 f   AGKWindows:Wrapper.obj
 0001:00023220       ?LoadSubImage@agk@AGK@@SAIIPBD@Z 00424220 f   AGKWindows:Wrapper.obj
 0001:000232f0       ?DeleteImage@agk@AGK@@SAXI@Z 004242f0 f   AGKWindows:Wrapper.obj
 0001:00023320       ?GetImage@agk@AGK@@SAXIMMMM@Z 00424320 f   AGKWindows:Wrapper.obj
 0001:000235a0       ?CopyImage@agk@AGK@@SAXIIHHHH@Z 004245a0 f   AGKWindows:Wrapper.obj
 0001:000237e0       ?GetChosenImage@agk@AGK@@SAIXZ 004247e0 f   AGKWindows:Wrapper.obj
 0001:000238a0       ?CaptureImage@agk@AGK@@SAXXZ 004248a0 f   AGKWindows:Wrapper.obj
 0001:000239e0       ?CaptureInternal@agk@AGK@@SAXH@Z 004249e0 f   AGKWindows:Wrapper.obj
 0001:00023a30       ?EncodeQRCode@agk@AGK@@SAIPBDH@Z 00424a30 f   AGKWindows:Wrapper.obj
 0001:00023b40       ?CreateSprite@agk@AGK@@SAXII@Z 00424b40 f   AGKWindows:Wrapper.obj
 0001:00023d30       ?CreateSprite@agk@AGK@@SAII@Z 00424d30 f   AGKWindows:Wrapper.obj
 0001:00023ea0       ?CreateSprite@agk@AGK@@SAIPBD@Z 00424ea0 f   AGKWindows:Wrapper.obj
 0001:00023fb0       ?CreateSprite@agk@AGK@@SAXIPBD@Z 00424fb0 f   AGKWindows:Wrapper.obj
 0001:00024110       ?CloneSprite@agk@AGK@@SAXII@Z 00425110 f   AGKWindows:Wrapper.obj
 0001:00024290       ?CloneSprite@agk@AGK@@SAII@Z 00425290 f   AGKWindows:Wrapper.obj
 0001:000243b0       ?CreateDummySprite@agk@AGK@@SAXI@Z 004253b0 f   AGKWindows:Wrapper.obj
 0001:00024500       ?CreateDummySprite@agk@AGK@@SAIXZ 00425500 f   AGKWindows:Wrapper.obj
 0001:000245d0       ?DeleteSprite@agk@AGK@@SAXI@Z 004255d0 f   AGKWindows:Wrapper.obj
 0001:00024610       ?SetSpriteImage@agk@AGK@@SAXII@Z 00425610 f   AGKWindows:Wrapper.obj
 0001:00024630       ?PlaySprite@agk@AGK@@SAXI@Z 00425630 f   AGKWindows:Wrapper.obj
 0001:00024660       ?PlaySprite@agk@AGK@@SAXIM@Z 00425660 f   AGKWindows:Wrapper.obj
 0001:00024680       ?PlaySprite@agk@AGK@@SAXIMH@Z 00425680 f   AGKWindows:Wrapper.obj
 0001:000246a0       ?CreatePhysicsForce@agk@AGK@@SAIMMMMMH@Z 004256a0 f   AGKWindows:Wrapper.obj
 0001:00024790       ?DeletePhysicsForce@agk@AGK@@SAXI@Z 00425790 f   AGKWindows:Wrapper.obj
 0001:000247c0       ?ClearJoint@agk@AGK@@SAXPAVb2Joint@@@Z 004257c0 f   AGKWindows:Wrapper.obj
 0001:000247e0       ?DeleteJoint@agk@AGK@@SAXI@Z 004257e0 f   AGKWindows:Wrapper.obj
 0001:00024810       ?CreateDistanceJoint@agk@AGK@@SAXIPAVcSprite@2@0MMMMH@Z 00425810 f   AGKWindows:Wrapper.obj
 0001:000249c0       ?CreateRevoluteJoint@agk@AGK@@SAXIPAVcSprite@2@0MMH@Z 004259c0 f   AGKWindows:Wrapper.obj
 0001:00024b50       ?CreatePrismaticJoint@agk@AGK@@SAXIPAVcSprite@2@0MMMMH@Z 00425b50 f   AGKWindows:Wrapper.obj
 0001:00024d00       ?CreatePulleyJoint@agk@AGK@@SAXIPAVcSprite@2@0MMMMMMMMMH@Z 00425d00 f   AGKWindows:Wrapper.obj
 0001:00024ee0       ?CreateMouseJoint@agk@AGK@@SAXIPAVcSprite@2@MMM@Z 00425ee0 f   AGKWindows:Wrapper.obj
 0001:00025050       ?CreateLineJoint@agk@AGK@@SAXIPAVcSprite@2@0MMMMH@Z 00426050 f   AGKWindows:Wrapper.obj
 0001:00025200       ?CreateWeldJoint@agk@AGK@@SAXIPAVcSprite@2@0MMH@Z 00426200 f   AGKWindows:Wrapper.obj
 0001:00025390       ?CreateDistanceJoint@agk@AGK@@SAIPAVcSprite@2@0MMMMH@Z 00426390 f   AGKWindows:Wrapper.obj
 0001:000254e0       ?CreateRevoluteJoint@agk@AGK@@SAIPAVcSprite@2@0MMH@Z 004264e0 f   AGKWindows:Wrapper.obj
 0001:00025610       ?CreatePrismaticJoint@agk@AGK@@SAIPAVcSprite@2@0MMMMH@Z 00426610 f   AGKWindows:Wrapper.obj
 0001:00025760       ?CreatePulleyJoint@agk@AGK@@SAIPAVcSprite@2@0MMMMMMMMMH@Z 00426760 f   AGKWindows:Wrapper.obj
 0001:000258e0       ?CreateMouseJoint@agk@AGK@@SAIPAVcSprite@2@MMM@Z 004268e0 f   AGKWindows:Wrapper.obj
 0001:000259f0       ?CreateLineJoint@agk@AGK@@SAIPAVcSprite@2@0MMMMH@Z 004269f0 f   AGKWindows:Wrapper.obj
 0001:00025b40       ?CreateWeldJoint@agk@AGK@@SAIPAVcSprite@2@0MMH@Z 00426b40 f   AGKWindows:Wrapper.obj
 0001:00025c80       ?CreateDistanceJoint@agk@AGK@@SAXIIIMMMMH@Z 00426c80 f   AGKWindows:Wrapper.obj
 0001:00025df0       ?CreateRevoluteJoint@agk@AGK@@SAXIIIMMH@Z 00426df0 f   AGKWindows:Wrapper.obj
 0001:00025f50       ?CreatePrismaticJoint@agk@AGK@@SAXIIIMMMMH@Z 00426f50 f   AGKWindows:Wrapper.obj
 0001:000260c0       ?CreatePulleyJoint@agk@AGK@@SAXIIIMMMMMMMMMH@Z 004270c0 f   AGKWindows:Wrapper.obj
 0001:00026250       ?CreateMouseJoint@agk@AGK@@SAXIIMMM@Z 00427250 f   AGKWindows:Wrapper.obj
 0001:00026330       ?CreateLineJoint@agk@AGK@@SAXIIIMMMMH@Z 00427330 f   AGKWindows:Wrapper.obj
 0001:000264a0       ?CreateWeldJoint@agk@AGK@@SAXIIIMMH@Z 004274a0 f   AGKWindows:Wrapper.obj
 0001:00026600       ?CreateGearJoint@agk@AGK@@SAXIIIM@Z 00427600 f   AGKWindows:Wrapper.obj
 0001:00026840       ?CreateDistanceJoint@agk@AGK@@SAIIIMMMMH@Z 00427840 f   AGKWindows:Wrapper.obj
 0001:000269b0       ?CreateRevoluteJoint@agk@AGK@@SAIIIMMH@Z 004279b0 f   AGKWindows:Wrapper.obj
 0001:00026b10       ?CreatePrismaticJoint@agk@AGK@@SAIIIMMMMH@Z 00427b10 f   AGKWindows:Wrapper.obj
 0001:00026c80       ?CreatePulleyJoint@agk@AGK@@SAIIIMMMMMMMMMH@Z 00427c80 f   AGKWindows:Wrapper.obj
 0001:00026e10       ?FinishPulleyJoint@agk@AGK@@SAIMMMMMMMM@Z 00427e10 f   AGKWindows:Wrapper.obj
 0001:00026ff0       ?CreateMouseJoint@agk@AGK@@SAIIMMM@Z 00427ff0 f   AGKWindows:Wrapper.obj
 0001:000270d0       ?CreateLineJoint@agk@AGK@@SAIIIMMMMH@Z 004280d0 f   AGKWindows:Wrapper.obj
 0001:00027240       ?CreateWeldJoint@agk@AGK@@SAIIIMMH@Z 00428240 f   AGKWindows:Wrapper.obj
 0001:000273a0       ?CreateGearJoint@agk@AGK@@SAIIIM@Z 004283a0 f   AGKWindows:Wrapper.obj
 0001:00027580       ?SpriteRayCastSingle@agk@AGK@@SAHIMMMM@Z 00428580 f   AGKWindows:Wrapper.obj
 0001:00027670       ?CreateParticles@agk@AGK@@SAXIMM@Z 00428670 f   AGKWindows:Wrapper.obj
 0001:000277d0       ?CreateParticles@agk@AGK@@SAIMM@Z 004287d0 f   AGKWindows:Wrapper.obj
 0001:000278d0       ?DeleteParticles@agk@AGK@@SAXI@Z 004288d0 f   AGKWindows:Wrapper.obj
 0001:00027900       ?CreateText@agk@AGK@@SAXIPBD@Z 00428900 f   AGKWindows:Wrapper.obj
 0001:00027a30       ?CreateText@agk@AGK@@SAIPBD@Z 00428a30 f   AGKWindows:Wrapper.obj
 0001:00027ae0       ?DeleteText@agk@AGK@@SAXI@Z 00428ae0 f   AGKWindows:Wrapper.obj
 0001:00027b10       ?OpenToWrite@agk@AGK@@SAIPBDH@Z 00428b10 f   AGKWindows:Wrapper.obj
 0001:00027c20       ?OpenToWrite@agk@AGK@@SAXIPBDH@Z 00428c20 f   AGKWindows:Wrapper.obj
 0001:00027d90       ?OpenToWrite@agk@AGK@@SAXIPBD@Z 00428d90 f   AGKWindows:Wrapper.obj
 0001:00027db0       ?OpenToWrite@agk@AGK@@SAIPBD@Z 00428db0 f   AGKWindows:Wrapper.obj
 0001:00027dd0       ?OpenToRead@agk@AGK@@SAIPBD@Z 00428dd0 f   AGKWindows:Wrapper.obj
 0001:00027ed0       ?OpenToRead@agk@AGK@@SAXIPBD@Z 00428ed0 f   AGKWindows:Wrapper.obj
 0001:00028030       ?CloseFile@agk@AGK@@SAXI@Z 00429030 f   AGKWindows:Wrapper.obj
 0001:00028110       ?CreateBroadcastListener@agk@AGK@@SAII@Z 00429110 f   AGKWindows:Wrapper.obj
 0001:000281f0       ?GetBroadcastMessage@agk@AGK@@SAII@Z 004291f0 f   AGKWindows:Wrapper.obj
 0001:00028340       ?DeleteBroadcastListener@agk@AGK@@SAXI@Z 00429340 f   AGKWindows:Wrapper.obj
 0001:00028370       ?HostNetwork@agk@AGK@@SAIPBD0I@Z 00429370 f   AGKWindows:Wrapper.obj
 0001:000284a0       ?JoinNetwork@agk@AGK@@SAIPBD0@Z 004294a0 f   AGKWindows:Wrapper.obj
 0001:00028590       ?JoinNetwork@agk@AGK@@SAIPBDI0@Z 00429590 f   AGKWindows:Wrapper.obj
 0001:000286c0       ?CloseNetwork@agk@AGK@@SAXI@Z 004296c0 f   AGKWindows:Wrapper.obj
 0001:00028760       ?SetNetworkLocalInteger@agk@AGK@@SAXIPBDH@Z 00429760 f   AGKWindows:Wrapper.obj
 0001:00028780       ?SetNetworkLocalFloat@agk@AGK@@SAXIPBDM@Z 00429780 f   AGKWindows:Wrapper.obj
 0001:000287a0       ?CreateNetworkMessage@agk@AGK@@SAIXZ 004297a0 f   AGKWindows:Wrapper.obj
 0001:00028840       ?DeleteNetworkMessage@agk@AGK@@SAXI@Z 00429840 f   AGKWindows:Wrapper.obj
 0001:00028870       ?SendNetworkMessage@agk@AGK@@SAXIII@Z 00429870 f   AGKWindows:Wrapper.obj
 0001:000289b0       ?GetNetworkMessage@agk@AGK@@SAII@Z 004299b0 f   AGKWindows:Wrapper.obj
 0001:00028a90       ?CreateHTTPConnection@agk@AGK@@SAIXZ 00429a90 f   AGKWindows:Wrapper.obj
 0001:00028b10       ?DeleteHTTPConnection@agk@AGK@@SAXI@Z 00429b10 f   AGKWindows:Wrapper.obj
 0001:00028b40       ?SetHTTPHost@agk@AGK@@SAIIPBDH@Z 00429b40 f   AGKWindows:Wrapper.obj
 0001:00028b70       ?SendHTTPRequest@agk@AGK@@SAPADIPBD@Z 00429b70 f   AGKWindows:Wrapper.obj
 0001:00028b90       ?SendHTTPRequestASync@agk@AGK@@SAHIPBD@Z 00429b90 f   AGKWindows:Wrapper.obj
 0001:00028bb0       ?GetHTTPResponse@agk@AGK@@SAPADI@Z 00429bb0 f   AGKWindows:Wrapper.obj
 0001:00028c00       ?GetHTTPFile@agk@AGK@@SAHIPBD0@Z 00429c00 f   AGKWindows:Wrapper.obj
 0001:00028c20       ?CreateEditBox@agk@AGK@@SAXI@Z 00429c20 f   AGKWindows:Wrapper.obj
 0001:00028d20       ?CreateEditBox@agk@AGK@@SAIXZ 00429d20 f   AGKWindows:Wrapper.obj
 0001:00028dc0       ?DeleteEditBox@agk@AGK@@SAXI@Z 00429dc0 f   AGKWindows:Wrapper.obj
 0001:00028e00       ?CreateZip@agk@AGK@@SAXIPBD@Z 00429e00 f   AGKWindows:Wrapper.obj
 0001:00028f00       ?CreateZip@agk@AGK@@SAIPBD@Z 00429f00 f   AGKWindows:Wrapper.obj
 0001:00028fa0       ?CloseZip@agk@AGK@@SAXI@Z  00429fa0 f   AGKWindows:Wrapper.obj
 0001:00029060       ?InitGL@agk@AGK@@SAXPAX@Z  0042a060 f   AGKWindows:Wrapper.obj
 0001:00029910       ?GetImage@agk@AGK@@SAIMMMM@Z 0042a910 f   AGKWindows:Wrapper.obj
 0001:000299c0       ?CopyImage@agk@AGK@@SAIIHHHH@Z 0042a9c0 f   AGKWindows:Wrapper.obj
 0001:00029a70       ?HashIndex@?$cHashedList@VcEditBox@AGK@@@AGK@@IAEIPBD@Z 0042aa70 f i AGKWindows:Wrapper.obj
 0001:00029a70       ?HashIndex@?$cHashedList@VcNetworkMessage@AGK@@@AGK@@IAEIPBD@Z 0042aa70 f i AGKWindows:Wrapper.obj
 0001:00029a70       ?HashIndex@?$cHashedList@VZipFile@AGK@@@AGK@@IAEIPBD@Z 0042aa70 f i AGKWindows:Wrapper.obj
 0001:00029a70       ?HashIndex@?$cHashedList@VcImage@AGK@@@AGK@@IAEIPBD@Z 0042aa70 f i AGKWindows:Wrapper.obj
 0001:00029a70       ?HashIndex@?$cHashedList@VcParticleEmitter@AGK@@@AGK@@IAEIPBD@Z 0042aa70 f i AGKWindows:Wrapper.obj
 0001:00029a70       ?HashIndex@?$cHashedList@VcSprite@AGK@@@AGK@@IAEIPBD@Z 0042aa70 f i AGKWindows:Wrapper.obj
 0001:00029a70       ?HashIndex@?$cHashedList@VcFileEntry@AGK@@@AGK@@IAEIPBD@Z 0042aa70 f i AGKWindows:Wrapper.obj
 0001:00029a70       ?HashIndex@?$cHashedList@VcText@AGK@@@AGK@@IAEIPBD@Z 0042aa70 f i AGKWindows:Wrapper.obj
 0001:00029a70       ?HashIndex@?$cHashedList@VcFile@AGK@@@AGK@@IAEIPBD@Z 0042aa70 f i AGKWindows:Wrapper.obj
 0001:00029a70       ?HashIndex@?$cHashedList@VcForce@AGK@@@AGK@@IAEIPBD@Z 0042aa70 f i AGKWindows:Wrapper.obj
 0001:00029a70       ?HashIndex@?$cHashedList@VcHTTPConnection@AGK@@@AGK@@IAEIPBD@Z 0042aa70 f i AGKWindows:Wrapper.obj
 0001:00029a70       ?HashIndex@?$cHashedList@VBroadcastListener@AGK@@@AGK@@IAEIPBD@Z 0042aa70 f i AGKWindows:Wrapper.obj
 0001:00029a70       ?HashIndex@?$cHashedList@VcNetwork@AGK@@@AGK@@IAEIPBD@Z 0042aa70 f i AGKWindows:Wrapper.obj
 0001:00029a70       ?HashIndex@?$cHashedList@VcNetworkVariable@AGK@@@AGK@@IAEIPBD@Z 0042aa70 f i AGKWindows:Network.obj
 0001:00029af0       ?SetStr@uString@AGK@@QAEXABV12@@Z 0042aaf0 f i AGKWindows:Wrapper.obj
 0001:00029b20       ??0b2PolygonShape@@QAE@XZ  0042ab20 f i AGKWindows:Wrapper.obj
 0001:00029b50       ?GetItem@?$cHashedList@VcNetworkVariable@AGK@@@AGK@@QAEPAVcNetworkVariable@2@PBD@Z 0042ab50 f i AGKWindows:Network.obj
 0001:00029b50       ?GetItem@?$cHashedList@VcFileEntry@AGK@@@AGK@@QAEPAVcFileEntry@2@PBD@Z 0042ab50 f i AGKWindows:Wrapper.obj
 0001:00029bd0       ?GetItem@?$cHashedList@Vb2Joint@@@AGK@@QAEPAVb2Joint@@I@Z 0042abd0 f i AGKWindows:Wrapper.obj
 0001:00029bd0       ?GetItem@?$cHashedList@VcImage@AGK@@@AGK@@QAEPAVcImage@2@I@Z 0042abd0 f i AGKWindows:Wrapper.obj
 0001:00029c00       ?GetFreeID@?$cHashedList@VBroadcastListener@AGK@@@AGK@@QAEII@Z 0042ac00 f i AGKWindows:Wrapper.obj
 0001:00029c00       ?GetFreeID@?$cHashedList@VcFile@AGK@@@AGK@@QAEII@Z 0042ac00 f i AGKWindows:Wrapper.obj
 0001:00029c00       ?GetFreeID@?$cHashedList@VZipFile@AGK@@@AGK@@QAEII@Z 0042ac00 f i AGKWindows:Wrapper.obj
 0001:00029c00       ?GetFreeID@?$cHashedList@VcEditBox@AGK@@@AGK@@QAEII@Z 0042ac00 f i AGKWindows:Wrapper.obj
 0001:00029c00       ?GetFreeID@?$cHashedList@VcNetworkMessage@AGK@@@AGK@@QAEII@Z 0042ac00 f i AGKWindows:Wrapper.obj
 0001:00029c00       ?GetFreeID@?$cHashedList@VcForce@AGK@@@AGK@@QAEII@Z 0042ac00 f i AGKWindows:Wrapper.obj
 0001:00029c00       ?GetFreeID@?$cHashedList@Vb2Joint@@@AGK@@QAEII@Z 0042ac00 f i AGKWindows:Wrapper.obj
 0001:00029c00       ?GetFreeID@?$cHashedList@VcHTTPConnection@AGK@@@AGK@@QAEII@Z 0042ac00 f i AGKWindows:Wrapper.obj
 0001:00029c00       ?GetFreeID@?$cHashedList@VcParticleEmitter@AGK@@@AGK@@QAEII@Z 0042ac00 f i AGKWindows:Wrapper.obj
 0001:00029c00       ?GetFreeID@?$cHashedList@VcText@AGK@@@AGK@@QAEII@Z 0042ac00 f i AGKWindows:Wrapper.obj
 0001:00029c00       ?GetFreeID@?$cHashedList@VcNetwork@AGK@@@AGK@@QAEII@Z 0042ac00 f i AGKWindows:Wrapper.obj
 0001:00029c00       ?GetFreeID@?$cHashedList@VcSprite@AGK@@@AGK@@QAEII@Z 0042ac00 f i AGKWindows:Wrapper.obj
 0001:00029c00       ?GetFreeID@?$cHashedList@VcImage@AGK@@@AGK@@QAEII@Z 0042ac00 f i AGKWindows:Wrapper.obj
 0001:00029c60       ?AddItem@?$cHashedList@VcFileEntry@AGK@@@AGK@@QAEXPAVcFileEntry@2@PBD@Z 0042ac60 f i AGKWindows:Wrapper.obj
 0001:00029cf0       ?RemoveItem@?$cHashedList@VcParticleEmitter@AGK@@@AGK@@QAEPAVcParticleEmitter@2@I@Z 0042acf0 f i AGKWindows:Wrapper.obj
 0001:00029cf0       ?RemoveItem@?$cHashedList@VcHTTPConnection@AGK@@@AGK@@QAEPAVcHTTPConnection@2@I@Z 0042acf0 f i AGKWindows:Wrapper.obj
 0001:00029cf0       ?RemoveItem@?$cHashedList@VcNetworkMessage@AGK@@@AGK@@QAEPAVcNetworkMessage@2@I@Z 0042acf0 f i AGKWindows:Wrapper.obj
 0001:00029cf0       ?RemoveItem@?$cHashedList@VcSprite@AGK@@@AGK@@QAEPAVcSprite@2@I@Z 0042acf0 f i AGKWindows:Wrapper.obj
 0001:00029cf0       ?RemoveItem@?$cHashedList@VcNetwork@AGK@@@AGK@@QAEPAVcNetwork@2@I@Z 0042acf0 f i AGKWindows:Wrapper.obj
 0001:00029cf0       ?RemoveItem@?$cHashedList@Vb2Joint@@@AGK@@QAEPAVb2Joint@@I@Z 0042acf0 f i AGKWindows:Wrapper.obj
 0001:00029cf0       ?RemoveItem@?$cHashedList@VcForce@AGK@@@AGK@@QAEPAVcForce@2@I@Z 0042acf0 f i AGKWindows:Wrapper.obj
 0001:00029cf0       ?RemoveItem@?$cHashedList@VBroadcastListener@AGK@@@AGK@@QAEPAVBroadcastListener@2@I@Z 0042acf0 f i AGKWindows:Wrapper.obj
 0001:00029cf0       ?RemoveItem@?$cHashedList@VcText@AGK@@@AGK@@QAEPAVcText@2@I@Z 0042acf0 f i AGKWindows:Wrapper.obj
 0001:00029cf0       ?RemoveItem@?$cHashedList@VcImage@AGK@@@AGK@@QAEPAVcImage@2@I@Z 0042acf0 f i AGKWindows:Wrapper.obj
 0001:00029cf0       ?RemoveItem@?$cHashedList@VcEditBox@AGK@@@AGK@@QAEPAVcEditBox@2@I@Z 0042acf0 f i AGKWindows:Wrapper.obj
 0001:00029cf0       ?RemoveItem@?$cHashedList@VZipFile@AGK@@@AGK@@QAEPAVZipFile@2@I@Z 0042acf0 f i AGKWindows:Wrapper.obj
 0001:00029cf0       ?RemoveItem@?$cHashedList@VcFile@AGK@@@AGK@@QAEPAVcFile@2@I@Z 0042acf0 f i AGKWindows:Wrapper.obj
 0001:00029dd0       ?ClearAll@?$cHashedList@VcFile@AGK@@@AGK@@QAEXXZ 0042add0 f i AGKWindows:Wrapper.obj
 0001:00029dd0       ?ClearAll@?$cHashedList@Vb2Joint@@@AGK@@QAEXXZ 0042add0 f i AGKWindows:Wrapper.obj
 0001:00029dd0       ?ClearAll@?$cHashedList@VcSprite@AGK@@@AGK@@QAEXXZ 0042add0 f i AGKWindows:Wrapper.obj
 0001:00029dd0       ?ClearAll@?$cHashedList@VcHTTPConnection@AGK@@@AGK@@QAEXXZ 0042add0 f i AGKWindows:Wrapper.obj
 0001:00029dd0       ?ClearAll@?$cHashedList@VcFileEntry@AGK@@@AGK@@QAEXXZ 0042add0 f i AGKWindows:Wrapper.obj
 0001:00029dd0       ?ClearAll@?$cHashedList@VcEditBox@AGK@@@AGK@@QAEXXZ 0042add0 f i AGKWindows:Wrapper.obj
 0001:00029dd0       ?ClearAll@?$cHashedList@VcNetworkMessage@AGK@@@AGK@@QAEXXZ 0042add0 f i AGKWindows:Wrapper.obj
 0001:00029dd0       ?ClearAll@?$cHashedList@VcText@AGK@@@AGK@@QAEXXZ 0042add0 f i AGKWindows:Wrapper.obj
 0001:00029dd0       ?ClearAll@?$cHashedList@VcImage@AGK@@@AGK@@QAEXXZ 0042add0 f i AGKWindows:Wrapper.obj
 0001:00029dd0       ?ClearAll@?$cHashedList@VcParticleEmitter@AGK@@@AGK@@QAEXXZ 0042add0 f i AGKWindows:Wrapper.obj
 0001:00029dd0       ?ClearAll@?$cHashedList@VcNetwork@AGK@@@AGK@@QAEXXZ 0042add0 f i AGKWindows:Wrapper.obj
 0001:00029dd0       ?ClearAll@?$cHashedList@VZipFile@AGK@@@AGK@@QAEXXZ 0042add0 f i AGKWindows:Wrapper.obj
 0001:00029dd0       ?ClearAll@?$cHashedList@VcForce@AGK@@@AGK@@QAEXXZ 0042add0 f i AGKWindows:Wrapper.obj
 0001:00029dd0       ?ClearAll@?$cHashedList@VBroadcastListener@AGK@@@AGK@@QAEXXZ 0042add0 f i AGKWindows:Wrapper.obj
 0001:00029e50       ?AddItem@?$cHashedList@Vb2Joint@@@AGK@@QAEXPAVb2Joint@@I@Z 0042ae50 f i AGKWindows:Wrapper.obj
 0001:00029e50       ?AddItem@?$cHashedList@VcEditBox@AGK@@@AGK@@QAEXPAVcEditBox@2@I@Z 0042ae50 f i AGKWindows:Wrapper.obj
 0001:00029e50       ?AddItem@?$cHashedList@I@AGK@@QAEXPAII@Z 0042ae50 f i AGKWindows:Network.obj
 0001:00029e50       ?AddItem@?$cHashedList@VcFile@AGK@@@AGK@@QAEXPAVcFile@2@I@Z 0042ae50 f i AGKWindows:Wrapper.obj
 0001:00029e50       ?AddItem@?$cHashedList@VBroadcastListener@AGK@@@AGK@@QAEXPAVBroadcastListener@2@I@Z 0042ae50 f i AGKWindows:Wrapper.obj
 0001:00029e50       ?AddItem@?$cHashedList@VcNetwork@AGK@@@AGK@@QAEXPAVcNetwork@2@I@Z 0042ae50 f i AGKWindows:Wrapper.obj
 0001:00029e50       ?AddItem@?$cHashedList@VcNetworkMessage@AGK@@@AGK@@QAEXPAVcNetworkMessage@2@I@Z 0042ae50 f i AGKWindows:Wrapper.obj
 0001:00029e50       ?AddItem@?$cHashedList@VcImage@AGK@@@AGK@@QAEXPAVcImage@2@I@Z 0042ae50 f i AGKWindows:Wrapper.obj
 0001:00029e50       ?AddItem@?$cHashedList@VcText@AGK@@@AGK@@QAEXPAVcText@2@I@Z 0042ae50 f i AGKWindows:Wrapper.obj
 0001:00029e50       ?AddItem@?$cHashedList@VcHTTPConnection@AGK@@@AGK@@QAEXPAVcHTTPConnection@2@I@Z 0042ae50 f i AGKWindows:Wrapper.obj
 0001:00029e50       ?AddItem@?$cHashedList@VcParticleEmitter@AGK@@@AGK@@QAEXPAVcParticleEmitter@2@I@Z 0042ae50 f i AGKWindows:Wrapper.obj
 0001:00029e50       ?AddItem@?$cHashedList@VZipFile@AGK@@@AGK@@QAEXPAVZipFile@2@I@Z 0042ae50 f i AGKWindows:Wrapper.obj
 0001:00029e50       ?AddItem@?$cHashedList@VcForce@AGK@@@AGK@@QAEXPAVcForce@2@I@Z 0042ae50 f i AGKWindows:Wrapper.obj
 0001:00029e50       ?AddItem@?$cHashedList@VcSprite@AGK@@@AGK@@QAEXPAVcSprite@2@I@Z 0042ae50 f i AGKWindows:Wrapper.obj
 0001:00029ed0       _IsEqualGUID               0042aed0 f i AGKWindows:WindowsCore.obj
 0001:00029f40       ??$AtlMultiply@H@ATL@@YAJPAHHH@Z 0042af40 f i AGKWindows:WindowsCore.obj
 0001:00029f70       ?AtlA2WHelper@@YGPA_WPA_WPBDHI@Z 0042af70 f i AGKWindows:WindowsCore.obj
 0001:00029fb0       ?AtlThrowImpl@ATL@@YGXJ@Z  0042afb0 f i AGKWindows:WindowsCore.obj
 0001:00029fd0       ?AtlThrowLastWin32@ATL@@YGXXZ 0042afd0 f i AGKWindows:WindowsCore.obj
 0001:00029ff0       ?memcpy_s@Checked@ATL@@YAXPAXIPBXI@Z 0042aff0 f i AGKWindows:WindowsCore.obj
 0001:0002a0b0       ?_AtlGetStringResourceImage@ATL@@YAPBUATLSTRINGRESOURCEIMAGE@1@PAUHINSTANCE__@@PAUHRSRC__@@I@Z 0042b0b0 f i AGKWindows:WindowsCore.obj
 0001:0002a120       ?AtlFindStringResourceInstance@ATL@@YAPAUHINSTANCE__@@IG@Z 0042b120 f i AGKWindows:WindowsCore.obj
 0001:0002a1a0       ?ConvertToBaseType@?$ChTraitsCRT@_W@ATL@@SAXPA_WHPB_WH@Z 0042b1a0 f i AGKWindows:WindowsCore.obj
 0001:0002a270       ??0Bitmap@Gdiplus@@QAE@HHHHPAE@Z 0042b270 f i AGKWindows:WindowsCore.obj
 0001:0002a2c0       ??0Bitmap@Gdiplus@@QAE@PAUHBITMAP__@@PAUHPALETTE__@@@Z 0042b2c0 f i AGKWindows:WindowsCore.obj
 0001:0002a300       ?ReleaseGDIPlus@CInitGDIPlus@CImage@ATL@@QAEXXZ 0042b300 f i AGKWindows:WindowsCore.obj
 0001:0002a330       ??0CImage@ATL@@QAE@XZ      0042b330 f i AGKWindows:WindowsCore.obj
 0001:0002a390       ?GetDC@CImage@ATL@@QBEPAUHDC__@@XZ 0042b390 f i AGKWindows:WindowsCore.obj
 0001:0002a3f0       ?ReleaseDC@CImage@ATL@@QBEXXZ 0042b3f0 f i AGKWindows:WindowsCore.obj
 0001:0002a440       ?FindCodecForFileType@CImage@ATL@@CA?AU_GUID@@ABU3@PBVImageCodecInfo@Gdiplus@@I@Z 0042b440 f i AGKWindows:WindowsCore.obj
 0001:0002a4c0       ?UpdateBitmapInfo@CImage@ATL@@AAEXW4DIBOrientation@12@@Z 0042b4c0 f i AGKWindows:WindowsCore.obj
 0001:0002a5a0       ?InitGDIPlus@CImage@ATL@@CA_NXZ 0042b5a0 f i AGKWindows:WindowsCore.obj
 0001:0002a690       ?IsPinConnected@AGK@@YAJPAUIPin@@PAH@Z 0042b690 f   AGKWindows:WindowsCore.obj
 0001:0002a6f0       ?IsPinDirection@AGK@@YAJPAUIPin@@W4_PinDirection@@PAH@Z 0042b6f0 f   AGKWindows:WindowsCore.obj
 0001:0002a720       ?MatchPin@AGK@@YAJPAUIPin@@W4_PinDirection@@HPAH@Z 0042b720 f   AGKWindows:WindowsCore.obj
 0001:0002a7b0       ?FindUnconnectedPin@AGK@@YAJPAUIBaseFilter@@W4_PinDirection@@PAPAUIPin@@@Z 0042b7b0 f   AGKWindows:WindowsCore.obj
 0001:0002a940       ?ConnectFilters@AGK@@YAJPAUIGraphBuilder@@PAUIPin@@PAUIBaseFilter@@@Z 0042b940 f   AGKWindows:WindowsCore.obj
 0001:0002a990       ?ConnectFilters@AGK@@YAJPAUIGraphBuilder@@PAUIBaseFilter@@1@Z 0042b990 f   AGKWindows:WindowsCore.obj
 0001:0002aa00       ?TraverseDirectory@cFileEntry@AGK@@KAXPBD@Z 0042ba00 f   AGKWindows:WindowsCore.obj
 0001:0002abf0       ?InitFileList@cFileEntry@AGK@@SAXXZ 0042bbf0 f   AGKWindows:WindowsCore.obj
 0001:0002ac10       ?GetDeviceName@agk@AGK@@SAXAAVuString@2@@Z 0042bc10 f   AGKWindows:WindowsCore.obj
 0001:0002ac50       ?GetDeviceName@agk@AGK@@SAPADXZ 0042bc50 f   AGKWindows:WindowsCore.obj
 0001:0002aca0       ?GetAppName@agk@AGK@@SAPADXZ 0042bca0 f   AGKWindows:WindowsCore.obj
 0001:0002ace0       ?GetDeviceHasSplash@agk@AGK@@KA_NXZ 0042bce0 f   AGKWindows:WindowsCore.obj
 0001:0002acf0       ?SetWindowTitle@agk@AGK@@SAXPBD@Z 0042bcf0 f   AGKWindows:WindowsCore.obj
 0001:0002ad10       ?GetDeviceCanRotate@agk@AGK@@KA_NXZ 0042bd10 f   AGKWindows:WindowsCore.obj
 0001:0002ad20       ?InputEnumObjectsCallback@@YGHPBUDIDEVICEOBJECTINSTANCEA@@PAX@Z 0042bd20 f   AGKWindows:WindowsCore.obj
 0001:0002ade0       ?InputEnumCallback@@YGHPBUDIDEVICEINSTANCEA@@PAX@Z 0042bde0 f   AGKWindows:WindowsCore.obj
 0001:0002af60       ?DirectInputEnumThread@@YGIPAX@Z 0042bf60 f   AGKWindows:WindowsCore.obj
 0001:0002aff0       ?LoadExtensions@@YAXXZ     0042bff0 f   AGKWindows:WindowsCore.obj
 0001:0002b0d0       ?PlatformSetDevicePtr@agk@AGK@@KAXPAX@Z 0042c0d0 f   AGKWindows:WindowsCore.obj
 0001:0002b0e0       ?PlatformInitGL@agk@AGK@@KAXPAX@Z 0042c0e0 f   AGKWindows:WindowsCore.obj
 0001:0002b9d0       ?PlatformDestroyGL@agk@AGK@@KAXXZ 0042c9d0 f   AGKWindows:WindowsCore.obj
 0001:0002b9e0       ?UpdatePtr@agk@AGK@@SAXPAX@Z 0042c9e0 f   AGKWindows:WindowsCore.obj
 0001:0002b9f0       ?PlatformSetProjectionMatrix@agk@AGK@@KAXXZ 0042c9f0 f   AGKWindows:WindowsCore.obj
 0001:0002ba50       ?SetOrientationMatrix@agk@AGK@@SAXXZ 0042ca50 f   AGKWindows:WindowsCore.obj
 0001:0002bba0       ?PlatformPrepareDebugDraw@agk@AGK@@KAXXZ 0042cba0 f   AGKWindows:WindowsCore.obj
 0001:0002bbc0       ?PlatformPrepareDefaultDraw@agk@AGK@@KAXXZ 0042cbc0 f   AGKWindows:WindowsCore.obj
 0001:0002bc70       ?PlatformEndDebugDraw@agk@AGK@@KAXXZ 0042cc70 f   AGKWindows:WindowsCore.obj
 0001:0002bc90       ?PlatformSetViewport@agk@AGK@@KAXHHHH@Z 0042cc90 f   AGKWindows:WindowsCore.obj
 0001:0002bcb0       ?Sleep@agk@AGK@@SAXI@Z     0042ccb0 f   AGKWindows:WindowsCore.obj
 0001:0002bcc0       ?SetVSync@agk@AGK@@SAXH@Z  0042ccc0 f   AGKWindows:WindowsCore.obj
 0001:0002bce0       ?PlatformCleanUp@agk@AGK@@KAXXZ 0042cce0 f   AGKWindows:WindowsCore.obj
 0001:0002bde0       ?PlatformUpdateDeviceSize@agk@AGK@@KAXXZ 0042cde0 f   AGKWindows:WindowsCore.obj
 0001:0002be40       ?PlatformUpdateTime@agk@AGK@@KAXXZ 0042ce40 f   AGKWindows:WindowsCore.obj
 0001:0002beb0       ?PlatformResetTime@agk@AGK@@KAXXZ 0042ceb0 f   AGKWindows:WindowsCore.obj
 0001:0002bf10       ?PlatformBindDefaultFramebuffer@agk@AGK@@KAXXZ 0042cf10 f   AGKWindows:WindowsCore.obj
 0001:0002bf20       ?PlatformFlush@agk@AGK@@KAXXZ 0042cf20 f   AGKWindows:WindowsCore.obj
 0001:0002bf30       ?PlatformSync@agk@AGK@@KAXXZ 0042cf30 f   AGKWindows:WindowsCore.obj
 0001:0002bf50       ?PlatformScissor@agk@AGK@@KAXHHHH@Z 0042cf50 f   AGKWindows:WindowsCore.obj
 0001:0002bfc0       ?PlatformCompleteInputInit@agk@AGK@@KAXXZ 0042cfc0 f   AGKWindows:WindowsCore.obj
 0001:0002bfe0       ?PlatformStartTextInput@agk@AGK@@KAXPBD@Z 0042cfe0 f   AGKWindows:WindowsCore.obj
 0001:0002c2d0       ?PlatformUpdateTextInput@agk@AGK@@KAXXZ 0042d2d0 f   AGKWindows:WindowsCore.obj
 0001:0002c6e0       ?PlatformDrawTextInput@agk@AGK@@KAXXZ 0042d6e0 f   AGKWindows:WindowsCore.obj
 0001:0002c830       ?PlatformResumed@agk@AGK@@KAXXZ 0042d830 f   AGKWindows:WindowsCore.obj
 0001:0002c840       ?PlatformDeviceVolume@agk@AGK@@KAXXZ 0042d840 f   AGKWindows:WindowsCore.obj
 0001:0002c850       ?PlatformLittleEndian@agk@AGK@@KAII@Z 0042d850 f   AGKWindows:WindowsCore.obj
 0001:0002c860       ?PlatformLittleEndian@agk@AGK@@KAHH@Z 0042d860 f   AGKWindows:WindowsCore.obj
 0001:0002c870       ?PlatformLocalEndian@agk@AGK@@KAII@Z 0042d870 f   AGKWindows:WindowsCore.obj
 0001:0002c880       ?PlatformLocalEndian@agk@AGK@@KAHH@Z 0042d880 f   AGKWindows:WindowsCore.obj
 0001:0002c890       ?Sin@agk@AGK@@SAMM@Z       0042d890 f   AGKWindows:WindowsCore.obj
 0001:0002c8c0       ?Cos@agk@AGK@@SAMM@Z       0042d8c0 f   AGKWindows:WindowsCore.obj
 0001:0002c8f0       ?Tan@agk@AGK@@SAMM@Z       0042d8f0 f   AGKWindows:WindowsCore.obj
 0001:0002c920       ?SinRad@agk@AGK@@SAMM@Z    0042d920 f   AGKWindows:WindowsCore.obj
 0001:0002c940       ?CosRad@agk@AGK@@SAMM@Z    0042d940 f   AGKWindows:WindowsCore.obj
 0001:0002c960       ?TanRad@agk@AGK@@SAMM@Z    0042d960 f   AGKWindows:WindowsCore.obj
 0001:0002c980       ?ASin@agk@AGK@@SAMM@Z      0042d980 f   AGKWindows:WindowsCore.obj
 0001:0002c9b0       ?ACos@agk@AGK@@SAMM@Z      0042d9b0 f   AGKWindows:WindowsCore.obj
 0001:0002c9e0       ?ATan@agk@AGK@@SAMM@Z      0042d9e0 f   AGKWindows:WindowsCore.obj
 0001:0002ca10       ?ASinRad@agk@AGK@@SAMM@Z   0042da10 f   AGKWindows:WindowsCore.obj
 0001:0002ca30       ?ACosRad@agk@AGK@@SAMM@Z   0042da30 f   AGKWindows:WindowsCore.obj
 0001:0002ca50       ?ATanRad@agk@AGK@@SAMM@Z   0042da50 f   AGKWindows:WindowsCore.obj
 0001:0002ca70       ?Floor@agk@AGK@@SAHM@Z     0042da70 f   AGKWindows:WindowsCore.obj
 0001:0002caa0       ?Ceil@agk@AGK@@SAHM@Z      0042daa0 f   AGKWindows:WindowsCore.obj
 0001:0002cad0       ?Round@agk@AGK@@SAHM@Z     0042dad0 f   AGKWindows:WindowsCore.obj
 0001:0002caf0       ?Sqrt@agk@AGK@@SAMM@Z      0042daf0 f   AGKWindows:WindowsCore.obj
 0001:0002cb20       ?Abs@agk@AGK@@SAMM@Z       0042db20 f   AGKWindows:WindowsCore.obj
 0001:0002cb40       ?Mod@agk@AGK@@SAHHH@Z      0042db40 f   AGKWindows:WindowsCore.obj
 0001:0002cb50       ?FMod@agk@AGK@@SAMMM@Z     0042db50 f   AGKWindows:WindowsCore.obj
 0001:0002cb70       ?BindTexture@cImage@AGK@@SAXI@Z 0042db70 f   AGKWindows:WindowsCore.obj
 0001:0002cbe0       ?PlatformDelete@cImage@AGK@@IAEXXZ 0042dbe0 f   AGKWindows:WindowsCore.obj
 0001:0002cc00       ?SetMask@cImage@AGK@@QAEXPAV12@HHHH@Z 0042dc00 f   AGKWindows:WindowsCore.obj
 0001:0002cfd0       ?CreateFromScreen@cImage@AGK@@QAEXHHHH@Z 0042dfd0 f   AGKWindows:WindowsCore.obj
 0001:0002d3c0       ?CopyFrom@cImage@AGK@@QAEXPAV12@HHHH@Z 0042e3c0 f   AGKWindows:WindowsCore.obj
 0001:0002d8a0       ?SetTransparentColor@cImage@AGK@@QAEXHHH@Z 0042e8a0 f   AGKWindows:WindowsCore.obj
 0001:0002dad0       ?PlatformHideCaptureScreen@agk@AGK@@KAXXZ 0042ead0 f   AGKWindows:WindowsCore.obj
 0001:0002dc10       ?CaptureFromCamera@cImage@AGK@@QAE_NXZ 0042ec10 f   AGKWindows:WindowsCore.obj
 0001:0002e0a0       ?EncodeQR@cImage@AGK@@QAE_NPBDH@Z 0042f0a0 f   AGKWindows:WindowsCore.obj
 0001:0002e5c0       ?Print@cImage@AGK@@QAEXM@Z 0042f5c0 f   AGKWindows:WindowsCore.obj
 0001:0002e9a0       ?LoadAscii@cImage@AGK@@IAEXXZ 0042f9a0 f   AGKWindows:WindowsCore.obj
 0001:0002ed40       ?LoadAsciiExt@cImage@AGK@@IAEXXZ 0042fd40 f   AGKWindows:WindowsCore.obj
 0001:0002f090       ?PlatformLoadFromData@cImage@AGK@@IAEXHHPAI@Z 00430090 f   AGKWindows:WindowsCore.obj
 0001:0002f450       ?PlatformReloadFromData@cImage@AGK@@IAEXXZ 00430450 f   AGKWindows:WindowsCore.obj
 0001:0002f690       ?PlatformDraw@cSprite@AGK@@IAEXPAM0PAE@Z 00430690 f   AGKWindows:WindowsCore.obj
 0001:0002f7a0       ?PlatformSetupOpaque@cSpriteMgr@AGK@@IAEXXZ 004307a0 f   AGKWindows:WindowsCore.obj
 0001:0002f830       ?PlatformSetupColorKey@cSpriteMgr@AGK@@IAEXXZ 00430830 f   AGKWindows:WindowsCore.obj
 0001:0002f8d0       ?PlatformSetupAlpha@cSpriteMgr@AGK@@IAEXXZ 004308d0 f   AGKWindows:WindowsCore.obj
 0001:0002f970       ?PlatformDrawTriangles@cSpriteMgr@AGK@@IAEXI@Z 00430970 f   AGKWindows:WindowsCore.obj
 0001:0002f990       ?PlatformDrawIndices@cSpriteMgr@AGK@@IAEXIPAG@Z 00430990 f   AGKWindows:WindowsCore.obj
 0001:0002f9c0       ?PlatformDraw@cText@AGK@@IAEXXZ 004309c0 f   AGKWindows:WindowsCore.obj
 0001:0002fcb0       ?GetMaxPointSize@cParticleEmitter@AGK@@KAMXZ 00430cb0 f   AGKWindows:WindowsCore.obj
 0001:0002fce0       ?PlatformDrawQuadParticles@cParticleEmitter@AGK@@IAEXIPAGPAM1PAE@Z 00430ce0 f   AGKWindows:WindowsCore.obj
 0001:0002fde0       ?PlatformDrawPointParticles@cParticleEmitter@AGK@@IAEXIPAMPAE@Z 00430de0 f   AGKWindows:WindowsCore.obj
 0001:0002fff0       ?DrawPolygon@DebugDraw@AGK@@UAEXPBUb2Vec2@@HABUb2Color@@@Z 00430ff0 f   AGKWindows:WindowsCore.obj
 0001:00030280       ?DrawSolidPolygon@DebugDraw@AGK@@UAEXPBUb2Vec2@@HABUb2Color@@@Z 00431280 f   AGKWindows:WindowsCore.obj
 0001:00030630       ?DrawCircle@DebugDraw@AGK@@UAEXABUb2Vec2@@MABUb2Color@@@Z 00431630 f   AGKWindows:WindowsCore.obj
 0001:00030920       ?DrawSolidCircle@DebugDraw@AGK@@UAEXABUb2Vec2@@M0ABUb2Color@@@Z 00431920 f   AGKWindows:WindowsCore.obj
 0001:00030e50       ?DrawSegment@DebugDraw@AGK@@UAEXABUb2Vec2@@0ABUb2Color@@@Z 00431e50 f   AGKWindows:WindowsCore.obj
 0001:00031160       ?DrawTransform@DebugDraw@AGK@@UAEXABUb2Transform@@@Z 00432160 f   AGKWindows:WindowsCore.obj
 0001:00031170       ?DrawPoint@DebugDraw@AGK@@QAEXABUb2Vec2@@MABUb2Color@@@Z 00432170 f   AGKWindows:WindowsCore.obj
 0001:00031320       ?Play@cMusicMgr@AGK@@QAEXI_NII@Z 00432320 f   AGKWindows:WindowsCore.obj
 0001:00031a00       ?Pause@cMusicMgr@AGK@@QAEXXZ 00432a00 f   AGKWindows:WindowsCore.obj
 0001:00031a40       ?Resume@cMusicMgr@AGK@@QAEXXZ 00432a40 f   AGKWindows:WindowsCore.obj
 0001:00031a80       ?Stop@cMusicMgr@AGK@@QAEXXZ 00432a80 f   AGKWindows:WindowsCore.obj
 0001:00031ac0       ?SetMasterVolume@cMusicMgr@AGK@@QAEXH@Z 00432ac0 f   AGKWindows:WindowsCore.obj
 0001:00031b80       ?HandleEvent@cMusicMgr@AGK@@QAEXXZ 00432b80 f   AGKWindows:WindowsCore.obj
 0001:00031c90       ?PlatformInit@cSoundMgr@AGK@@KAXXZ 00432c90 f   AGKWindows:WindowsCore.obj
 0001:00031d30       ?PlatformAddFile@cSoundMgr@AGK@@KAXPAVcSoundFile@12@@Z 00432d30 f   AGKWindows:WindowsCore.obj
 0001:00031d40       ?PlatformUpdateVolume@cSoundMgr@AGK@@KAXXZ 00432d40 f   AGKWindows:WindowsCore.obj
 0001:00031de0       ?PlatformDelete@cSoundMgr@AGK@@KAXXZ 00432de0 f   AGKWindows:WindowsCore.obj
 0001:00031e60       ?PlatformCreateInstance@cSoundMgr@AGK@@KAXPAVcSoundFile@12@HHH@Z 00432e60 f   AGKWindows:WindowsCore.obj
 0001:00032170       ?PlatformStopInstances@cSoundMgr@AGK@@KAXI@Z 00433170 f   AGKWindows:WindowsCore.obj
 0001:00032210       ?ToInt@uString@AGK@@QBEHXZ 00433210 f   AGKWindows:WindowsCore.obj
 0001:00032220       ?ToFloat@uString@AGK@@QBEMXZ 00433220 f   AGKWindows:WindowsCore.obj
 0001:00032240       ?PlatformReportError@agk@AGK@@KAXABVuString@2@@Z 00433240 f   AGKWindows:WindowsCore.obj
 0001:00032280       ?PlatformMessage@agk@AGK@@KAXPBD@Z 00433280 f   AGKWindows:WindowsCore.obj
 0001:000322f0       ?PlatformInit@AGKThread@AGK@@AAEXXZ 004332f0 f   AGKWindows:WindowsCore.obj
 0001:00032310       ?PlatformStop@AGKThread@AGK@@AAEXXZ 00433310 f   AGKWindows:WindowsCore.obj
 0001:00032320       ?PlatformTerminate@AGKThread@AGK@@AAEXXZ 00433320 f   AGKWindows:WindowsCore.obj
 0001:000323a0       ?PlatformCleanUp@AGKThread@AGK@@AAEXXZ 004333a0 f   AGKWindows:WindowsCore.obj
 0001:000323b0       ?PlatformJoin@AGKThread@AGK@@AAEXXZ 004333b0 f   AGKWindows:WindowsCore.obj
 0001:000323c0       ?PlatformSleepSafe@AGKThread@AGK@@AAEXI@Z 004333c0 f   AGKWindows:WindowsCore.obj
 0001:000323e0       ?GetWritePath@agk@AGK@@SAPADXZ 004333e0 f   AGKWindows:WindowsCore.obj
 0001:00032420       ?DeleteFileA@cFile@AGK@@SAXPBD@Z 00433420 f   AGKWindows:WindowsCore.obj
 0001:000325b0       ?Close@cFile@AGK@@QAEXXZ   004335b0 f   AGKWindows:WindowsCore.obj
 0001:000325d0       ?GetSize@cFile@AGK@@QAEIXZ 004335d0 f   AGKWindows:WindowsCore.obj
 0001:00032620       ?GetPos@cFile@AGK@@QAEIXZ  00433620 f   AGKWindows:WindowsCore.obj
 0001:00032640       ?Seek@cFile@AGK@@QAEXI@Z   00433640 f   AGKWindows:WindowsCore.obj
 0001:00032660       ?Rewind@cFile@AGK@@QAEXXZ  00433660 f   AGKWindows:WindowsCore.obj
 0001:00032670       ?IsEOF@cFile@AGK@@QAE_NXZ  00433670 f   AGKWindows:WindowsCore.obj
 0001:00032690       ?WriteInteger@cFile@AGK@@QAEXH@Z 00433690 f   AGKWindows:WindowsCore.obj
 0001:00032730       ?WriteFloat@cFile@AGK@@QAEXM@Z 00433730 f   AGKWindows:WindowsCore.obj
 0001:000327d0       ?WriteString@cFile@AGK@@QAEXPBD@Z 004337d0 f   AGKWindows:WindowsCore.obj
 0001:00032880       ?WriteData@cFile@AGK@@QAEXPBDI@Z 00433880 f   AGKWindows:WindowsCore.obj
 0001:00032920       ?WriteLine@cFile@AGK@@QAEXPBD@Z 00433920 f   AGKWindows:WindowsCore.obj
 0001:00032a00       ?ReadInteger@cFile@AGK@@QAEHXZ 00433a00 f   AGKWindows:WindowsCore.obj
 0001:00032aa0       ?ReadFloat@cFile@AGK@@QAEMXZ 00433aa0 f   AGKWindows:WindowsCore.obj
 0001:00032b40       ?ReadString@cFile@AGK@@QAEHAAVuString@2@@Z 00433b40 f   AGKWindows:WindowsCore.obj
 0001:00032cb0       ?ReadLine@cFile@AGK@@QAEHAAVuString@2@@Z 00433cb0 f   AGKWindows:WindowsCore.obj
 0001:00032e30       ?ReadData@cFile@AGK@@QAEHPADI@Z 00433e30 f   AGKWindows:WindowsCore.obj
 0001:00032f10       ?GetAccelerometerExists@agk@AGK@@SAHXZ 00433f10 f   AGKWindows:WindowsCore.obj
 0001:00032f20       ?GetMultiTouchExists@agk@AGK@@SAHXZ 00433f20 f   AGKWindows:WindowsCore.obj
 0001:00032f30       ?GetMouseExists@agk@AGK@@SAHXZ 00433f30 f   AGKWindows:WindowsCore.obj
 0001:00032f40       ?GetKeyboardExists@agk@AGK@@SAHXZ 00433f40 f   AGKWindows:WindowsCore.obj
 0001:00032f50       ?SetRawMouseVisible@agk@AGK@@SAXH@Z 00433f50 f   AGKWindows:WindowsCore.obj
 0001:00032f70       ?PlatformUpdate@cJoystick@AGK@@IAEXXZ 00433f70 f   AGKWindows:WindowsCore.obj
 0001:00033040       ?GetUnixTime64@agk@AGK@@SA_JXZ 00434040 f   AGKWindows:WindowsCore.obj
 0001:00033050       ?GetUnixTime@agk@AGK@@SAHXZ 00434050 f   AGKWindows:WindowsCore.obj
 0001:000330a0       ?GetDayOfWeek@agk@AGK@@SAHXZ 004340a0 f   AGKWindows:WindowsCore.obj
 0001:000330d0       ?GetCurrentDate@agk@AGK@@SAPADXZ 004340d0 f   AGKWindows:WindowsCore.obj
 0001:00033190       ?GetTickCount@agk@AGK@@SAPADXZ 00434190 f   AGKWindows:WindowsCore.obj
 0001:00033250       ?PlatformGetAdPortal@agk@AGK@@KAHXZ 00434250 f   AGKWindows:WindowsCore.obj
 0001:00033260       ?PlatformStartText@cEditBox@AGK@@IAEXXZ 00434260 f   AGKWindows:WindowsCore.obj
 0001:00033270       ?PlatformUpdateText@cEditBox@AGK@@IAE_NXZ 00434270 f   AGKWindows:WindowsCore.obj
 0001:00033280       ?OpenBrowser@agk@AGK@@SAXPBD@Z 00434280 f   AGKWindows:WindowsCore.obj
 0001:00033510       ?GetAppName@agk@AGK@@SAXAAVuString@2@@Z 00434510 f   AGKWindows:WindowsCore.obj
 0001:00033540       ?PlatformClearScreen@agk@AGK@@KAXXZ 00434540 f   AGKWindows:WindowsCore.obj
 0001:000337d0       ?Trunc@agk@AGK@@SAHM@Z     004347d0 f   AGKWindows:WindowsCore.obj
 0001:00033830       ?PlatformUpdate@cSoundMgr@AGK@@KAXXZ 00434830 f   AGKWindows:WindowsCore.obj
 0001:000339d0       ?PlatformStart@AGKThread@AGK@@AAEXXZ 004349d0 f   AGKWindows:WindowsCore.obj
 0001:00033a00       ?PlatformChooseFile@agk@AGK@@KA_NAAVuString@2@PBD@Z 00434a00 f   AGKWindows:WindowsCore.obj
 0001:00033d20       ?PlatformGetFullPathWrite@agk@AGK@@SAXAAVuString@2@@Z 00434d20 f   AGKWindows:WindowsCore.obj
 0001:00033e60       ?PlatformGetFullPathRead@agk@AGK@@SAXAAVuString@2@@Z 00434e60 f   AGKWindows:WindowsCore.obj
 0001:00033fa0       ?PlatformCreatePath@agk@AGK@@SAXVuString@2@@Z 00434fa0 f   AGKWindows:WindowsCore.obj
 0001:000341f0       ?Exists@cFile@AGK@@SA_NPBD@Z 004351f0 f   AGKWindows:WindowsCore.obj
 0001:000343d0       ?GetModified@cFile@AGK@@SA_NPBDAAH@Z 004353d0 f   AGKWindows:WindowsCore.obj
 0001:000345b0       ?OpenToRead@cFile@AGK@@QAE_NPBD@Z 004355b0 f   AGKWindows:WindowsCore.obj
 0001:000348d0       ?ParseCurrentDirectory@agk@AGK@@KAXXZ 004358d0 f   AGKWindows:WindowsCore.obj
 0001:00034d50       ?SetCurrentDir@agk@AGK@@SAHPBD@Z 00435d50 f   AGKWindows:WindowsCore.obj
 0001:00034f80       ?MakeFolder@agk@AGK@@SAHPBD@Z 00435f80 f   AGKWindows:WindowsCore.obj
 0001:00035180       ?DeleteFolder@agk@AGK@@SAXPBD@Z 00436180 f   AGKWindows:WindowsCore.obj
 0001:000352c0       ?PlatformInitFilePaths@agk@AGK@@KAXXZ 004362c0 f   AGKWindows:WindowsCore.obj
 0001:00035630       ?PlatformUpdateWritePath@agk@AGK@@KAXXZ 00436630 f   AGKWindows:WindowsCore.obj
 0001:00035770       ?PlatformRestoreWritePath@agk@AGK@@KAXXZ 00436770 f   AGKWindows:WindowsCore.obj
 0001:000357a0       ?ChooseFromSystem@cImage@AGK@@QAE_NXZ 004367a0 f   AGKWindows:WindowsCore.obj
 0001:00035920       ?PlatformShowChooseScreen@agk@AGK@@KAXXZ 00436920 f   AGKWindows:WindowsCore.obj
 0001:00035ae0       ?PlatformShowCaptureScreen@agk@AGK@@KA_NXZ 00436ae0 f   AGKWindows:WindowsCore.obj
 0001:000363b0       ?PlatformAddFile@cMusicMgr@AGK@@KAXPAVcMusic@12@@Z 004373b0 f   AGKWindows:WindowsCore.obj
 0001:00036400       ?SetRawWritePath@agk@AGK@@SAXPBD@Z 00437400 f   AGKWindows:WindowsCore.obj
 0001:00036550       ?GetFileSize@cFile@AGK@@SAIPBD@Z 00437550 f   AGKWindows:WindowsCore.obj
 0001:00036660       ?OpenToWrite@cFile@AGK@@QAE_NPBD_N@Z 00437660 f   AGKWindows:WindowsCore.obj
 0001:00036a50       ?GetCameraExists@agk@AGK@@SAHXZ 00437a50 f   AGKWindows:WindowsCore.obj
 0001:00036bc0       ?DecodeQR@cImage@AGK@@QAEHAAVuString@2@@Z 00437bc0 f   AGKWindows:WindowsCore.obj
 0001:00037290       ?PlatformLoad@cImage@AGK@@IAE_NPBD_N@Z 00438290 f   AGKWindows:WindowsCore.obj
 0001:00038180       ?Save@cImage@AGK@@QAEXPBD@Z 00439180 f   AGKWindows:WindowsCore.obj
 0001:00038400       ??1?$CAtlSafeAllocBufferManager@VCCRTAllocator@ATL@@@_ATL_SAFE_ALLOCA_IMPL@ATL@@QAE@XZ 00439400 f i AGKWindows:WindowsCore.obj
 0001:00038420       ?ThrowMemoryException@?$CSimpleStringT@_W$0A@@ATL@@KAXXZ 00439420 f i AGKWindows:WindowsCore.obj
 0001:00038430       ?CloneData@?$CSimpleStringT@_W$0A@@ATL@@CAPAUCStringData@2@PAU32@@Z 00439430 f i AGKWindows:WindowsCore.obj
 0001:000384a0       ?Empty@?$CSimpleStringT@_W$0A@@ATL@@QAEXXZ 004394a0 f i AGKWindows:WindowsCore.obj
 0001:00038510       ?Fork@?$CSimpleStringT@_W$0A@@ATL@@AAEXH@Z 00439510 f i AGKWindows:WindowsCore.obj
 0001:000385a0       ?Reallocate@?$CSimpleStringT@_W$0A@@ATL@@AAEXH@Z 004395a0 f i AGKWindows:WindowsCore.obj
 0001:000385e0       ??$AtlAdd@K@ATL@@YAJPAKKK@Z 004395e0 f i AGKWindows:WindowsCore.obj
 0001:00038610       ??$AtlConvAllocMemory@_W@ATL@@YAXPAPA_WHPA_WH@Z 00439610 f i AGKWindows:WindowsCore.obj
 0001:000386a0       ?_AtlVerifyStackAvailable@_ATL_SAFE_ALLOCA_IMPL@ATL@@YA_NK@Z 004396a0 f i AGKWindows:WindowsCore.obj
 0001:00038760       ??_GBitmap@Gdiplus@@UAEPAXI@Z 00439760 f i AGKWindows:WindowsCore.obj
 0001:00038760       ??_EBitmap@Gdiplus@@UAEPAXI@Z 00439760 f i AGKWindows:WindowsCore.obj
 0001:00038760       ??_GImage@Gdiplus@@UAEPAXI@Z 00439760 f i AGKWindows:WindowsCore.obj
 0001:00038760       ??_EImage@Gdiplus@@UAEPAXI@Z 00439760 f i AGKWindows:WindowsCore.obj
 0001:00038790       ?Destroy@CImage@ATL@@QAEXXZ 00439790 f i AGKWindows:WindowsCore.obj
 0001:000387d0       ??YuString@AGK@@QAEAAV01@ABV01@@Z 004397d0 f i AGKWindows:WindowsCore.obj
 0001:00038800       ?EntryPoint@AGKThread@AGK@@SGIPAX@Z 00439800 f i AGKWindows:WindowsCore.obj
 0001:00038830       ??1?$CComPtr@UICreateDevEnum@@@ATL@@QAE@XZ 00439830 f i AGKWindows:WindowsCore.obj
 0001:00038830       ??1?$CComPtr@UIEnumMoniker@@@ATL@@QAE@XZ 00439830 f i AGKWindows:WindowsCore.obj
 0001:00038840       ??1DecodeHints@zxing@@QAE@XZ 00439840 f i AGKWindows:WindowsCore.obj
 0001:00038890       ?Allocate@?$CAtlSafeAllocBufferManager@VCCRTAllocator@ATL@@@_ATL_SAFE_ALLOCA_IMPL@ATL@@QAEPAXK@Z 00439890 f i AGKWindows:WindowsCore.obj
 0001:000388d0       ??1?$CA2WEX@$0IA@@ATL@@QAE@XZ 004398d0 f i AGKWindows:WindowsCore.obj
 0001:000388f0       ?Init@?$CA2WEX@$0IA@@ATL@@AAEXPBDI@Z 004398f0 f i AGKWindows:WindowsCore.obj
 0001:000389a0       ??0?$CSimpleStringT@_W$0A@@ATL@@QAE@PB_WHPAUIAtlStringMgr@1@@Z 004399a0 f i AGKWindows:WindowsCore.obj
 0001:00038a20       ?PrepareWrite2@?$CSimpleStringT@_W$0A@@ATL@@AAEXH@Z 00439a20 f i AGKWindows:WindowsCore.obj
 0001:00038a80       ?Clone@Image@Gdiplus@@UAEPAV12@XZ 00439a80 f i AGKWindows:WindowsCore.obj
 0001:00038ad0       ??1CImage@ATL@@UAE@XZ      00439ad0 f i AGKWindows:WindowsCore.obj
 0001:00038b60       ?CreateEx@CImage@ATL@@QAEHHHHKPBKK@Z 00439b60 f i AGKWindows:WindowsCore.obj
 0001:00038c90       ??1?$CSimpleStringT@_W$0A@@ATL@@QAE@XZ 00439c90 f i AGKWindows:WindowsCore.obj
 0001:00038c90       ??1?$CStringT@_WV?$StrTraitATL@_WV?$ChTraitsCRT@_W@ATL@@@ATL@@@ATL@@QAE@XZ 00439c90 f i AGKWindows:WindowsCore.obj
 0001:00038cb0       ??_ECImage@ATL@@UAEPAXI@Z  00439cb0 f i AGKWindows:WindowsCore.obj
 0001:00038cb0       ??_GCImage@ATL@@UAEPAXI@Z  00439cb0 f i AGKWindows:WindowsCore.obj
 0001:00038ce0       ?CreateFromGdiplusBitmap@CImage@ATL@@AAEJAAVBitmap@Gdiplus@@@Z 00439ce0 f i AGKWindows:WindowsCore.obj
 0001:000391a0       ?Mid@?$CStringT@_WV?$StrTraitATL@_WV?$ChTraitsCRT@_W@ATL@@@ATL@@@ATL@@QBE?AV12@HH@Z 0043a1a0 f i AGKWindows:WindowsCore.obj
 0001:00039260       ?SetString@?$CSimpleStringT@_W$0A@@ATL@@QAEXPB_WH@Z 0043a260 f i AGKWindows:WindowsCore.obj
 0001:00039310       ?Load@CImage@ATL@@QAEJPBD@Z 0043a310 f i AGKWindows:WindowsCore.obj
 0001:00039420       ?LoadStringA@?$CStringT@_WV?$StrTraitATL@_WV?$ChTraitsCRT@_W@ATL@@@ATL@@@ATL@@QAEHPAUHINSTANCE__@@I@Z 0043a420 f i AGKWindows:WindowsCore.obj
 0001:000394c0       ??0?$CStringT@_WV?$StrTraitATL@_WV?$ChTraitsCRT@_W@ATL@@@ATL@@@ATL@@QAE@PB_WPAUIAtlStringMgr@1@@Z 0043a4c0 f i AGKWindows:WindowsCore.obj
 0001:00039580       ?Tokenize@?$CStringT@_WV?$StrTraitATL@_WV?$ChTraitsCRT@_W@ATL@@@ATL@@@ATL@@QBE?AV12@PB_WAAH@Z 0043a580 f i AGKWindows:WindowsCore.obj
 0001:000396b0       ?FindCodecForExtension@CImage@ATL@@CA?AU_GUID@@PBDPBVImageCodecInfo@Gdiplus@@I@Z 0043a6b0 f i AGKWindows:WindowsCore.obj
 0001:00039a20       ?Save@CImage@ATL@@QBEJPBDABU_GUID@@@Z 0043aa20 f i AGKWindows:WindowsCore.obj
 0001:00039c90       ??0cFile@AGK@@QAE@XZ       0043ac90 f   AGKWindows:cFile.obj
 0001:00039ca0       ??1cFile@AGK@@QAE@XZ       0043aca0 f   AGKWindows:cFile.obj
 0001:00039cb0       ?IsOpen@cFile@AGK@@QAE_NXZ 0043acb0 f   AGKWindows:cFile.obj
 0001:00039cd0       ??0uString@AGK@@QAE@XZ     0043acd0 f   AGKWindows:uString.obj
 0001:00039ce0       ?Reset@uString@AGK@@IAEXXZ 0043ace0 f   AGKWindows:uString.obj
 0001:00039d00       ?SetStr@uString@AGK@@QAEXPBD@Z 0043ad00 f   AGKWindows:uString.obj
 0001:00039da0       ?CompareTo@uString@AGK@@QBEHPBD@Z 0043ada0 f   AGKWindows:uString.obj
 0001:00039df0       ?Prepend@uString@AGK@@QAEAAV12@PBD@Z 0043adf0 f   AGKWindows:uString.obj
 0001:00039eb0       ?Append@uString@AGK@@QAEAAV12@PBD@Z 0043aeb0 f   AGKWindows:uString.obj
 0001:00039fa0       ?Append@uString@AGK@@QAEAAV12@D@Z 0043afa0 f   AGKWindows:uString.obj
 0001:0003a030       ?AppendN@uString@AGK@@QAEAAV12@PBDI@Z 0043b030 f   AGKWindows:uString.obj
 0001:0003a0e0       ?Append@uString@AGK@@QAEAAV12@H@Z 0043b0e0 f   AGKWindows:uString.obj
 0001:0003a130       ?Append@uString@AGK@@QAEAAV12@M@Z 0043b130 f   AGKWindows:uString.obj
 0001:0003a180       ?Append@uString@AGK@@QAEAAV12@I@Z 0043b180 f   AGKWindows:uString.obj
 0001:0003a1d0       ?InsertCharAt@uString@AGK@@QAEAAV12@ID@Z 0043b1d0 f   AGKWindows:uString.obj
 0001:0003a2c0       ?DeleteCharAt@uString@AGK@@QAEAAV12@I@Z 0043b2c0 f   AGKWindows:uString.obj
 0001:0003a2f0       ?Format@uString@AGK@@QAAAAV12@PBDZZ 0043b2f0 f   AGKWindows:uString.obj
 0001:0003a390       ?Strip@uString@AGK@@QAEAAV12@PBD@Z 0043b390 f   AGKWindows:uString.obj
 0001:0003a470       ?Trim@uString@AGK@@QAEAAV12@PBD@Z 0043b470 f   AGKWindows:uString.obj
 0001:0003a590       ?Replace@uString@AGK@@QAEAAV12@DD@Z 0043b590 f   AGKWindows:uString.obj
 0001:0003a5e0       ?Upper@uString@AGK@@QAEAAV12@XZ 0043b5e0 f   AGKWindows:uString.obj
 0001:0003a610       ?Lower@uString@AGK@@QAEAAV12@XZ 0043b610 f   AGKWindows:uString.obj
 0001:0003a640       ?CharAt@uString@AGK@@QBEDI@Z 0043b640 f   AGKWindows:uString.obj
 0001:0003a660       ?Find@uString@AGK@@QBEHD@Z 0043b660 f   AGKWindows:uString.obj
 0001:0003a6b0       ?RevFind@uString@AGK@@QBEHD@Z 0043b6b0 f   AGKWindows:uString.obj
 0001:0003a700       ?Trunc@uString@AGK@@QAEXD@Z 0043b700 f   AGKWindows:uString.obj
 0001:0003a750       ?Trunc2@uString@AGK@@QAEXH@Z 0043b750 f   AGKWindows:uString.obj
 0001:0003a7a0       ?FindStr@uString@AGK@@QBEHPBD@Z 0043b7a0 f   AGKWindows:uString.obj
 0001:0003a7e0       ?Count@uString@AGK@@QAEHD@Z 0043b7e0 f   AGKWindows:uString.obj
 0001:0003a820       ?SubString@uString@AGK@@QBEXAAV12@HH@Z 0043b820 f   AGKWindows:uString.obj
 0001:0003a890       ?CountTokens@uString@AGK@@QAEHPBD@Z 0043b890 f   AGKWindows:uString.obj
 0001:0003a930       ?GetToken@uString@AGK@@QAEPADPBDH@Z 0043b930 f   AGKWindows:uString.obj
 0001:0003aa60       ??0uString@AGK@@QAE@PBDI@Z 0043ba60 f   AGKWindows:uString.obj
 0001:0003aaa0       ??0uString@AGK@@QAE@ABV01@@Z 0043baa0 f   AGKWindows:uString.obj
 0001:0003aae0       ??1uString@AGK@@QAE@XZ     0043bae0 f   AGKWindows:uString.obj
 0001:0003ab00       ?ReplaceStr@uString@AGK@@QAEAAV12@PBD0@Z 0043bb00 f   AGKWindows:uString.obj
 0001:0003ac30       ?SetDefaultMinFilter@cText@AGK@@SAXI@Z 0043bc30 f   AGKWindows:cText.obj
 0001:0003ac50       ?SetDefaultMagFilter@cText@AGK@@SAXI@Z 0043bc50 f   AGKWindows:cText.obj
 0001:0003ac70       ?SetDefaultExtendedFontImage@cText@AGK@@SAXPAVcImage@2@@Z 0043bc70 f   AGKWindows:cText.obj
 0001:0003ae40       ?UpdateManager@cText@AGK@@IAEXXZ 0043be40 f   AGKWindows:cText.obj
 0001:0003ae80       ?InternalRefresh@cText@AGK@@IAEXXZ 0043be80 f   AGKWindows:cText.obj
 0001:0003b1c0       ?SetPosition@cText@AGK@@QAEXMM@Z 0043c1c0 f   AGKWindows:cText.obj
 0001:0003bd30       ?SetX@cText@AGK@@QAEXM@Z   0043cd30 f   AGKWindows:cText.obj
 0001:0003bd50       ?SetY@cText@AGK@@QAEXM@Z   0043cd50 f   AGKWindows:cText.obj
 0001:0003bd70       ?SetAngle@cText@AGK@@QAEXM@Z 0043cd70 f   AGKWindows:cText.obj
 0001:0003bda0       ?SetAngleRad@cText@AGK@@QAEXM@Z 0043cda0 f   AGKWindows:cText.obj
 0001:0003bdd0       ?SetSize@cText@AGK@@QAEXM@Z 0043cdd0 f   AGKWindows:cText.obj
 0001:0003be40       ?SetMaxWidth@cText@AGK@@QAEXM@Z 0043ce40 f   AGKWindows:cText.obj
 0001:0003be70       ?SetSpacing@cText@AGK@@QAEXM@Z 0043ce70 f   AGKWindows:cText.obj
 0001:0003bea0       ?SetLineSpacing@cText@AGK@@QAEXM@Z 0043cea0 f   AGKWindows:cText.obj
 0001:0003bed0       ?SetAlignment@cText@AGK@@QAEXH@Z 0043ced0 f   AGKWindows:cText.obj
 0001:0003bf10       ?SetDepth@cText@AGK@@QAEXH@Z 0043cf10 f   AGKWindows:cText.obj
 0001:0003bf80       ?SetVisible@cText@AGK@@QAEX_N@Z 0043cf80 f   AGKWindows:cText.obj
 0001:0003bfb0       ?SetColor@cText@AGK@@QAEXIIII@Z 0043cfb0 f   AGKWindows:cText.obj
 0001:0003c040       ?SetRed@cText@AGK@@QAEXI@Z 0043d040 f   AGKWindows:cText.obj
 0001:0003c080       ?SetGreen@cText@AGK@@QAEXI@Z 0043d080 f   AGKWindows:cText.obj
 0001:0003c0c0       ?SetBlue@cText@AGK@@QAEXI@Z 0043d0c0 f   AGKWindows:cText.obj
 0001:0003c100       ?SetAlpha@cText@AGK@@QAEXI@Z 0043d100 f   AGKWindows:cText.obj
 0001:0003c140       ?SetTransparency@cText@AGK@@QAEXH@Z 0043d140 f   AGKWindows:cText.obj
 0001:0003c1a0       ?SetCharPosition@cText@AGK@@QAEXIMM@Z 0043d1a0 f   AGKWindows:cText.obj
 0001:0003c1e0       ?SetCharX@cText@AGK@@QAEXIM@Z 0043d1e0 f   AGKWindows:cText.obj
 0001:0003c210       ?SetCharY@cText@AGK@@QAEXIM@Z 0043d210 f   AGKWindows:cText.obj
 0001:0003c240       ?SetCharAngle@cText@AGK@@QAEXIM@Z 0043d240 f   AGKWindows:cText.obj
 0001:0003c270       ?SetCharAngleRad@cText@AGK@@QAEXIM@Z 0043d270 f   AGKWindows:cText.obj
 0001:0003c2a0       ?SetCharColor@cText@AGK@@QAEXIIIII@Z 0043d2a0 f   AGKWindows:cText.obj
 0001:0003c2d0       ?SetCharRed@cText@AGK@@QAEXII@Z 0043d2d0 f   AGKWindows:cText.obj
 0001:0003c2f0       ?SetCharGreen@cText@AGK@@QAEXII@Z 0043d2f0 f   AGKWindows:cText.obj
 0001:0003c310       ?SetCharBlue@cText@AGK@@QAEXII@Z 0043d310 f   AGKWindows:cText.obj
 0001:0003c330       ?SetCharAlpha@cText@AGK@@QAEXII@Z 0043d330 f   AGKWindows:cText.obj
 0001:0003c350       ?GetCharX@cText@AGK@@QAEMI@Z 0043d350 f   AGKWindows:cText.obj
 0001:0003c380       ?GetCharY@cText@AGK@@QAEMI@Z 0043d380 f   AGKWindows:cText.obj
 0001:0003c3b0       ?GetCharWidthA@cText@AGK@@QAEMI@Z 0043d3b0 f   AGKWindows:cText.obj
 0001:0003c3d0       ?GetCharAngle@cText@AGK@@QAEMI@Z 0043d3d0 f   AGKWindows:cText.obj
 0001:0003c3f0       ?GetCharAngleRad@cText@AGK@@QAEMI@Z 0043d3f0 f   AGKWindows:cText.obj
 0001:0003c410       ?GetCharRed@cText@AGK@@QAEII@Z 0043d410 f   AGKWindows:cText.obj
 0001:0003c430       ?GetCharGreen@cText@AGK@@QAEII@Z 0043d430 f   AGKWindows:cText.obj
 0001:0003c450       ?GetCharBlue@cText@AGK@@QAEII@Z 0043d450 f   AGKWindows:cText.obj
 0001:0003c470       ?GetCharAlpha@cText@AGK@@QAEII@Z 0043d470 f   AGKWindows:cText.obj
 0001:0003c490       ?GetChar@cText@AGK@@QAEEI@Z 0043d490 f   AGKWindows:cText.obj
 0001:0003c4b0       ?FixToScreen@cText@AGK@@QAEXH@Z 0043d4b0 f   AGKWindows:cText.obj
 0001:0003c4f0       ?GetX@cText@AGK@@QAEMXZ    0043d4f0 f   AGKWindows:cText.obj
 0001:0003c500       ?GetY@cText@AGK@@QAEMXZ    0043d500 f   AGKWindows:cText.obj
 0001:0003c510       ?GetAngle@cText@AGK@@QAEMXZ 0043d510 f   AGKWindows:cText.obj
 0001:0003c530       ?GetAngleRad@cText@AGK@@QAEMXZ 0043d530 f   AGKWindows:cText.obj
 0001:0003c540       ?GetLength@cText@AGK@@QAEIXZ 0043d540 f   AGKWindows:cText.obj
 0001:0003c550       ?GetHitTest@cText@AGK@@QAE_NMM@Z 0043d550 f   AGKWindows:cText.obj
 0001:0003c650       ?SetScissor@cText@AGK@@QAEXMMMM@Z 0043d650 f   AGKWindows:cText.obj
 0001:0003c710       ?GetClipValues@cText@AGK@@QAEXAAH000@Z 0043d710 f   AGKWindows:cText.obj
 0001:0003c820       ?Update@cText@AGK@@QAEXM@Z 0043d820 f   AGKWindows:cText.obj
 0001:0003c850       ?SetDefaultFontImage@cText@AGK@@SAXPAVcImage@2@@Z 0043d850 f   AGKWindows:cText.obj
 0001:0003ca10       ??0cText@AGK@@QAE@H@Z      0043da10 f   AGKWindows:cText.obj
 0001:0003d080       ??1cText@AGK@@QAE@XZ       0043e080 f   AGKWindows:cText.obj
 0001:0003d1f0       ?SetSpriteManager@cText@AGK@@QAEXPAVcSpriteMgr@2@@Z 0043e1f0 f   AGKWindows:cText.obj
 0001:0003d240       ?SetString@cText@AGK@@QAEXPBD@Z 0043e240 f   AGKWindows:cText.obj
 0001:0003d7d0       ?Refresh@cText@AGK@@QAEXXZ 0043e7d0 f   AGKWindows:cText.obj
 0001:0003d800       ?ChangedAspect@cText@AGK@@QAEXXZ 0043e800 f   AGKWindows:cText.obj
 0001:0003d810       ?SetFontImage@cText@AGK@@QAEXPAVcImage@2@@Z 0043e810 f   AGKWindows:cText.obj
 0001:0003d9d0       ?SetExtendedFontImage@cText@AGK@@QAEXPAVcImage@2@@Z 0043e9d0 f   AGKWindows:cText.obj
 0001:0003db80       ?Draw@cText@AGK@@QAEXXZ    0043eb80 f   AGKWindows:cText.obj
 0001:0003dc30       ?Start@AGKThread@AGK@@UAEXXZ 0043ec30 f i AGKWindows:Network.obj
 0001:0003dc50       ?Stop@AGKThread@AGK@@UAEXXZ 0043ec50 f i AGKWindows:Network.obj
 0001:0003dc60       ??1cLock@AGK@@QAE@XZ       0043ec60 f i AGKWindows:Network.obj
 0001:0003dc70       ?GetProgress@cFileSender@AGK@@QAEMXZ 0043ec70 f   AGKWindows:Network.obj
 0001:0003dd00       ?Reset@cFileSender@AGK@@QAEXI@Z 0043ed00 f   AGKWindows:Network.obj
 0001:0003de50       ?ConnectTo@cFileSender@AGK@@QAE_NPBDII@Z 0043ee50 f   AGKWindows:Network.obj
 0001:0003df60       ?SetReceiver@cFileSender@AGK@@QAEXPAVAGKSocket@2@@Z 0043ef60 f   AGKWindows:Network.obj
 0001:0003e060       ?AddFile@cFileSender@AGK@@QAE_NPBD@Z 0043f060 f   AGKWindows:Network.obj
 0001:0003e150       ?Stop@cFileSender@AGK@@UAEXXZ 0043f150 f   AGKWindows:Network.obj
 0001:0003e170       ?GetNumClients@cFileBroadcaster@AGK@@QAEIXZ 0043f170 f   AGKWindows:Network.obj
 0001:0003e1d0       ?Start@cFileBroadcaster@AGK@@UAEXXZ 0043f1d0 f   AGKWindows:Network.obj
 0001:0003e290       ?StopBroadcasting@cFileBroadcaster@AGK@@QAEXXZ 0043f290 f   AGKWindows:Network.obj
 0001:0003e2b0       ?ResumeBroadcasting@cFileBroadcaster@AGK@@QAEXXZ 0043f2b0 f   AGKWindows:Network.obj
 0001:0003e2d0       ?AddFile@cFileBroadcaster@AGK@@QAE_NPBD@Z 0043f2d0 f   AGKWindows:Network.obj
 0001:0003e3d0       ?Stop@cFileReceiver@AGK@@UAEXXZ 0043f3d0 f   AGKWindows:Network.obj
 0001:0003e3f0       ?GetProgress@cFileReceiver@AGK@@QAEMXZ 0043f3f0 f   AGKWindows:Network.obj
 0001:0003e460       ?ConnectTo@cFileReceiver@AGK@@QAE_NPBDII@Z 0043f460 f   AGKWindows:Network.obj
 0001:0003e570       ?SetSender@cFileReceiver@AGK@@QAEXPAVAGKSocket@2@@Z 0043f570 f   AGKWindows:Network.obj
 0001:0003e670       ?Reset@cFileReceiver@AGK@@QAEXXZ 0043f670 f   AGKWindows:Network.obj
 0001:0003e720       ?Run@cFileReceiver@AGK@@MAEIXZ 0043f720 f   AGKWindows:Network.obj
 0001:0003ece0       ??0AGKPacket@AGK@@QAE@XZ   0043fce0 f   AGKWindows:Network.obj
 0001:0003ecf0       ?AddData@AGKPacket@AGK@@QAEXPBDI@Z 0043fcf0 f   AGKWindows:Network.obj
 0001:0003edb0       ?AddChar@AGKPacket@AGK@@QAEXD@Z 0043fdb0 f   AGKWindows:Network.obj
 0001:0003ee50       ?AddUInt@AGKPacket@AGK@@QAEXI@Z 0043fe50 f   AGKWindows:Network.obj
 0001:0003ef00       ?AddInt@AGKPacket@AGK@@QAEXH@Z 0043ff00 f   AGKWindows:Network.obj
 0001:0003efb0       ?AddFloat@AGKPacket@AGK@@QAEXM@Z 0043ffb0 f   AGKWindows:Network.obj
 0001:0003f050       ?GetPos@AGKPacket@AGK@@QBEIXZ 00440050 f   AGKWindows:Network.obj
 0001:0003f060       ?SetPos@AGKPacket@AGK@@QAEXI@Z 00440060 f   AGKWindows:Network.obj
 0001:0003f0f0       ?GetData@AGKPacket@AGK@@QAEIPADI@Z 004400f0 f   AGKWindows:Network.obj
 0001:0003f150       ?GetChar@AGKPacket@AGK@@QAEDXZ 00440150 f   AGKWindows:Network.obj
 0001:0003f170       ?GetInt@AGKPacket@AGK@@QAEHXZ 00440170 f   AGKWindows:Network.obj
 0001:0003f1a0       ?GetUInt@AGKPacket@AGK@@QAEIXZ 004401a0 f   AGKWindows:Network.obj
 0001:0003f1d0       ?GetFloat@AGKPacket@AGK@@QAEMXZ 004401d0 f   AGKWindows:Network.obj
 0001:0003f200       ?GetVariableType@cNetworkClient@AGK@@QAEII@Z 00440200 f   AGKWindows:Network.obj
 0001:0003f250       ?SetVariableI@cNetworkClient@AGK@@QAEXIHH@Z 00440250 f   AGKWindows:Network.obj
 0001:0003f360       ?SetVariableF@cNetworkClient@AGK@@QAEXIMH@Z 00440360 f   AGKWindows:Network.obj
 0001:0003f480       ?SendChangesClient@cNetwork@AGK@@IAEXXZ 00440480 f   AGKWindows:Network.obj
 0001:0003f780       ?Stop@cNetwork@AGK@@UAEXXZ 00440780 f   AGKWindows:Network.obj
 0001:0003f800       ?NoMoreConnections@cNetwork@AGK@@QAEXXZ 00440800 f   AGKWindows:Network.obj
 0001:0003f830       ?CloseNetwork@cNetwork@AGK@@QAEXXZ 00440830 f   AGKWindows:Network.obj
 0001:0003f860       ?SetLatency@cNetwork@AGK@@QAEXI@Z 00440860 f   AGKWindows:Network.obj
 0001:0003f890       ?GetNumClients@cNetwork@AGK@@QAEIXZ 00440890 f   AGKWindows:Network.obj
 0001:0003f8c0       ?GetNumActiveClients@cNetwork@AGK@@QAEIXZ 004408c0 f   AGKWindows:Network.obj
 0001:0003f940       ?GetFirstClient@cNetwork@AGK@@QAEIXZ 00440940 f   AGKWindows:Network.obj
 0001:0003fa10       ?GetNextClient@cNetwork@AGK@@QAEIXZ 00440a10 f   AGKWindows:Network.obj
 0001:0003fa50       ?GetMessage@cNetwork@AGK@@QAEPAVcNetworkMessage@2@XZ 00440a50 f   AGKWindows:Network.obj
 0001:0003fab0       ??0cFileSender@AGK@@QAE@I@Z 00440ab0 f   AGKWindows:Network.obj
 0001:0003fbf0       ??1cFileSender@AGK@@UAE@XZ 00440bf0 f   AGKWindows:Network.obj
 0001:0003fce0       ?GetRemoteName@cFileSender@AGK@@QAEHAAVuString@2@@Z 00440ce0 f   AGKWindows:Network.obj
 0001:0003fd70       ?GetCurrentFile@cFileSender@AGK@@QAEHAAVuString@2@@Z 00440d70 f   AGKWindows:Network.obj
 0001:0003fdd0       ?Run@cFileSender@AGK@@MAEIXZ 00440dd0 f   AGKWindows:Network.obj
 0001:00040240       ?GetProgress@cFileBroadcaster@AGK@@QAEHIPAVuString@2@0PAM@Z 00441240 f   AGKWindows:Network.obj
 0001:00040390       ?Stop@cFileBroadcaster@AGK@@UAEXXZ 00441390 f   AGKWindows:Network.obj
 0001:00040430       ?Run@cFileBroadcaster@AGK@@MAEIXZ 00441430 f   AGKWindows:Network.obj
 0001:000405d0       ??0cFileReceiver@AGK@@QAE@XZ 004415d0 f   AGKWindows:Network.obj
 0001:00040620       ??1cFileReceiver@AGK@@UAE@XZ 00441620 f   AGKWindows:Network.obj
 0001:000406d0       ?Copy@AGKPacket@AGK@@QAEXPBV12@@Z 004416d0 f   AGKWindows:Network.obj
 0001:00040710       ?AddString@AGKPacket@AGK@@QAEXPBD@Z 00441710 f   AGKWindows:Network.obj
 0001:000407d0       ?GetString@AGKPacket@AGK@@QAEHAAVuString@2@@Z 004417d0 f   AGKWindows:Network.obj
 0001:00040850       ??0cFileBroadcaster@AGK@@QAE@IPBDII@Z 00441850 f   AGKWindows:Network.obj
 0001:000409f0       ??1cFileBroadcaster@AGK@@UAE@XZ 004419f0 f   AGKWindows:Network.obj
 0001:00040af0       ?GetVariableI@cNetworkClient@AGK@@QAEHPBD_N@Z 00441af0 f   AGKWindows:Network.obj
 0001:00040bd0       ?GetVariableF@cNetworkClient@AGK@@QAEMPBD_N@Z 00441bd0 f   AGKWindows:Network.obj
 0001:00040cb0       ?GetVariableType@cNetworkClient@AGK@@QAEIPBD@Z 00441cb0 f   AGKWindows:Network.obj
 0001:00040d00       ?GetVariableExists@cNetworkClient@AGK@@QAEIPBD@Z 00441d00 f   AGKWindows:Network.obj
 0001:00040d50       ?SendChangesServer@cNetwork@AGK@@IAEXXZ 00441d50 f   AGKWindows:Network.obj
 0001:00041280       ?GetClientDisconnected@cNetwork@AGK@@QAEII@Z 00442280 f   AGKWindows:Network.obj
 0001:00041320       ?DeleteDisconnectedClient@cNetwork@AGK@@QAEXI@Z 00442320 f   AGKWindows:Network.obj
 0001:00041410       ?GetClientName@cNetwork@AGK@@QAEHIAAVuString@2@@Z 00442410 f   AGKWindows:Network.obj
 0001:00041520       ?GetClientPing@cNetwork@AGK@@QAEMI@Z 00442520 f   AGKWindows:Network.obj
 0001:000415b0       ?GetClientVariableI@cNetwork@AGK@@QAEHIPBD@Z 004425b0 f   AGKWindows:Network.obj
 0001:000416a0       ?GetClientVariableF@cNetwork@AGK@@QAEMIPBD@Z 004426a0 f   AGKWindows:Network.obj
 0001:00041790       ?SendMessage@cNetwork@AGK@@QAEXIPAVcNetworkMessage@2@@Z 00442790 f   AGKWindows:Network.obj
 0001:000418f0       ?SetClientUserData@cNetwork@AGK@@QAEXIIH@Z 004428f0 f   AGKWindows:Network.obj
 0001:000419e0       ?GetClientUserData@cNetwork@AGK@@QAEHII@Z 004429e0 f   AGKWindows:Network.obj
 0001:00041b10       ?SetVariableI@cNetworkClient@AGK@@QAEXPBDHH@Z 00442b10 f   AGKWindows:Network.obj
 0001:00041ca0       ?SetVariableF@cNetworkClient@AGK@@QAEXPBDMH@Z 00442ca0 f   AGKWindows:Network.obj
 0001:00041e40       ??0cNetwork@AGK@@QAE@XZ    00442e40 f   AGKWindows:Network.obj
 0001:00041f80       ?CheckMessagesServer@cNetwork@AGK@@IAEXXZ 00442f80 f   AGKWindows:Network.obj
 0001:00042470       ?SetLocalVariableI@cNetwork@AGK@@QAEXPBDHH@Z 00443470 f   AGKWindows:Network.obj
 0001:00042490       ?SetLocalVariableF@cNetwork@AGK@@QAEXPBDMH@Z 00443490 f   AGKWindows:Network.obj
 0001:000424c0       ??0cNetworkClient@AGK@@QAE@XZ 004434c0 f   AGKWindows:Network.obj
 0001:00042580       ??1cNetworkClient@AGK@@QAE@XZ 00443580 f   AGKWindows:Network.obj
 0001:00042650       ?Reset@cNetwork@AGK@@QAEXXZ 00443650 f   AGKWindows:Network.obj
 0001:000428d0       ?NewClient@cNetwork@AGK@@IAEXPAVAGKSocket@2@@Z 004438d0 f   AGKWindows:Network.obj
 0001:00042d40       ?SendDisconnects@cNetwork@AGK@@IAEXXZ 00443d40 f   AGKWindows:Network.obj
 0001:00042f90       ?UpdateServer@cNetwork@AGK@@IAEXXZ 00443f90 f   AGKWindows:Network.obj
 0001:00043000       ?ConnectClient@cNetwork@AGK@@IAEXXZ 00444000 f   AGKWindows:Network.obj
 0001:00043640       ?CheckMessagesClient@cNetwork@AGK@@IAEXXZ 00444640 f   AGKWindows:Network.obj
 0001:00043f60       ?UpdateClient@cNetwork@AGK@@IAEXXZ 00444f60 f   AGKWindows:Network.obj
 0001:00043f80       ?Run@cNetwork@AGK@@MAEIXZ  00444f80 f   AGKWindows:Network.obj
 0001:00044070       ?HostNetwork@cNetwork@AGK@@QAEXPBD0I@Z 00445070 f   AGKWindows:Network.obj
 0001:00044250       ?JoinCommon@cNetwork@AGK@@IAEXXZ 00445250 f   AGKWindows:Network.obj
 0001:00044310       ?JoinNetwork@cNetwork@AGK@@QAEXPBD0@Z 00445310 f   AGKWindows:Network.obj
 0001:000443a0       ?JoinNetwork@cNetwork@AGK@@QAEXPBDI0@Z 004453a0 f   AGKWindows:Network.obj
 0001:000443f0       ?Update@cNetwork@AGK@@QAEXXZ 004453f0 f   AGKWindows:Network.obj
 0001:00044460       ??1cNetwork@AGK@@UAE@XZ    00445460 f   AGKWindows:Network.obj
 0001:00044770       ??0?$cHashedList@VcNetworkVariable@AGK@@@AGK@@QAE@I@Z 00445770 f i AGKWindows:Network.obj
 0001:00044770       ??0?$cHashedList@I@AGK@@QAE@I@Z 00445770 f i AGKWindows:Network.obj
 0001:00044800       ??_EAGKThread@AGK@@UAEPAXI@Z 00445800 f i AGKWindows:Network.obj
 0001:00044800       ??_GAGKThread@AGK@@UAEPAXI@Z 00445800 f i AGKWindows:Network.obj
 0001:00044800       ??_EBroadcaster@AGK@@UAEPAXI@Z 00445800 f i AGKWindows:WindowsNetwork.obj
 0001:00044800       ??_GBroadcaster@AGK@@UAEPAXI@Z 00445800 f i AGKWindows:WindowsNetwork.obj
 0001:00044840       ??1AGKThread@AGK@@UAE@XZ   00445840 f i AGKWindows:Network.obj
 0001:00044840       ??1Broadcaster@AGK@@UAE@XZ 00445840 f i AGKWindows:Network.obj
 0001:00044870       ?ClearAll@?$cHashedList@I@AGK@@QAEXXZ 00445870 f i AGKWindows:Network.obj
 0001:00044870       ?ClearAll@?$cHashedList@VcNetworkVariable@AGK@@@AGK@@QAEXXZ 00445870 f i AGKWindows:Network.obj
 0001:000448f0       ??_GcFileSender@AGK@@UAEPAXI@Z 004458f0 f i AGKWindows:Network.obj
 0001:000448f0       ??_EcFileSender@AGK@@UAEPAXI@Z 004458f0 f i AGKWindows:Network.obj
 0001:00044920       ??_GcFileReceiver@AGK@@UAEPAXI@Z 00445920 f i AGKWindows:Network.obj
 0001:00044920       ??_EcFileReceiver@AGK@@UAEPAXI@Z 00445920 f i AGKWindows:Network.obj
 0001:00044950       ?AddItem@?$cHashedList@VcNetworkVariable@AGK@@@AGK@@QAEXPAVcNetworkVariable@2@PBD@Z 00445950 f i AGKWindows:Network.obj
 0001:000449e0       ??1?$cHashedList@I@AGK@@QAE@XZ 004459e0 f i AGKWindows:Network.obj
 0001:000449e0       ??1?$cHashedList@VcNetworkVariable@AGK@@@AGK@@QAE@XZ 004459e0 f i AGKWindows:Network.obj
 0001:00044a00       ?RemoveItem@?$cHashedList@I@AGK@@QAEPAII@Z 00445a00 f i AGKWindows:Network.obj
 0001:00044ae0       ??_EcFileBroadcaster@AGK@@UAEPAXI@Z 00445ae0 f i AGKWindows:Network.obj
 0001:00044ae0       ??_GcFileBroadcaster@AGK@@UAEPAXI@Z 00445ae0 f i AGKWindows:Network.obj
 0001:00044b10       ??_GcNetwork@AGK@@UAEPAXI@Z 00445b10 f i AGKWindows:Network.obj
 0001:00044b10       ??_EcNetwork@AGK@@UAEPAXI@Z 00445b10 f i AGKWindows:Network.obj
 0001:00044b40       ?Zero@cVirtualButton@AGK@@IAEXXZ 00445b40 f   AGKWindows:Joystick.obj
 0001:00044b80       ??0cVirtualButton@AGK@@QAE@MMM@Z 00445b80 f   AGKWindows:Joystick.obj
 0001:00044e40       ?SetPosition@cVirtualButton@AGK@@QAEXMM@Z 00445e40 f   AGKWindows:Joystick.obj
 0001:00044e60       ?SetSize@cVirtualButton@AGK@@QAEXM@Z 00445e60 f   AGKWindows:Joystick.obj
 0001:00044e90       ?SetColor@cVirtualButton@AGK@@QAEXIII@Z 00445e90 f   AGKWindows:Joystick.obj
 0001:00044ee0       ?SetAlpha@cVirtualButton@AGK@@QAEXI@Z 00445ee0 f   AGKWindows:Joystick.obj
 0001:00044f00       ?SetActive@cVirtualButton@AGK@@QAEX_N@Z 00445f00 f   AGKWindows:Joystick.obj
 0001:00044f10       ?SetVisible@cVirtualButton@AGK@@QAEX_N@Z 00445f10 f   AGKWindows:Joystick.obj
 0001:00044f20       ?SetUpImage@cVirtualButton@AGK@@QAEXPAVcImage@2@@Z 00445f20 f   AGKWindows:Joystick.obj
 0001:00045030       ?SetDownImage@cVirtualButton@AGK@@QAEXPAVcImage@2@@Z 00446030 f   AGKWindows:Joystick.obj
 0001:00045140       ?SetText@cVirtualButton@AGK@@QAEXPBD@Z 00446140 f   AGKWindows:Joystick.obj
 0001:000451d0       ?Update@cVirtualButton@AGK@@QAEXXZ 004461d0 f   AGKWindows:Joystick.obj
 0001:00045220       ?GetHitTest@cVirtualButton@AGK@@QAE_NMM@Z 00446220 f   AGKWindows:Joystick.obj
 0001:000452b0       ?Draw@cVirtualButton@AGK@@QAEXXZ 004462b0 f   AGKWindows:Joystick.obj
 0001:000453a0       ?Zero@cVirtualJoystick@AGK@@IAEXXZ 004463a0 f   AGKWindows:Joystick.obj
 0001:000453d0       ??0cVirtualJoystick@AGK@@QAE@MMM@Z 004463d0 f   AGKWindows:Joystick.obj
 0001:00045690       ??1cVirtualJoystick@AGK@@QAE@XZ 00446690 f   AGKWindows:Joystick.obj
 0001:000456d0       ?SetPosition@cVirtualJoystick@AGK@@QAEXMM@Z 004466d0 f   AGKWindows:Joystick.obj
 0001:000456f0       ?SetSize@cVirtualJoystick@AGK@@QAEXM@Z 004466f0 f   AGKWindows:Joystick.obj
 0001:00045720       ?SetAlpha@cVirtualJoystick@AGK@@QAEXII@Z 00446720 f   AGKWindows:Joystick.obj
 0001:00045750       ?SetActive@cVirtualJoystick@AGK@@QAEX_N@Z 00446750 f   AGKWindows:Joystick.obj
 0001:00045760       ?SetVisible@cVirtualJoystick@AGK@@QAEX_N@Z 00446760 f   AGKWindows:Joystick.obj
 0001:00045770       ?SetInnerImage@cVirtualJoystick@AGK@@QAEXPAVcImage@2@@Z 00446770 f   AGKWindows:Joystick.obj
 0001:00045890       ?SetOuterImage@cVirtualJoystick@AGK@@QAEXPAVcImage@2@@Z 00446890 f   AGKWindows:Joystick.obj
 0001:000459a0       ?Update@cVirtualJoystick@AGK@@QAEXXZ 004469a0 f   AGKWindows:Joystick.obj
 0001:00045aa0       ?GetX@cVirtualJoystick@AGK@@QAEMXZ 00446aa0 f   AGKWindows:Joystick.obj
 0001:00045ad0       ?GetY@cVirtualJoystick@AGK@@QAEMXZ 00446ad0 f   AGKWindows:Joystick.obj
 0001:00045b00       ?GetHitTest@cVirtualJoystick@AGK@@QAE_NMM@Z 00446b00 f   AGKWindows:Joystick.obj
 0001:00045b90       ?Draw@cVirtualJoystick@AGK@@QAEXXZ 00446b90 f   AGKWindows:Joystick.obj
 0001:00045cb0       ?Zero@cJoystick@AGK@@IAEXXZ 00446cb0 f   AGKWindows:Joystick.obj
 0001:00045d00       ??0cJoystick@AGK@@QAE@PAX@Z 00446d00 f   AGKWindows:Joystick.obj
 0001:00045d60       ?GetX@cJoystick@AGK@@QAEMXZ 00446d60 f   AGKWindows:Joystick.obj
 0001:00045d90       ?GetY@cJoystick@AGK@@QAEMXZ 00446d90 f   AGKWindows:Joystick.obj
 0001:00045dc0       ?GetZ@cJoystick@AGK@@QAEMXZ 00446dc0 f   AGKWindows:Joystick.obj
 0001:00045df0       ?GetRX@cJoystick@AGK@@QAEMXZ 00446df0 f   AGKWindows:Joystick.obj
 0001:00045e20       ?GetRY@cJoystick@AGK@@QAEMXZ 00446e20 f   AGKWindows:Joystick.obj
 0001:00045e50       ?GetRZ@cJoystick@AGK@@QAEMXZ 00446e50 f   AGKWindows:Joystick.obj
 0001:00045e80       ?Update@cJoystick@AGK@@QAEXXZ 00446e80 f   AGKWindows:Joystick.obj
 0001:00045ea0       ??1cVirtualButton@AGK@@QAE@XZ 00446ea0 f   AGKWindows:Joystick.obj
 0001:00045ef0       ??0b2Draw@@QAE@XZ          00446ef0 f   AGKWindows:b2Draw.obj
 0001:00045f00       ?SetFlags@b2Draw@@QAEXI@Z  00446f00 f   AGKWindows:b2Draw.obj
 0001:00045f10       ?GetFlags@b2Draw@@QBEIXZ   00446f10 f   AGKWindows:b2Draw.obj
 0001:00045f20       ?AppendFlags@b2Draw@@QAEXI@Z 00446f20 f   AGKWindows:b2Draw.obj
 0001:00045f30       ?ClearFlags@b2Draw@@QAEXI@Z 00446f30 f   AGKWindows:b2Draw.obj
 0001:00045f40       ?Reset@cImage@AGK@@IAEXXZ  00446f40 f   AGKWindows:cImage.obj
 0001:00045fc0       ?SetCompressedPixelData@cImage@AGK@@IAEXPAEI@Z 00446fc0 f   AGKWindows:cImage.obj
 0001:00046040       ??0cImage@AGK@@QAE@XZ      00447040 f   AGKWindows:cImage.obj
 0001:00046060       ?ReloadAllImages@cImage@AGK@@SAXXZ 00447060 f   AGKWindows:cImage.obj
 0001:000460a0       ?GetTextureID@cImage@AGK@@QBEIXZ 004470a0 f   AGKWindows:cImage.obj
 0001:000460c0       ?GetTotalWidth@cImage@AGK@@QBEHXZ 004470c0 f   AGKWindows:cImage.obj
 0001:000460e0       ?GetTotalHeight@cImage@AGK@@QBEHXZ 004470e0 f   AGKWindows:cImage.obj
 0001:00046100       ?GetTotalWidth2@cImage@AGK@@QBEHXZ 00447100 f   AGKWindows:cImage.obj
 0001:00046120       ?GetTotalHeight2@cImage@AGK@@QBEHXZ 00447120 f   AGKWindows:cImage.obj
 0001:00046140       ?GetU1@cImage@AGK@@QBEMXZ  00447140 f   AGKWindows:cImage.obj
 0001:00046150       ?GetID@cImage@AGK@@QBEIXZ  00447150 f   AGKWindows:cImage.obj
 0001:00046160       ?GetV1@cImage@AGK@@QBEMXZ  00447160 f   AGKWindows:cImage.obj
 0001:00046170       ?GetU2@cImage@AGK@@QBEMXZ  00447170 f   AGKWindows:cImage.obj
 0001:00046180       ?GetV2@cImage@AGK@@QBEMXZ  00447180 f   AGKWindows:cImage.obj
 0001:00046190       ?GetWidth@cImage@AGK@@QBEHXZ 00447190 f   AGKWindows:cImage.obj
 0001:000461a0       ?GetHeight@cImage@AGK@@QBEHXZ 004471a0 f   AGKWindows:cImage.obj
 0001:000461b0       ?GetPath@cImage@AGK@@QBEPBDXZ 004471b0 f   AGKWindows:cImage.obj
 0001:000461d0       ?HasParent@cImage@AGK@@QBE_NXZ 004471d0 f   AGKWindows:cImage.obj
 0001:000461e0       ?IsAtlas@cImage@AGK@@QBE_NXZ 004471e0 f   AGKWindows:cImage.obj
 0001:000461f0       ?LoadSubImage@cImage@AGK@@QAE_NPAV12@PBD_N@Z 004471f0 f   AGKWindows:cImage.obj
 0001:000463c0       ?LoadGif@cImage@AGK@@QAE_NPBD@Z 004473c0 f   AGKWindows:cImage.obj
 0001:000467f0       ?CreateAlphaPixels@cImage@AGK@@QAEXH@Z 004477f0 f   AGKWindows:cImage.obj
 0001:00046840       ?SetAlphaPixel@cImage@AGK@@QAEXHH@Z 00447840 f   AGKWindows:cImage.obj
 0001:00046890       ?GetAlphaPixel@cImage@AGK@@QAEHHH@Z 00447890 f   AGKWindows:cImage.obj
 0001:000469b0       ?GetAlphaPixelUV@cImage@AGK@@QAEHMM@Z 004479b0 f   AGKWindows:cImage.obj
 0001:00046aa0       ?SetMagFilter@cImage@AGK@@QAEXI@Z 00447aa0 f   AGKWindows:cImage.obj
 0001:00046b60       ?SetMinFilter@cImage@AGK@@QAEXI@Z 00447b60 f   AGKWindows:cImage.obj
 0001:00046c40       ?SetWrapU@cImage@AGK@@QAEXI@Z 00447c40 f   AGKWindows:cImage.obj
 0001:00046d40       ?SetWrapV@cImage@AGK@@QAEXI@Z 00447d40 f   AGKWindows:cImage.obj
 0001:00046e50       ??1cImage@AGK@@QAE@XZ      00447e50 f   AGKWindows:cImage.obj
 0001:00046f50       ?Load@cImage@AGK@@QAE_NPBD_N@Z 00447f50 f   AGKWindows:cImage.obj
 0001:000475b0       ?LoadSubImage@cImage@AGK@@QAE_NPAV12@ABVuString@2@_N@Z 004485b0 f   AGKWindows:cImage.obj
 0001:000475e0       ?GetBoundingPoints@cImage@AGK@@QAEPBVPoint2D@2@MMMM@Z 004485e0 f   AGKWindows:cImage.obj
 0001:000478a0       ??0cImage@AGK@@QAE@PBD@Z   004488a0 f   AGKWindows:cImage.obj
 0001:00047900       ?Load@cImage@AGK@@QAE_NABVuString@2@_N@Z 00448900 f   AGKWindows:cImage.obj
 0001:00047930       ??0cImage@AGK@@QAE@ABVuString@1@@Z 00448930 f   AGKWindows:cImage.obj
 0001:000479b0       ??0cSpriteFrame@AGK@@QAE@XZ 004489b0 f i AGKWindows:cSprite.obj
 0001:000479d0       ??3@YAXPAX0@Z              004489d0 f i AGKWindows:b2World.obj
 0001:000479d0       ??1cSpriteFrame@AGK@@QAE@XZ 004489d0 f i AGKWindows:cSprite.obj
 0001:000479d0       ??1cTouch@AGK@@QAE@XZ      004489d0 f i AGKWindows:cTouch.obj
 0001:000479e0       ?b2DistanceSquared@@YAMABUb2Vec2@@0@Z 004489e0 f i AGKWindows:cSprite.obj
 0001:00047a20       ?b2MulT@@YA?AUb2Vec2@@ABUb2Transform@@ABU1@@Z 00448a20 f i AGKWindows:cSprite.obj
 0001:00047a70       ??1b2CircleShape@@UAE@XZ   00448a70 f i AGKWindows:cSprite.obj
 0001:00047a70       ??1b2Shape@@UAE@XZ         00448a70 f i AGKWindows:Wrapper.obj
 0001:00047a70       ??1b2PolygonShape@@UAE@XZ  00448a70 f i AGKWindows:Wrapper.obj
 0001:00047a70       ??1b2EdgeShape@@UAE@XZ     00448a70 f i AGKWindows:b2ChainAndPolygonContact.obj
 0001:00047a80       ?ApplyLinearImpulse@b2Body@@QAEXABUb2Vec2@@0@Z 00448a80 f i AGKWindows:cSprite.obj
 0001:00047b20       ?Reset@cSprite@AGK@@IAEXXZ 00448b20 f   AGKWindows:cSprite.obj
 0001:00047c80       ?RecalcVisualRadius@cSprite@AGK@@IAEXXZ 00448c80 f   AGKWindows:cSprite.obj
 0001:00047d60       ?RecalcColRadius@cSprite@AGK@@IAEXXZ 00448d60 f   AGKWindows:cSprite.obj
 0001:000481f0       ?GetID@cSprite@AGK@@QAEIXZ 004491f0 f   AGKWindows:cSprite.obj
 0001:00048200       ?GetX@cSprite@AGK@@QAEMXZ  00449200 f   AGKWindows:cSprite.obj
 0001:00048220       ?GetY@cSprite@AGK@@QAEMXZ  00449220 f   AGKWindows:cSprite.obj
 0001:00048240       ?GetZ@cSprite@AGK@@QAEMXZ  00449240 f   AGKWindows:cSprite.obj
 0001:00048250       ?GetXByOffset@cSprite@AGK@@QAEMXZ 00449250 f   AGKWindows:cSprite.obj
 0001:00048260       ?GetYByOffset@cSprite@AGK@@QAEMXZ 00449260 f   AGKWindows:cSprite.obj
 0001:00048270       ?GetOffsetX@cSprite@AGK@@QAEMXZ 00449270 f   AGKWindows:cSprite.obj
 0001:00048280       ?GetOffsetY@cSprite@AGK@@QAEMXZ 00449280 f   AGKWindows:cSprite.obj
 0001:00048290       ?GetAngle@cSprite@AGK@@QAEMXZ 00449290 f   AGKWindows:cSprite.obj
 0001:000482b0       ?GetAngleRad@cSprite@AGK@@QAEMXZ 004492b0 f   AGKWindows:cSprite.obj
 0001:000482c0       ?GetWidth@cSprite@AGK@@QAEMXZ 004492c0 f   AGKWindows:cSprite.obj
 0001:000482d0       ?GetHeight@cSprite@AGK@@QAEMXZ 004492d0 f   AGKWindows:cSprite.obj
 0001:000482e0       ?GetDepth@cSprite@AGK@@QAEHXZ 004492e0 f   AGKWindows:cSprite.obj
 0001:00048310       ?GetFrameCount@cSprite@AGK@@QAEHXZ 00449310 f   AGKWindows:cSprite.obj
 0001:00048320       ?GetCurrentFrame@cSprite@AGK@@QAEHXZ 00449320 f   AGKWindows:cSprite.obj
 0001:00048330       ?GetTransparencyMode@cSprite@AGK@@QAEHXZ 00449330 f   AGKWindows:cSprite.obj
 0001:00048340       ?GetImagePtr@cSprite@AGK@@QAEPAVcImage@2@XZ 00449340 f   AGKWindows:cSprite.obj
 0001:00048350       ?GetDepthChanged@cSprite@AGK@@QAE_NXZ 00449350 f   AGKWindows:cSprite.obj
 0001:00048370       ?CheckDepthChanged@cSprite@AGK@@QAE_NXZ 00449370 f   AGKWindows:cSprite.obj
 0001:00048380       ?GetTextureChanged@cSprite@AGK@@QAE_NXZ 00449380 f   AGKWindows:cSprite.obj
 0001:000483a0       ?CheckTextureChanged@cSprite@AGK@@QAE_NXZ 004493a0 f   AGKWindows:cSprite.obj
 0001:000483b0       ?GetTransparencyChanged@cSprite@AGK@@QAE_NXZ 004493b0 f   AGKWindows:cSprite.obj
 0001:000483d0       ?GetVisible@cSprite@AGK@@QAE_NXZ 004493d0 f   AGKWindows:cSprite.obj
 0001:000483e0       ?GetInScreen@cSprite@AGK@@QAE_NXZ 004493e0 f   AGKWindows:cSprite.obj
 0001:00048540       ?GetActive@cSprite@AGK@@QAE_NXZ 00449540 f   AGKWindows:cSprite.obj
 0001:00048550       ?GetHitTest@cSprite@AGK@@QAE_NMM@Z 00449550 f   AGKWindows:cSprite.obj
 0001:000487d0       ?GetShouldCollide@cSprite@AGK@@QAE_NPAV12@@Z 004497d0 f   AGKWindows:cSprite.obj
 0001:00048820       ?GetColorRed@cSprite@AGK@@QAEIXZ 00449820 f   AGKWindows:cSprite.obj
 0001:00048830       ?GetColorGreen@cSprite@AGK@@QAEIXZ 00449830 f   AGKWindows:cSprite.obj
 0001:00048840       ?GetColorBlue@cSprite@AGK@@QAEIXZ 00449840 f   AGKWindows:cSprite.obj
 0001:00048850       ?GetColorAlpha@cSprite@AGK@@QAEIXZ 00449850 f   AGKWindows:cSprite.obj
 0001:00048860       ?GetScrollMode@cSprite@AGK@@QAEHXZ 00449860 f   AGKWindows:cSprite.obj
 0001:00048880       ?GetPlaying@cSprite@AGK@@QAEHXZ 00449880 f   AGKWindows:cSprite.obj
 0001:000488a0       ?GetScissorOn@cSprite@AGK@@QAE_NXZ 004498a0 f   AGKWindows:cSprite.obj
 0001:000488d0       ?GetXFromPixel@cSprite@AGK@@QAEMH@Z 004498d0 f   AGKWindows:cSprite.obj
 0001:00048910       ?GetYFromPixel@cSprite@AGK@@QAEMH@Z 00449910 f   AGKWindows:cSprite.obj
 0001:00048950       ?GetPixelFromX@cSprite@AGK@@QAEHM@Z 00449950 f   AGKWindows:cSprite.obj
 0001:000489a0       ?GetPixelFromY@cSprite@AGK@@QAEHM@Z 004499a0 f   AGKWindows:cSprite.obj
 0001:000489f0       ?SetScaleByOffset@cSprite@AGK@@QAEXMM@Z 004499f0 f   AGKWindows:cSprite.obj
 0001:00048c90       ?SetID@cSprite@AGK@@QAEXI@Z 00449c90 f   AGKWindows:cSprite.obj
 0001:00048ca0       ?SetVisible@cSprite@AGK@@QAEX_N@Z 00449ca0 f   AGKWindows:cSprite.obj
 0001:00048cc0       ?SetActive@cSprite@AGK@@QAEX_N@Z 00449cc0 f   AGKWindows:cSprite.obj
 0001:00048ce0       ?SetColor@cSprite@AGK@@QAEXIIII@Z 00449ce0 f   AGKWindows:cSprite.obj
 0001:00048d40       ?SetRed@cSprite@AGK@@QAEXI@Z 00449d40 f   AGKWindows:cSprite.obj
 0001:00048d60       ?SetGreen@cSprite@AGK@@QAEXI@Z 00449d60 f   AGKWindows:cSprite.obj
 0001:00048d80       ?SetBlue@cSprite@AGK@@QAEXI@Z 00449d80 f   AGKWindows:cSprite.obj
 0001:00048da0       ?SetAlpha@cSprite@AGK@@QAEXI@Z 00449da0 f   AGKWindows:cSprite.obj
 0001:00048dc0       ?SetFlip@cSprite@AGK@@QAEXHH@Z 00449dc0 f   AGKWindows:cSprite.obj
 0001:00049300       ?SetSnap@cSprite@AGK@@QAEXH@Z 0044a300 f   AGKWindows:cSprite.obj
 0001:00049320       ?SetPosition@cSprite@AGK@@QAEXMM@Z 0044a320 f   AGKWindows:cSprite.obj
 0001:00049400       ?SetPositionByOffset@cSprite@AGK@@QAEXMM@Z 0044a400 f   AGKWindows:cSprite.obj
 0001:000494d0       ?SetX@cSprite@AGK@@QAEXM@Z 0044a4d0 f   AGKWindows:cSprite.obj
 0001:000495a0       ?SetY@cSprite@AGK@@QAEXM@Z 0044a5a0 f   AGKWindows:cSprite.obj
 0001:00049670       ?SetZ@cSprite@AGK@@QAEXM@Z 0044a670 f   AGKWindows:cSprite.obj
 0001:00049690       ?SetZShift@cSprite@AGK@@QAEXM@Z 0044a690 f   AGKWindows:cSprite.obj
 0001:000496e0       ?SetAngle@cSprite@AGK@@QAEXM@Z 0044a6e0 f   AGKWindows:cSprite.obj
 0001:000497c0       ?SetAngleRad@cSprite@AGK@@QAEXM@Z 0044a7c0 f   AGKWindows:cSprite.obj
 0001:00049890       ?SetDepth@cSprite@AGK@@QAEXH@Z 0044a890 f   AGKWindows:cSprite.obj
 0001:000498d0       ?SetUserData@cSprite@AGK@@QAEXPAX@Z 0044a8d0 f   AGKWindows:cSprite.obj
 0001:000498e0       ?GetUserData@cSprite@AGK@@QAEPAXXZ 0044a8e0 f   AGKWindows:cSprite.obj
 0001:000498f0       ?AppendAnimation@cSprite@AGK@@QAEXPAVcImage@2@HHH@Z 0044a8f0 f   AGKWindows:cSprite.obj
 0001:00049ba0       ?ClearAnimationFrames@cSprite@AGK@@QAEXXZ 0044aba0 f   AGKWindows:cSprite.obj
 0001:00049c00       ?SetSpeed@cSprite@AGK@@QAEXM@Z 0044ac00 f   AGKWindows:cSprite.obj
 0001:00049c50       ?Stop@cSprite@AGK@@QAEXXZ  0044ac50 f   AGKWindows:cSprite.obj
 0001:00049c60       ?Resume@cSprite@AGK@@QAEXXZ 0044ac60 f   AGKWindows:cSprite.obj
 0001:00049c70       ?SetTransparency@cSprite@AGK@@QAEXH@Z 0044ac70 f   AGKWindows:cSprite.obj
 0001:00049d50       ?SetOffset@cSprite@AGK@@QAEXMM@Z 0044ad50 f   AGKWindows:cSprite.obj
 0001:00049dd0       ?SetUVBorder@cSprite@AGK@@QAEXM@Z 0044add0 f   AGKWindows:cSprite.obj
 0001:00049e00       ?SetUVOffset@cSprite@AGK@@QAEXMM@Z 0044ae00 f   AGKWindows:cSprite.obj
 0001:00049e20       ?SetUVScale@cSprite@AGK@@QAEXMM@Z 0044ae20 f   AGKWindows:cSprite.obj
 0001:00049e80       ?FixToScreen@cSprite@AGK@@QAEXH@Z 0044ae80 f   AGKWindows:cSprite.obj
 0001:00049ea0       ?SetScissor@cSprite@AGK@@QAEXMMMM@Z 0044aea0 f   AGKWindows:cSprite.obj
 0001:00049f60       ?GetClipValues@cSprite@AGK@@QAEXAAH000@Z 0044af60 f   AGKWindows:cSprite.obj
 0001:0004a070       ?GetGroup@cSprite@AGK@@QAEHXZ 0044b070 f   AGKWindows:cSprite.obj
 0001:0004a080       ?SetUV@cSprite@AGK@@QAEXMMMMMMMM@Z 0044b080 f   AGKWindows:cSprite.obj
 0001:0004a0d0       ?ResetUV@cSprite@AGK@@QAEXXZ 0044b0d0 f   AGKWindows:cSprite.obj
 0001:0004a0e0       ?ReplacePhysicsShape@cSprite@AGK@@IAEXXZ 0044b0e0 f   AGKWindows:cSprite.obj
 0001:0004a1d0       ?CalculatePhysicsCOM@cSprite@AGK@@QAEXXZ 0044b1d0 f   AGKWindows:cSprite.obj
 0001:0004a1e0       ?GetDistancePoint1X@cSprite@AGK@@QAEMXZ 0044b1e0 f   AGKWindows:cSprite.obj
 0001:0004a200       ?GetDistancePoint1Y@cSprite@AGK@@QAEMXZ 0044b200 f   AGKWindows:cSprite.obj
 0001:0004a230       ?GetDistancePoint2X@cSprite@AGK@@QAEMXZ 0044b230 f   AGKWindows:cSprite.obj
 0001:0004a250       ?GetDistancePoint2Y@cSprite@AGK@@QAEMXZ 0044b250 f   AGKWindows:cSprite.obj
 0001:0004a280       ?GetPhysicsCollision@cSprite@AGK@@QAE_NPAV12@@Z 0044b280 f   AGKWindows:cSprite.obj
 0001:0004a2e0       ?GetPhysicsCollisionX@cSprite@AGK@@QAEMXZ 0044b2e0 f   AGKWindows:cSprite.obj
 0001:0004a310       ?GetPhysicsCollisionY@cSprite@AGK@@QAEMXZ 0044b310 f   AGKWindows:cSprite.obj
 0001:0004a340       ?GetPhysicsCollisionWorldX@cSprite@AGK@@QAEMXZ 0044b340 f   AGKWindows:cSprite.obj
 0001:0004a390       ?GetPhysicsCollisionWorldY@cSprite@AGK@@QAEMXZ 0044b390 f   AGKWindows:cSprite.obj
 0001:0004a3e0       ?ClearShapes@cSprite@AGK@@QAEXXZ 0044b3e0 f   AGKWindows:cSprite.obj
 0001:0004a4c0       ?SetPhysicsOff@cSprite@AGK@@QAEXXZ 0044b4c0 f   AGKWindows:cSprite.obj
 0001:0004a4e0       ?SetPhysicsDelete@cSprite@AGK@@QAEXXZ 0044b4e0 f   AGKWindows:cSprite.obj
 0001:0004a530       ?SetPhysicsFriction@cSprite@AGK@@QAEXM@Z 0044b530 f   AGKWindows:cSprite.obj
 0001:0004a5a0       ?SetPhysicsRestitution@cSprite@AGK@@QAEXM@Z 0044b5a0 f   AGKWindows:cSprite.obj
 0001:0004a5d0       ?SetPhysicsCanRotate@cSprite@AGK@@QAEX_N@Z 0044b5d0 f   AGKWindows:cSprite.obj
 0001:0004a610       ?SetPhysicsDamping@cSprite@AGK@@QAEXM@Z 0044b610 f   AGKWindows:cSprite.obj
 0001:0004a630       ?SetPhysicsAngularDamping@cSprite@AGK@@QAEXM@Z 0044b630 f   AGKWindows:cSprite.obj
 0001:0004a650       ?SetPhysicsIsBullet@cSprite@AGK@@QAEX_N@Z 0044b650 f   AGKWindows:cSprite.obj
 0001:0004a680       ?SetPhysicsMass@cSprite@AGK@@QAEXM@Z 0044b680 f   AGKWindows:cSprite.obj
 0001:0004a6f0       ?SetPhysicsIsSensor@cSprite@AGK@@QAEX_N@Z 0044b6f0 f   AGKWindows:cSprite.obj
 0001:0004a740       ?GetPhysicsVelocityX@cSprite@AGK@@QAEMXZ 0044b740 f   AGKWindows:cSprite.obj
 0001:0004a780       ?GetPhysicsVelocityY@cSprite@AGK@@QAEMXZ 0044b780 f   AGKWindows:cSprite.obj
 0001:0004a7c0       ?GetPhysicsAngularVelocity@cSprite@AGK@@QAEMXZ 0044b7c0 f   AGKWindows:cSprite.obj
 0001:0004a7e0       ?GetPhysicsMass@cSprite@AGK@@QAEMXZ 0044b7e0 f   AGKWindows:cSprite.obj
 0001:0004a810       ?SetGroup@cSprite@AGK@@QAEXH@Z 0044b810 f   AGKWindows:cSprite.obj
 0001:0004a880       ?SetCategoryBits@cSprite@AGK@@QAEXI@Z 0044b880 f   AGKWindows:cSprite.obj
 0001:0004a8e0       ?SetCategoryBit@cSprite@AGK@@QAEXIH@Z 0044b8e0 f   AGKWindows:cSprite.obj
 0001:0004a970       ?SetCollideBits@cSprite@AGK@@QAEXI@Z 0044b970 f   AGKWindows:cSprite.obj
 0001:0004a9d0       ?SetCollideBit@cSprite@AGK@@QAEXIH@Z 0044b9d0 f   AGKWindows:cSprite.obj
 0001:0004aa60       ?SetPhysicsForce@cSprite@AGK@@QAEXMMMM@Z 0044ba60 f   AGKWindows:cSprite.obj
 0001:0004aac0       ?SetPhysicsTorque@cSprite@AGK@@QAEXM@Z 0044bac0 f   AGKWindows:cSprite.obj
 0001:0004ab10       ?SetPhysicsLinearImpulse@cSprite@AGK@@QAEXMMMM@Z 0044bb10 f   AGKWindows:cSprite.obj
 0001:0004ab70       ?SetPhysicsAngularImpulse@cSprite@AGK@@QAEXM@Z 0044bb70 f   AGKWindows:cSprite.obj
 0001:0004abc0       ?GetFirstContact@cSprite@AGK@@QAEHXZ 0044bbc0 f   AGKWindows:cSprite.obj
 0001:0004ac10       ?GetNextContact@cSprite@AGK@@QAEHXZ 0044bc10 f   AGKWindows:cSprite.obj
 0001:0004ac60       ?GetContactWorldX@cSprite@AGK@@QAEMXZ 0044bc60 f   AGKWindows:cSprite.obj
 0001:0004acb0       ?GetContactWorldY@cSprite@AGK@@QAEMXZ 0044bcb0 f   AGKWindows:cSprite.obj
 0001:0004ad00       ?GetContactSprite2@cSprite@AGK@@QAEPAV12@XZ 0044bd00 f   AGKWindows:cSprite.obj
 0001:0004ad30       ?UpdatePhysics@cSprite@AGK@@QAEXXZ 0044bd30 f   AGKWindows:cSprite.obj
 0001:0004ada0       ?UpdateDepth@cSprite@AGK@@SAXXZ 0044bda0 f   AGKWindows:cSprite.obj
 0001:0004ae60       ??1cSprite@AGK@@QAE@XZ     0044be60 f   AGKWindows:cSprite.obj
 0001:0004af50       ?SetScale@cSprite@AGK@@QAEXMM@Z 0044bf50 f   AGKWindows:cSprite.obj
 0001:0004afa0       ?SetPhysicsCOM@cSprite@AGK@@QAEXMM@Z 0044bfa0 f   AGKWindows:cSprite.obj
 0001:0004b020       ?SetShape@cSprite@AGK@@QAEXW4ePhysicsShape@12@@Z 0044c020 f   AGKWindows:cSprite.obj
 0001:0004b670       ?SetShapeBox@cSprite@AGK@@QAEXMMMMM@Z 0044c670 f   AGKWindows:cSprite.obj
 0001:0004b7e0       ?SetShapeCircle@cSprite@AGK@@QAEXMMM@Z 0044c7e0 f   AGKWindows:cSprite.obj
 0001:0004b880       ?SetShapePolygon@cSprite@AGK@@QAEXIPAM@Z 0044c880 f   AGKWindows:cSprite.obj
 0001:0004bac0       ?SetShapePolygon@cSprite@AGK@@QAEXIIMM@Z 0044cac0 f   AGKWindows:cSprite.obj
 0001:0004bc50       ?AddShapeBox@cSprite@AGK@@QAEXMMMMM@Z 0044cc50 f   AGKWindows:cSprite.obj
 0001:0004bf10       ?AddShapeCircle@cSprite@AGK@@QAEXMMM@Z 0044cf10 f   AGKWindows:cSprite.obj
 0001:0004c060       ?AddShapePolygon@cSprite@AGK@@QAEXIPAM@Z 0044d060 f   AGKWindows:cSprite.obj
 0001:0004c390       ?AddShapePolygon@cSprite@AGK@@QAEXIIMM@Z 0044d390 f   AGKWindows:cSprite.obj
 0001:0004c520       ?SetPhysicsOn@cSprite@AGK@@QAEXW4ePhysicsMode@12@@Z 0044d520 f   AGKWindows:cSprite.obj
 0001:0004c700       ?SetPhysicsVelocity@cSprite@AGK@@QAEXMM@Z 0044d700 f   AGKWindows:cSprite.obj
 0001:0004c740       ?SetPhysicsAngularVelocity@cSprite@AGK@@QAEXM@Z 0044d740 f   AGKWindows:cSprite.obj
 0001:0004c790       ??0cSprite@AGK@@QAE@PBV01@@Z 0044d790 f   AGKWindows:cSprite.obj
 0001:0004ca40       ?SetSize@cSprite@AGK@@QAEXMM_N@Z 0044da40 f   AGKWindows:cSprite.obj
 0001:0004cd20       ?SetImage@cSprite@AGK@@QAEXABVuString@2@_N@Z 0044dd20 f   AGKWindows:cSprite.obj
 0001:0004ce10       ?SetImage@cSprite@AGK@@QAEXPAVcImage@2@_N@Z 0044de10 f   AGKWindows:cSprite.obj
 0001:0004cee0       ?SetAnimation@cSprite@AGK@@QAEXHHH@Z 0044dee0 f   AGKWindows:cSprite.obj
 0001:0004d260       ?AddAnimationFrame@cSprite@AGK@@QAEXPAVcImage@2@@Z 0044e260 f   AGKWindows:cSprite.obj
 0001:0004d530       ?SetFrame@cSprite@AGK@@QAEXH@Z 0044e530 f   AGKWindows:cSprite.obj
 0001:0004d780       ?Play@cSprite@AGK@@QAEXM_NHH@Z 0044e780 f   AGKWindows:cSprite.obj
 0001:0004d860       ?CheckImages@cSprite@AGK@@QAEXXZ 0044e860 f   AGKWindows:cSprite.obj
 0001:0004d8e0       ?Draw@cSprite@AGK@@QAEXXZ  0044e8e0 f   AGKWindows:cSprite.obj
 0001:0004dff0       ?BatchDraw@cSprite@AGK@@QAEXPAM0PAE@Z 0044eff0 f   AGKWindows:cSprite.obj
 0001:0004e7a0       ?BatchDrawQuad@cSprite@AGK@@QAEXPAM0PAE@Z 0044f7a0 f   AGKWindows:cSprite.obj
 0001:0004eed0       ?UpdateAnimation@cSprite@AGK@@QAEXM@Z 0044fed0 f   AGKWindows:cSprite.obj
 0001:0004f0c0       ?InBox@cSprite@AGK@@QAE_NMMMM@Z 004500c0 f   AGKWindows:cSprite.obj
 0001:0004f730       ?InCircle@cSprite@AGK@@QAE_NMMM@Z 00450730 f   AGKWindows:cSprite.obj
 0001:0004fbd0       ?GetCollision@cSprite@AGK@@QAE_NPAV12@@Z 00450bd0 f   AGKWindows:cSprite.obj
 0001:000501c0       ?GetDistance@cSprite@AGK@@QAEMPAV12@@Z 004511c0 f   AGKWindows:cSprite.obj
 0001:00050320       ??0cSprite@AGK@@QAE@XZ     00451320 f   AGKWindows:cSprite.obj
 0001:00050370       ??0cSprite@AGK@@QAE@ABVuString@1@@Z 00451370 f   AGKWindows:cSprite.obj
 0001:000503d0       ??0cSprite@AGK@@QAE@PAVcImage@1@@Z 004513d0 f   AGKWindows:cSprite.obj
 0001:00050430       ?Update@cSprite@AGK@@QAEXM@Z 00451430 f   AGKWindows:cSprite.obj
 0001:00050460       ?SetLinearVelocity@b2Body@@QAEXABUb2Vec2@@@Z 00451460 f i AGKWindows:cSprite.obj
 0001:000504c0       ??4b2PolygonShape@@QAEAAV0@ABV0@@Z 004514c0 f i AGKWindows:cSprite.obj
 0001:00050540       ??0cForce@AGK@@QAE@XZ      00451540 f   AGKWindows:cForce.obj
 0001:00050560       ??0cForce@AGK@@QAE@MMMMM_N@Z 00451560 f   AGKWindows:cForce.obj
 0001:00050590       ??1cForce@AGK@@QAE@XZ      00451590 f   AGKWindows:cForce.obj
 0001:000505a0       ??0UDPManager@AGK@@QAE@I@Z 004515a0 f   AGKWindows:WindowsNetwork.obj
 0001:000506b0       ??1UDPManager@AGK@@QAE@XZ  004516b0 f   AGKWindows:WindowsNetwork.obj
 0001:000506d0       ?SendPacket@UDPManager@AGK@@QAE_NPBDPBVAGKPacket@2@@Z 004516d0 f   AGKWindows:WindowsNetwork.obj
 0001:000507b0       ?RecvPacket@UDPManager@AGK@@QAE_NPADPAVAGKPacket@2@@Z 004517b0 f   AGKWindows:WindowsNetwork.obj
 0001:00050920       ?Reset@AGKSocket@AGK@@IAEXXZ 00451920 f   AGKWindows:WindowsNetwork.obj
 0001:00050960       ?Close@AGKSocket@AGK@@QAEX_N@Z 00451960 f   AGKWindows:WindowsNetwork.obj
 0001:00050a00       ?Connect@AGKSocket@AGK@@QAE_NPBDII@Z 00451a00 f   AGKWindows:WindowsNetwork.obj
 0001:00050c40       ?SetTimeout@AGKSocket@AGK@@QAEXH@Z 00451c40 f   AGKWindows:WindowsNetwork.obj
 0001:00050c50       ?SendData@AGKSocket@AGK@@QAE_NPBDH@Z 00451c50 f   AGKWindows:WindowsNetwork.obj
 0001:00050e00       ?SendChar@AGKSocket@AGK@@QAE_ND@Z 00451e00 f   AGKWindows:WindowsNetwork.obj
 0001:00050ef0       ?SendUInt@AGKSocket@AGK@@QAE_NI@Z 00451ef0 f   AGKWindows:WindowsNetwork.obj
 0001:00050ff0       ?SendInt@AGKSocket@AGK@@QAE_NH@Z 00451ff0 f   AGKWindows:WindowsNetwork.obj
 0001:000510f0       ?SendFloat@AGKSocket@AGK@@QAE_NM@Z 004520f0 f   AGKWindows:WindowsNetwork.obj
 0001:000511e0       ?Flush@AGKSocket@AGK@@QAE_NXZ 004521e0 f   AGKWindows:WindowsNetwork.obj
 0001:000512b0       ?GetBytes@AGKSocket@AGK@@QAEHXZ 004522b0 f   AGKWindows:WindowsNetwork.obj
 0001:000513a0       ?RecvData@AGKSocket@AGK@@QAEHPADH@Z 004523a0 f   AGKWindows:WindowsNetwork.obj
 0001:000514c0       ?RecvChar@AGKSocket@AGK@@QAEDXZ 004524c0 f   AGKWindows:WindowsNetwork.obj
 0001:00051570       ?RecvInt@AGKSocket@AGK@@QAEHXZ 00452570 f   AGKWindows:WindowsNetwork.obj
 0001:00051630       ?RecvUInt@AGKSocket@AGK@@QAEIXZ 00452630 f   AGKWindows:WindowsNetwork.obj
 0001:000516f0       ?RecvFloat@AGKSocket@AGK@@QAEMXZ 004526f0 f   AGKWindows:WindowsNetwork.obj
 0001:000517a0       ?Stop@cNetworkListener@AGK@@UAEXXZ 004527a0 f   AGKWindows:WindowsNetwork.obj
 0001:000517d0       ?GetNewConnection@cNetworkListener@AGK@@QAEPAVAGKSocket@2@XZ 004527d0 f   AGKWindows:WindowsNetwork.obj
 0001:00051820       ?AcceptConnections@cNetworkListener@AGK@@QAEXI@Z 00452820 f   AGKWindows:WindowsNetwork.obj
 0001:000519a0       ??0BroadcastListener@AGK@@QAE@XZ 004529a0 f   AGKWindows:WindowsNetwork.obj
 0001:000519b0       ??1BroadcastListener@AGK@@QAE@XZ 004529b0 f   AGKWindows:WindowsNetwork.obj
 0001:000519d0       ?Close@BroadcastListener@AGK@@QAEXXZ 004529d0 f   AGKWindows:WindowsNetwork.obj
 0001:00051a00       ?SetListenPort@BroadcastListener@AGK@@QAE_NI@Z 00452a00 f   AGKWindows:WindowsNetwork.obj
 0001:00051b10       ?ReceivedBroadcast@BroadcastListener@AGK@@QAE_NXZ 00452b10 f   AGKWindows:WindowsNetwork.obj
 0001:00051b50       ?GetPacket@BroadcastListener@AGK@@QAE_NAAVAGKPacket@2@AAIPAD@Z 00452b50 f   AGKWindows:WindowsNetwork.obj
 0001:00051c30       ?Run@Broadcaster@AGK@@MAEIXZ 00452c30 f   AGKWindows:WindowsNetwork.obj
 0001:00051dd0       ?SetData@Broadcaster@AGK@@QAEXIPBVAGKPacket@2@IH@Z 00452dd0 f   AGKWindows:WindowsNetwork.obj
 0001:00051ea0       ?Stop@cHTTPConnection@AGK@@UAEXXZ 00452ea0 f   AGKWindows:WindowsNetwork.obj
 0001:00051ec0       ?Close@cHTTPConnection@AGK@@QAEXXZ 00452ec0 f   AGKWindows:WindowsNetwork.obj
 0001:00051f00       ?SendRequestInternal@cHTTPConnection@AGK@@IAEPADXZ 00452f00 f   AGKWindows:WindowsNetwork.obj
 0001:000524f0       ?SendRequest@cHTTPConnection@AGK@@QAEPADPBD0@Z 004534f0 f   AGKWindows:WindowsNetwork.obj
 0001:000525b0       ?SendRequestASync@cHTTPConnection@AGK@@QAE_NPBD0@Z 004535b0 f   AGKWindows:WindowsNetwork.obj
 0001:000526e0       ?SendFile@cHTTPConnection@AGK@@QAE_NPBD00@Z 004536e0 f   AGKWindows:WindowsNetwork.obj
 0001:00052820       ?GetResponseReady@cHTTPConnection@AGK@@QAEHXZ 00453820 f   AGKWindows:WindowsNetwork.obj
 0001:00052830       ?GetResponse@cHTTPConnection@AGK@@QAEPBDXZ 00453830 f   AGKWindows:WindowsNetwork.obj
 0001:00052840       ?GetContentType@cHTTPConnection@AGK@@QAEPBDXZ 00453840 f   AGKWindows:WindowsNetwork.obj
 0001:00052850       ?DownloadFile@cHTTPConnection@AGK@@QAE_NPBD00@Z 00453850 f   AGKWindows:WindowsNetwork.obj
 0001:00052990       ?DownloadComplete@cHTTPConnection@AGK@@QAE_NXZ 00453990 f   AGKWindows:WindowsNetwork.obj
 0001:000529a0       ?Run@AGKSocket@AGK@@MAEIXZ 004539a0 f   AGKWindows:WindowsNetwork.obj
 0001:00052a10       ??0AGKSocket@AGK@@QAE@XZ   00453a10 f   AGKWindows:WindowsNetwork.obj
 0001:00052a70       ??0AGKSocket@AGK@@QAE@I@Z  00453a70 f   AGKWindows:WindowsNetwork.obj
 0001:00052b30       ??1AGKSocket@AGK@@UAE@XZ   00453b30 f   AGKWindows:WindowsNetwork.obj
 0001:00052bf0       ?SendFile@AGKSocket@AGK@@QAE_NPBD@Z 00453bf0 f   AGKWindows:WindowsNetwork.obj
 0001:00052ea0       ?SendString@AGKSocket@AGK@@QAE_NPBD@Z 00453ea0 f   AGKWindows:WindowsNetwork.obj
 0001:00052f80       ?RecvString@AGKSocket@AGK@@QAEHAAVuString@2@@Z 00453f80 f   AGKWindows:WindowsNetwork.obj
 0001:000530c0       ?Run@cNetworkListener@AGK@@MAEIXZ 004540c0 f   AGKWindows:WindowsNetwork.obj
 0001:00053220       ??0cNetworkListener@AGK@@QAE@XZ 00454220 f   AGKWindows:WindowsNetwork.obj
 0001:00053260       ??1cNetworkListener@AGK@@UAE@XZ 00454260 f   AGKWindows:WindowsNetwork.obj
 0001:00053310       ??0Broadcaster@AGK@@QAE@XZ 00454310 f   AGKWindows:WindowsNetwork.obj
 0001:00053390       ??0cHTTPConnection@AGK@@QAE@XZ 00454390 f   AGKWindows:WindowsNetwork.obj
 0001:00053440       ??1cHTTPConnection@AGK@@UAE@XZ 00454440 f   AGKWindows:WindowsNetwork.obj
 0001:00053530       ?SetHost@cHTTPConnection@AGK@@QAE_NPBDH00@Z 00454530 f   AGKWindows:WindowsNetwork.obj
 0001:00053740       ?SendFileInternal@cHTTPConnection@AGK@@IAEPADXZ 00454740 f   AGKWindows:WindowsNetwork.obj
 0001:00054350       ?Run@cHTTPConnection@AGK@@MAEIXZ 00455350 f   AGKWindows:WindowsNetwork.obj
 0001:00054380       ??_GAGKSocket@AGK@@UAEPAXI@Z 00455380 f i AGKWindows:WindowsNetwork.obj
 0001:00054380       ??_EAGKSocket@AGK@@UAEPAXI@Z 00455380 f i AGKWindows:WindowsNetwork.obj
 0001:000543b0       ??_EcNetworkListener@AGK@@UAEPAXI@Z 004553b0 f i AGKWindows:WindowsNetwork.obj
 0001:000543b0       ??_GcNetworkListener@AGK@@UAEPAXI@Z 004553b0 f i AGKWindows:WindowsNetwork.obj
 0001:000543e0       ??_EcHTTPConnection@AGK@@UAEPAXI@Z 004553e0 f i AGKWindows:WindowsNetwork.obj
 0001:000543e0       ??_GcHTTPConnection@AGK@@UAEPAXI@Z 004553e0 f i AGKWindows:WindowsNetwork.obj
 0001:00054410       ?SetColor@cParticle@AGK@@QAEXIIII@Z 00455410 f i AGKWindows:Particles.obj
 0001:00054470       ??0cParticle@AGK@@QAE@XZ   00455470 f   AGKWindows:Particles.obj
 0001:00054490       ??0cParticleEmitter@AGK@@QAE@XZ 00455490 f   AGKWindows:Particles.obj
 0001:000545a0       ?UpdateNumParticles@cParticleEmitter@AGK@@IAEXXZ 004555a0 f   AGKWindows:Particles.obj
 0001:000546f0       ?UpdateManager@cParticleEmitter@AGK@@IAEXXZ 004556f0 f   AGKWindows:Particles.obj
 0001:00054750       ?FixToScreen@cParticleEmitter@AGK@@QAEX_N@Z 00455750 f   AGKWindows:Particles.obj
 0001:00054760       ?SetPosition@cParticleEmitter@AGK@@QAEXMM@Z 00455760 f   AGKWindows:Particles.obj
 0001:00054780       ?SetDepth@cParticleEmitter@AGK@@QAEXH@Z 00455780 f   AGKWindows:Particles.obj
 0001:000547c0       ?SetFrequency@cParticleEmitter@AGK@@QAEXM@Z 004557c0 f   AGKWindows:Particles.obj
 0001:00054810       ?SetStartZone@cParticleEmitter@AGK@@QAEXMMMM@Z 00455810 f   AGKWindows:Particles.obj
 0001:00054870       ?SetDirection@cParticleEmitter@AGK@@QAEXMM@Z 00455870 f   AGKWindows:Particles.obj
 0001:00054890       ?SetVelocityRange@cParticleEmitter@AGK@@QAEXMM@Z 00455890 f   AGKWindows:Particles.obj
 0001:000548f0       ?SetAngle@cParticleEmitter@AGK@@QAEXM@Z 004558f0 f   AGKWindows:Particles.obj
 0001:00054940       ?SetAngleRad@cParticleEmitter@AGK@@QAEXM@Z 00455940 f   AGKWindows:Particles.obj
 0001:00054980       ?SetSize@cParticleEmitter@AGK@@QAEXM@Z 00455980 f   AGKWindows:Particles.obj
 0001:000549b0       ?SetLife@cParticleEmitter@AGK@@QAEXM@Z 004559b0 f   AGKWindows:Particles.obj
 0001:00054a00       ?SetImage@cParticleEmitter@AGK@@QAEXPAVcImage@2@@Z 00455a00 f   AGKWindows:Particles.obj
 0001:00054ab0       ?SetColorInterpolation@cParticleEmitter@AGK@@QAEXH@Z 00455ab0 f   AGKWindows:Particles.obj
 0001:00054ad0       ?SetMaxParticles@cParticleEmitter@AGK@@QAEXH@Z 00455ad0 f   AGKWindows:Particles.obj
 0001:00054ae0       ?ResetParticleCount@cParticleEmitter@AGK@@QAEXXZ 00455ae0 f   AGKWindows:Particles.obj
 0001:00054af0       ?GetDepth@cParticleEmitter@AGK@@QAEHXZ 00455af0 f   AGKWindows:Particles.obj
 0001:00054b20       ?GetMaxParticlesReached@cParticleEmitter@AGK@@QAEHXZ 00455b20 f   AGKWindows:Particles.obj
 0001:00054b40       ?AddForce@cParticleEmitter@AGK@@QAEXMMMM@Z 00455b40 f   AGKWindows:Particles.obj
 0001:00054bb0       ?ClearForces@cParticleEmitter@AGK@@QAEXXZ 00455bb0 f   AGKWindows:Particles.obj
 0001:00054be0       ?AddColorKeyFrame@cParticleEmitter@AGK@@QAEXMIIII@Z 00455be0 f   AGKWindows:Particles.obj
 0001:00054c70       ?ClearColors@cParticleEmitter@AGK@@QAEXXZ 00455c70 f   AGKWindows:Particles.obj
 0001:00054ca0       ?Update@cParticleEmitter@AGK@@QAEXM@Z 00455ca0 f   AGKWindows:Particles.obj
 0001:00055270       ?DrawAll@cParticleEmitter@AGK@@QAEXXZ 00456270 f   AGKWindows:Particles.obj
 0001:00055f20       ??1cParticleEmitter@AGK@@QAE@XZ 00456f20 f   AGKWindows:Particles.obj
 0001:00055ff0       ?SetSpriteManager@cParticleEmitter@AGK@@QAEXPAVcSpriteMgr@2@@Z 00456ff0 f   AGKWindows:Particles.obj
 0001:00056040       ?SetID@cEditBox@AGK@@QAEXI@Z 00457040 f   AGKWindows:cTextEntry.obj
 0001:00056050       ?SetDepth@cEditBox@AGK@@QAEXH@Z 00457050 f   AGKWindows:cTextEntry.obj
 0001:000560a0       ?SetBorderColor@cEditBox@AGK@@QAEXIIII@Z 004570a0 f   AGKWindows:cTextEntry.obj
 0001:000560b0       ?SetBackgroundColor@cEditBox@AGK@@QAEXIIII@Z 004570b0 f   AGKWindows:cTextEntry.obj
 0001:000560c0       ?SetTextColor@cEditBox@AGK@@QAEXIII@Z 004570c0 f   AGKWindows:cTextEntry.obj
 0001:000560e0       ?SetCursorColor@cEditBox@AGK@@QAEXIII@Z 004570e0 f   AGKWindows:cTextEntry.obj
 0001:00056100       ?SetFontImage@cEditBox@AGK@@QAEXPAVcImage@2@@Z 00457100 f   AGKWindows:cTextEntry.obj
 0001:00056120       ?SetTextSize@cEditBox@AGK@@QAEXM@Z 00457120 f   AGKWindows:cTextEntry.obj
 0001:00056180       ?SetFocus@cEditBox@AGK@@QAEX_N@Z 00457180 f   AGKWindows:cTextEntry.obj
 0001:000561a0       ?SetActive@cEditBox@AGK@@QAEX_N@Z 004571a0 f   AGKWindows:cTextEntry.obj
 0001:000561b0       ?SetVisible@cEditBox@AGK@@QAEX_N@Z 004571b0 f   AGKWindows:cTextEntry.obj
 0001:000561c0       ?SetBorderImage@cEditBox@AGK@@QAEXPAVcImage@2@@Z 004571c0 f   AGKWindows:cTextEntry.obj
 0001:000561e0       ?SetBackgroundImage@cEditBox@AGK@@QAEXPAVcImage@2@@Z 004571e0 f   AGKWindows:cTextEntry.obj
 0001:00056200       ?SetCursorBlinkTime@cEditBox@AGK@@QAEXM@Z 00457200 f   AGKWindows:cTextEntry.obj
 0001:00056230       ?SetCursorWidth@cEditBox@AGK@@QAEXM@Z 00457230 f   AGKWindows:cTextEntry.obj
 0001:00056270       ?SetText@cEditBox@AGK@@QAEXPBD@Z 00457270 f   AGKWindows:cTextEntry.obj
 0001:00056290       ?SetCursorLocation@cEditBox@AGK@@QAEXMM@Z 00457290 f   AGKWindows:cTextEntry.obj
 0001:00056470       ?SetMaxChars@cEditBox@AGK@@QAEXI@Z 00457470 f   AGKWindows:cTextEntry.obj
 0001:00056480       ?SetMultiLine@cEditBox@AGK@@QAEX_N@Z 00457480 f   AGKWindows:cTextEntry.obj
 0001:000564c0       ?SetMaxLines@cEditBox@AGK@@QAEXI@Z 004574c0 f   AGKWindows:cTextEntry.obj
 0001:000564d0       ?SetScissor@cEditBox@AGK@@QAEXMMMM@Z 004574d0 f   AGKWindows:cTextEntry.obj
 0001:00056590       ?FixToScreen@cEditBox@AGK@@QAEX_N@Z 00457590 f   AGKWindows:cTextEntry.obj
 0001:000565d0       ?GetDepthChanged@cEditBox@AGK@@QAE_NXZ 004575d0 f   AGKWindows:cTextEntry.obj
 0001:000565e0       ?GetHitTest@cEditBox@AGK@@QAE_NMM@Z 004575e0 f   AGKWindows:cTextEntry.obj
 0001:00056660       ?ParametersChanged@cEditBox@AGK@@IAEXXZ 00457660 f   AGKWindows:cTextEntry.obj
 0001:000567b0       ?Update@cEditBox@AGK@@QAEXXZ 004577b0 f   AGKWindows:cTextEntry.obj
 0001:00056da0       ?Draw@cEditBox@AGK@@QAEXXZ 00457da0 f   AGKWindows:cTextEntry.obj
 0001:00057350       ??0cEditBox@AGK@@QAE@XZ    00458350 f   AGKWindows:cTextEntry.obj
 0001:000575a0       ??1cEditBox@AGK@@QAE@XZ    004585a0 f   AGKWindows:cTextEntry.obj
 0001:00057650       ?SetPosition@cEditBox@AGK@@QAEXMM@Z 00458650 f   AGKWindows:cTextEntry.obj
 0001:00057670       ?SetSize@cEditBox@AGK@@QAEXMM@Z 00458670 f   AGKWindows:cTextEntry.obj
 0001:00057690       ?SetBorderSize@cEditBox@AGK@@QAEXM@Z 00458690 f   AGKWindows:cTextEntry.obj
 0001:000576d0       ?GetText@cEditBox@AGK@@QAEPADXZ 004586d0 f   AGKWindows:cTextEntry.obj
 0001:00057780       ??0ZipFile@AGK@@QAE@XZ     00458780 f   AGKWindows:ZipFile.obj
 0001:00057790       ??1ZipFile@AGK@@QAE@XZ     00458790 f   AGKWindows:ZipFile.obj
 0001:000577b0       ?Create@ZipFile@AGK@@QAEXPBD@Z 004587b0 f   AGKWindows:ZipFile.obj
 0001:00057880       ?AddEntry@ZipFile@AGK@@QAE_NPBD0@Z 00458880 f   AGKWindows:ZipFile.obj
 0001:00057aa0       ?Close@ZipFile@AGK@@QAEXXZ 00458aa0 f   AGKWindows:ZipFile.obj
 0001:00057ac0       ?ExtractAll@ZipFile@AGK@@SA_NPBD0@Z 00458ac0 f   AGKWindows:ZipFile.obj
 0001:00057ea0       ?Normalize@b2Vec2@@QAEMXZ  00458ea0 f i AGKWindows:b2World.obj
 0001:00057f10       ?Advance@b2Sweep@@QAEXM@Z  00458f10 f i AGKWindows:b2World.obj
 0001:00057fa0       ?Advance@b2Body@@AAEXM@Z   00458fa0 f i AGKWindows:b2World.obj
 0001:00058040       ??1b2ContactManager@@QAE@XZ 00459040 f i AGKWindows:b2World.obj
 0001:00058050       ??1b2World@@QAE@XZ         00459050 f   AGKWindows:b2World.obj
 0001:00058100       ?SetDestructionListener@b2World@@QAEXPAVb2DestructionListener@@@Z 00459100 f   AGKWindows:b2World.obj
 0001:00058110       ?SetContactFilter@b2World@@QAEXPAVb2ContactFilter@@@Z 00459110 f   AGKWindows:b2World.obj
 0001:00058120       ?SetContactListener@b2World@@QAEXPAVb2ContactListener@@@Z 00459120 f   AGKWindows:b2World.obj
 0001:00058130       ?SetDebugDraw@b2World@@QAEXPAVb2Draw@@@Z 00459130 f   AGKWindows:b2World.obj
 0001:00058140       ?CreateBody@b2World@@QAEPAVb2Body@@PBUb2BodyDef@@@Z 00459140 f   AGKWindows:b2World.obj
 0001:000581f0       ?CreateJoint@b2World@@QAEPAVb2Joint@@PBUb2JointDef@@@Z 004591f0 f   AGKWindows:b2World.obj
 0001:000582d0       ?DestroyJoint@b2World@@QAEXPAVb2Joint@@@Z 004592d0 f   AGKWindows:b2World.obj
 0001:000583f0       ?Solve@b2World@@AAEXABUb2TimeStep@@@Z 004593f0 f   AGKWindows:b2World.obj
 0001:00058710       ?ClearForces@b2World@@QAEXXZ 00459710 f   AGKWindows:b2World.obj
 0001:00058730       ?DrawShape@b2World@@AAEXPAVb2Fixture@@ABUb2Transform@@ABUb2Color@@@Z 00459730 f   AGKWindows:b2World.obj
 0001:00058ae0       ?DrawJoint@b2World@@AAEXPAVb2Joint@@@Z 00459ae0 f   AGKWindows:b2World.obj
 0001:00058c30       ?DrawDebugData@b2World@@QAEXXZ 00459c30 f   AGKWindows:b2World.obj
 0001:00058f00       ?GetProxyCount@b2World@@QBEHXZ 00459f00 f   AGKWindows:b2World.obj
 0001:00058f10       ?GetTreeHeight@b2World@@QBEHXZ 00459f10 f   AGKWindows:b2World.obj
 0001:00058f20       ?GetTreeBalance@b2World@@QBEHXZ 00459f20 f   AGKWindows:b2World.obj
 0001:00058f30       ?GetTreeQuality@b2World@@QBEMXZ 00459f30 f   AGKWindows:b2World.obj
 0001:00058f40       ??0b2World@@QAE@ABUb2Vec2@@_N@Z 00459f40 f   AGKWindows:b2World.obj
 0001:00059040       ?DestroyBody@b2World@@QAEXPAVb2Body@@@Z 0045a040 f   AGKWindows:b2World.obj
 0001:00059170       ?SolveTOI@b2World@@AAEXABUb2TimeStep@@@Z 0045a170 f   AGKWindows:b2World.obj
 0001:00059c60       ?Step@b2World@@QAEXMHH@Z   0045ac60 f   AGKWindows:b2World.obj
 0001:00059dd0       ?QueryAABB@b2World@@QBEXPAVb2QueryCallback@@ABUb2AABB@@@Z 0045add0 f   AGKWindows:b2World.obj
 0001:00059e00       ?RayCast@b2World@@QBEXPAVb2RayCastCallback@@ABUb2Vec2@@1@Z 0045ae00 f   AGKWindows:b2World.obj
 0001:00059e50       ??$b2Max@M@@YAMMM@Z        0045ae50 f i AGKWindows:b2World.obj
 0001:00059e80       ??1?$b2GrowableStack@H$0BAA@@@QAE@XZ 0045ae80 f i AGKWindows:b2World.obj
 0001:00059ea0       ?Push@?$b2GrowableStack@H$0BAA@@@QAEXABH@Z 0045aea0 f i AGKWindows:b2World.obj
 0001:00059f10       ?b2Min@@YA?AUb2Vec2@@ABU1@0@Z 0045af10 f i AGKWindows:b2World.obj
 0001:00059f80       ?b2Max@@YA?AUb2Vec2@@ABU1@0@Z 0045af80 f i AGKWindows:b2World.obj
 0001:00059ff0       ?RayCastCallback@b2WorldRayCastWrapper@@QAEMABUb2RayCastInput@@H@Z 0045aff0 f i AGKWindows:b2World.obj
 0001:0005a0d0       ??$Query@Ub2WorldQueryWrapper@@@b2DynamicTree@@QBEXPAUb2WorldQueryWrapper@@ABUb2AABB@@@Z 0045b0d0 f i AGKWindows:b2World.obj
 0001:0005a270       ??$RayCast@Ub2WorldRayCastWrapper@@@b2DynamicTree@@QBEXPAUb2WorldRayCastWrapper@@ABUb2RayCastInput@@@Z 0045b270 f i AGKWindows:b2World.obj
 0001:0005a870       ?GetDepth@cSpriteContainer@AGK@@QAEMXZ 0045b870 f i AGKWindows:cSpriteMgr.obj
 0001:0005a8d0       ?GetTextureID@cSpriteContainer@AGK@@QAEIXZ 0045b8d0 f i AGKWindows:cSpriteMgr.obj
 0001:0005a920       ?CheckDepthChanged@cSpriteContainer@AGK@@QAE_NXZ 0045b920 f i AGKWindows:cSpriteMgr.obj
 0001:0005a970       ?CheckTextureChanged@cSpriteContainer@AGK@@QAE_NXZ 0045b970 f i AGKWindows:cSpriteMgr.obj
 0001:0005a9a0       ??0cSpriteMgr@AGK@@QAE@XZ  0045b9a0 f   AGKWindows:cSpriteMgr.obj
 0001:0005a9e0       ?ClearAll@cSpriteMgr@AGK@@QAEXXZ 0045b9e0 f   AGKWindows:cSpriteMgr.obj
 0001:0005aab0       ?SetSortTextures@cSpriteMgr@AGK@@QAEX_N@Z 0045bab0 f   AGKWindows:cSpriteMgr.obj
 0001:0005aac0       ?SetSortDepth@cSpriteMgr@AGK@@QAEX_N@Z 0045bac0 f   AGKWindows:cSpriteMgr.obj
 0001:0005aad0       ?SetSortTransparentDepth@cSpriteMgr@AGK@@QAEX_N@Z 0045bad0 f   AGKWindows:cSpriteMgr.obj
 0001:0005aae0       ?AddContainer@cSpriteMgr@AGK@@IAE_NPAVcSpriteContainer@2@@Z 0045bae0 f   AGKWindows:cSpriteMgr.obj
 0001:0005aed0       ?RemoveSprite@cSpriteMgr@AGK@@QAEXPAVcSprite@2@@Z 0045bed0 f   AGKWindows:cSpriteMgr.obj
 0001:0005afe0       ?RemoveParticles@cSpriteMgr@AGK@@QAEXPAVcParticleEmitter@2@@Z 0045bfe0 f   AGKWindows:cSpriteMgr.obj
 0001:0005b0e0       ?RemoveText@cSpriteMgr@AGK@@QAEXPAVcText@2@@Z 0045c0e0 f   AGKWindows:cSpriteMgr.obj
 0001:0005b1e0       ?RemoveEditBox@cSpriteMgr@AGK@@QAEXPAVcEditBox@2@@Z 0045c1e0 f   AGKWindows:cSpriteMgr.obj
 0001:0005b2e0       ?SetQuality@cSpriteMgr@AGK@@QAEXH@Z 0045c2e0 f   AGKWindows:cSpriteMgr.obj
 0001:0005b2f0       ?UpdateAll@cSpriteMgr@AGK@@UAEXM@Z 0045c2f0 f   AGKWindows:cSpriteMgr.obj
 0001:0005b370       ?DrawList@cSpriteMgr@AGK@@IAEXPAVcSpriteContainer@2@H@Z 0045c370 f   AGKWindows:cSpriteMgr.obj
 0001:0005b640       ?DrawDebug@cSpriteMgr@AGK@@QAEXXZ 0045c640 f   AGKWindows:cSpriteMgr.obj
 0001:0005bc30       ??1cSpriteMgr@AGK@@QAE@XZ  0045cc30 f   AGKWindows:cSpriteMgr.obj
 0001:0005bcf0       ?AddSprite@cSpriteMgr@AGK@@QAEXPAVcSprite@2@@Z 0045ccf0 f   AGKWindows:cSpriteMgr.obj
 0001:0005bd50       ?AddParticles@cSpriteMgr@AGK@@QAEXPAVcParticleEmitter@2@@Z 0045cd50 f   AGKWindows:cSpriteMgr.obj
 0001:0005bda0       ?AddText@cSpriteMgr@AGK@@QAEXPAVcText@2@@Z 0045cda0 f   AGKWindows:cSpriteMgr.obj
 0001:0005bdf0       ?AddEditBox@cSpriteMgr@AGK@@QAEXPAVcEditBox@2@@Z 0045cdf0 f   AGKWindows:cSpriteMgr.obj
 0001:0005be40       ?DrawAll@cSpriteMgr@AGK@@UAEXXZ 0045ce40 f   AGKWindows:cSpriteMgr.obj
 0001:0005c3c0       ?DrawString@DebugDraw@AGK@@QAAXHHPBDZZ 0045d3c0 f   AGKWindows:DebugDraw.obj
 0001:0005c3d0       ?DrawAABB@DebugDraw@AGK@@QAEXPAUb2AABB@@ABUb2Color@@@Z 0045d3d0 f   AGKWindows:DebugDraw.obj
 0001:0005c3e0       ?SayGoodbye@MyDestructionListener@AGK@@EAEXPAVb2Joint@@@Z 0045d3e0 f   AGKWindows:DebugDraw.obj
 0001:0005c400       ?Reset@MyRayCastCallback@AGK@@QAEXXZ 0045d400 f   AGKWindows:DebugDraw.obj
 0001:0005c420       ?ReportFixture@MyRayCastCallback@AGK@@UAEMPAVb2Fixture@@ABUb2Vec2@@1M@Z 0045d420 f   AGKWindows:DebugDraw.obj
 0001:0005c480       ??0MyRayCastCallback@AGK@@QAE@XZ 0045d480 f   AGKWindows:DebugDraw.obj
 0001:0005c4a0       ??_EMyRayCastCallback@AGK@@UAEPAXI@Z 0045d4a0 f i AGKWindows:DebugDraw.obj
 0001:0005c4a0       ??_GMyRayCastCallback@AGK@@UAEPAXI@Z 0045d4a0 f i AGKWindows:DebugDraw.obj
 0001:0005c4a0       ??_Eb2RayCastCallback@@UAEPAXI@Z 0045d4a0 f i AGKWindows:Wrapper.obj
 0001:0005c4a0       ??_Gb2RayCastCallback@@UAEPAXI@Z 0045d4a0 f i AGKWindows:Wrapper.obj
 0001:0005c4d0       ?Reset@cTouch@AGK@@QAEXXZ  0045d4d0 f   AGKWindows:cTouch.obj
 0001:0005c510       ?Moved@cTouch@AGK@@QAEXMM@Z 0045d510 f   AGKWindows:cTouch.obj
 0001:0005c580       ?Pressed@cTouch@AGK@@QAEXMM@Z 0045d580 f   AGKWindows:cTouch.obj
 0001:0005c5d0       ?Released@cTouch@AGK@@QAEXMM@Z 0045d5d0 f   AGKWindows:cTouch.obj
 0001:0005c630       ?SetData@cTouch@AGK@@QAEXH@Z 0045d630 f   AGKWindows:cTouch.obj
 0001:0005c640       ?GetData@cTouch@AGK@@QAEHXZ 0045d640 f   AGKWindows:cTouch.obj
 0001:0005c650       ?GetAnyX@cTouch@AGK@@SAMXZ 0045d650 f   AGKWindows:cTouch.obj
 0001:0005c660       ?GetAnyY@cTouch@AGK@@SAMXZ 0045d660 f   AGKWindows:cTouch.obj
 0001:0005c670       ?GetAny@cTouch@AGK@@SA_NXZ 0045d670 f   AGKWindows:cTouch.obj
 0001:0005c6a0       ?GetCount@cTouch@AGK@@SAI_N@Z 0045d6a0 f   AGKWindows:cTouch.obj
 0001:0005c770       ?GetFirstEvent@cTouch@AGK@@SAPAV12@_N@Z 0045d770 f   AGKWindows:cTouch.obj
 0001:0005c7d0       ?GetNextEvent@cTouch@AGK@@SAPAV12@XZ 0045d7d0 f   AGKWindows:cTouch.obj
 0001:0005c830       ?UpdateEvents@cTouch@AGK@@SAXXZ 0045d830 f   AGKWindows:cTouch.obj
 0001:0005ce60       ?GetEvent@cTouch@AGK@@SAPAV12@I@Z 0045de60 f   AGKWindows:cTouch.obj
 0001:0005ceb0       ?NewPoint@cTouch@AGK@@SAPAV12@I@Z 0045deb0 f   AGKWindows:cTouch.obj
 0001:0005cfa0       ??0cTouch@AGK@@QAE@XZ      0045dfa0 f i AGKWindows:cTouch.obj
 0001:0005cfe0       ??0cMusicMgr@AGK@@QAE@XZ   0045dfe0 f   AGKWindows:cSound.obj
 0001:0005d010       ?Exists@cMusicMgr@AGK@@QAEII@Z 0045e010 f   AGKWindows:cSound.obj
 0001:0005d040       ?SetFileVolume@cMusicMgr@AGK@@QAEXIH@Z 0045e040 f   AGKWindows:cSound.obj
 0001:0005d080       ?CurrentlyPlaying@cMusicMgr@AGK@@QAEIXZ 0045e080 f   AGKWindows:cSound.obj
 0001:0005d0b0       ??0cSoundFile@cSoundMgr@AGK@@QAE@XZ 0045e0b0 f   AGKWindows:cSound.obj
 0001:0005d0e0       ??1cSoundFile@cSoundMgr@AGK@@QAE@XZ 0045e0e0 f   AGKWindows:cSound.obj
 0001:0005d140       ?Init@cSoundMgr@AGK@@SAXXZ 0045e140 f   AGKWindows:cSound.obj
 0001:0005d160       ?UpdateSounds@cSoundMgr@AGK@@SAXXZ 0045e160 f   AGKWindows:cSound.obj
 0001:0005d170       ?SetVolume@cSoundMgr@AGK@@SAXH@Z 0045e170 f   AGKWindows:cSound.obj
 0001:0005d1a0       ?PlayInstance@cSoundMgr@AGK@@SAXIHHH@Z 0045e1a0 f   AGKWindows:cSound.obj
 0001:0005d2a0       ?StopAll@cSoundMgr@AGK@@SAXI@Z 0045e2a0 f   AGKWindows:cSound.obj
 0001:0005d350       ?DeleteFileA@cSoundMgr@AGK@@SAXI@Z 0045e350 f   AGKWindows:cSound.obj
 0001:0005d4b0       ?CountInstances@cSoundMgr@AGK@@SAII@Z 0045e4b0 f   AGKWindows:cSound.obj
 0001:0005d570       ?Exists@cSoundMgr@AGK@@SAII@Z 0045e570 f   AGKWindows:cSound.obj
 0001:0005d5a0       ?AddFile@cMusicMgr@AGK@@QAEIABVuString@2@@Z 0045e5a0 f   AGKWindows:cSound.obj
 0001:0005d6f0       ?AddFile@cMusicMgr@AGK@@QAEXIABVuString@2@@Z 0045e6f0 f   AGKWindows:cSound.obj
 0001:0005d890       ?ClearAll@cMusicMgr@AGK@@QAEXXZ 0045e890 f   AGKWindows:cSound.obj
 0001:0005d8c0       ?AddFile@cSoundMgr@AGK@@SAXIABVuString@2@H@Z 0045e8c0 f   AGKWindows:cSound.obj
 0001:0005dfe0       ??1cMusicMgr@AGK@@QAE@XZ   0045efe0 f   AGKWindows:cSound.obj
 0001:0005e010       ?RemoveFile@cMusicMgr@AGK@@QAEXI@Z 0045f010 f   AGKWindows:cSound.obj
 0001:0005e100       ?AddFile@cSoundMgr@AGK@@SAIABVuString@2@H@Z 0045f100 f   AGKWindows:cSound.obj
 0001:0005e1f0       ?SetAsBox@b2PolygonShape@@QAEXMM@Z 0045f1f0 f   AGKWindows:b2PolygonShape.obj
 0001:0005e280       ?SetAsBox@b2PolygonShape@@QAEXMMABUb2Vec2@@M@Z 0045f280 f   AGKWindows:b2PolygonShape.obj
 0001:0005e3d0       ?GetChildCount@b2PolygonShape@@UBEHXZ 0045f3d0 f   AGKWindows:b2PolygonShape.obj
 0001:0005e800       ?Set@b2PolygonShape@@QAEXPBUb2Vec2@@H@Z 0045f800 f   AGKWindows:b2PolygonShape.obj
 0001:0005e920       ?TestPoint@b2PolygonShape@@UBE_NABUb2Transform@@ABUb2Vec2@@@Z 0045f920 f   AGKWindows:b2PolygonShape.obj
 0001:0005e9d0       ?RayCast@b2PolygonShape@@UBE_NPAUb2RayCastOutput@@ABUb2RayCastInput@@ABUb2Transform@@H@Z 0045f9d0 f   AGKWindows:b2PolygonShape.obj
 0001:0005ebc0       ?ComputeMass@b2PolygonShape@@UBEXPAUb2MassData@@M@Z 0045fbc0 f   AGKWindows:b2PolygonShape.obj
 0001:0005ee60       ?ComputeAABB@b2PolygonShape@@UBEXPAUb2AABB@@ABUb2Transform@@H@Z 0045fe60 f   AGKWindows:b2PolygonShape.obj
 0001:0005f230       ?Clone@b2PolygonShape@@UBEPAVb2Shape@@PAVb2BlockAllocator@@@Z 00460230 f   AGKWindows:b2PolygonShape.obj
 0001:0005f280       ??1b2Body@@AAE@XZ          00460280 f   AGKWindows:b2Body.obj
 0001:0005f290       ?SetMassData@b2Body@@QAEXPBUb2MassData@@@Z 00460290 f   AGKWindows:b2Body.obj
 0001:0005f3c0       ?ShouldCollide@b2Body@@ABE_NPBV1@@Z 004603c0 f   AGKWindows:b2Body.obj
 0001:0005f400       ?SetTransform@b2Body@@QAEXABUb2Vec2@@M@Z 00460400 f   AGKWindows:b2Body.obj
 0001:0005f4d0       ?SynchronizeFixtures@b2Body@@AAEXXZ 004604d0 f   AGKWindows:b2Body.obj
 0001:0005f580       ?SetActive@b2Body@@QAEX_N@Z 00460580 f   AGKWindows:b2Body.obj
 0001:0005f630       ??0b2Body@@AAE@PBUb2BodyDef@@PAVb2World@@@Z 00460630 f   AGKWindows:b2Body.obj
 0001:0005f770       ?ResetMassData@b2Body@@QAEXXZ 00460770 f   AGKWindows:b2Body.obj
 0001:0005f980       ?SetType@b2Body@@QAEXW4b2BodyType@@@Z 00460980 f   AGKWindows:b2Body.obj
 0001:0005fa10       ?CreateFixture@b2Body@@QAEPAVb2Fixture@@PBUb2FixtureDef@@@Z 00460a10 f   AGKWindows:b2Body.obj
 0001:0005fb00       ?CreateFixture@b2Body@@QAEPAVb2Fixture@@PBVb2Shape@@M@Z 00460b00 f   AGKWindows:b2Body.obj
 0001:0005fb50       ?DestroyFixture@b2Body@@QAEXPAVb2Fixture@@@Z 00460b50 f   AGKWindows:b2Body.obj
 0001:0005fc00       ?Solve@b2Mat22@@QBE?AUb2Vec2@@ABU2@@Z 00460c00 f i AGKWindows:b2RevoluteJoint.obj
 0001:0005fc90       ?Initialize@b2RevoluteJointDef@@QAEXPAVb2Body@@0ABUb2Vec2@@@Z 00460c90 f   AGKWindows:b2RevoluteJoint.obj
 0001:0005fd70       ??0b2RevoluteJoint@@IAE@PBUb2RevoluteJointDef@@@Z 00460d70 f   AGKWindows:b2RevoluteJoint.obj
 0001:0005fdf0       ?GetAnchorA@b2RevoluteJoint@@UBE?AUb2Vec2@@XZ 00460df0 f   AGKWindows:b2RevoluteJoint.obj
 0001:0005fe30       ?GetAnchorB@b2RevoluteJoint@@UBE?AUb2Vec2@@XZ 00460e30 f   AGKWindows:b2RevoluteJoint.obj
 0001:0005fe70       ?GetReactionForce@b2RevoluteJoint@@UBE?AUb2Vec2@@M@Z 00460e70 f   AGKWindows:b2RevoluteJoint.obj
 0001:0005fea0       ?GetReactionTorque@b2RevoluteJoint@@UBEMM@Z 00460ea0 f   AGKWindows:b2RevoluteJoint.obj
 0001:0005fec0       ?GetJointAngle@b2RevoluteJoint@@QBEMXZ 00460ec0 f   AGKWindows:b2RevoluteJoint.obj
 0001:0005fee0       ?GetJointSpeed@b2RevoluteJoint@@QBEMXZ 00460ee0 f   AGKWindows:b2RevoluteJoint.obj
 0001:0005ff00       ?IsMotorEnabled@b2RevoluteJoint@@QBE_NXZ 00460f00 f   AGKWindows:b2RevoluteJoint.obj
 0001:0005ff10       ?EnableMotor@b2RevoluteJoint@@QAEX_N@Z 00460f10 f   AGKWindows:b2RevoluteJoint.obj
 0001:0005ff60       ?GetMotorTorque@b2RevoluteJoint@@QBEMM@Z 00460f60 f   AGKWindows:b2RevoluteJoint.obj
 0001:0005ff80       ?SetMotorSpeed@b2RevoluteJoint@@QAEXM@Z 00460f80 f   AGKWindows:b2RevoluteJoint.obj
 0001:0005ffd0       ?SetMaxMotorTorque@b2RevoluteJoint@@QAEXM@Z 00460fd0 f   AGKWindows:b2RevoluteJoint.obj
 0001:00060020       ?IsLimitEnabled@b2RevoluteJoint@@QBE_NXZ 00461020 f   AGKWindows:b2RevoluteJoint.obj
 0001:00060030       ?EnableLimit@b2RevoluteJoint@@QAEX_N@Z 00461030 f   AGKWindows:b2RevoluteJoint.obj
 0001:00060080       ?GetLowerLimit@b2RevoluteJoint@@QBEMXZ 00461080 f   AGKWindows:b2RevoluteJoint.obj
 0001:00060090       ?GetUpperLimit@b2RevoluteJoint@@QBEMXZ 00461090 f   AGKWindows:b2RevoluteJoint.obj
 0001:000600a0       ?SetLimits@b2RevoluteJoint@@QAEXMM@Z 004610a0 f   AGKWindows:b2RevoluteJoint.obj
 0001:00060110       ?InitVelocityConstraints@b2RevoluteJoint@@MAEXABUb2SolverData@@@Z 00461110 f   AGKWindows:b2RevoluteJoint.obj
 0001:00060620       ?SolveVelocityConstraints@b2RevoluteJoint@@MAEXABUb2SolverData@@@Z 00461620 f   AGKWindows:b2RevoluteJoint.obj
 0001:00060bd0       ?SolvePositionConstraints@b2RevoluteJoint@@MAE_NABUb2SolverData@@@Z 00461bd0 f   AGKWindows:b2RevoluteJoint.obj
 0001:00061060       ??$b2Clamp@M@@YAMMMM@Z     00462060 f i AGKWindows:b2RevoluteJoint.obj
 0001:000610a0       ?Initialize@b2PrismaticJointDef@@QAEXPAVb2Body@@0ABUb2Vec2@@1@Z 004620a0 f   AGKWindows:b2PrismaticJoint.obj
 0001:000611b0       ??0b2PrismaticJoint@@IAE@PBUb2PrismaticJointDef@@@Z 004621b0 f   AGKWindows:b2PrismaticJoint.obj
 0001:00061280       ?GetAnchorA@b2PrismaticJoint@@UBE?AUb2Vec2@@XZ 00462280 f   AGKWindows:b2PrismaticJoint.obj
 0001:000612c0       ?GetAnchorB@b2PrismaticJoint@@UBE?AUb2Vec2@@XZ 004622c0 f   AGKWindows:b2PrismaticJoint.obj
 0001:00061300       ?GetReactionForce@b2PrismaticJoint@@UBE?AUb2Vec2@@M@Z 00462300 f   AGKWindows:b2PrismaticJoint.obj
 0001:00061380       ?GetReactionTorque@b2PrismaticJoint@@UBEMM@Z 00462380 f   AGKWindows:b2PrismaticJoint.obj
 0001:000613a0       ?GetJointTranslation@b2PrismaticJoint@@QBEMXZ 004623a0 f   AGKWindows:b2PrismaticJoint.obj
 0001:00061450       ?GetJointSpeed@b2PrismaticJoint@@QBEMXZ 00462450 f   AGKWindows:b2PrismaticJoint.obj
 0001:00061610       ?IsLimitEnabled@b2PrismaticJoint@@QBE_NXZ 00462610 f   AGKWindows:b2PrismaticJoint.obj
 0001:00061620       ?EnableLimit@b2PrismaticJoint@@QAEX_N@Z 00462620 f   AGKWindows:b2PrismaticJoint.obj
 0001:00061670       ?GetLowerLimit@b2PrismaticJoint@@QBEMXZ 00462670 f   AGKWindows:b2PrismaticJoint.obj
 0001:00061680       ?GetUpperLimit@b2PrismaticJoint@@QBEMXZ 00462680 f   AGKWindows:b2PrismaticJoint.obj
 0001:00061690       ?SetLimits@b2PrismaticJoint@@QAEXMM@Z 00462690 f   AGKWindows:b2PrismaticJoint.obj
 0001:00061700       ?IsMotorEnabled@b2PrismaticJoint@@QBE_NXZ 00462700 f   AGKWindows:b2PrismaticJoint.obj
 0001:00061710       ?EnableMotor@b2PrismaticJoint@@QAEX_N@Z 00462710 f   AGKWindows:b2PrismaticJoint.obj
 0001:00061770       ?SetMotorSpeed@b2PrismaticJoint@@QAEXM@Z 00462770 f   AGKWindows:b2PrismaticJoint.obj
 0001:000617d0       ?SetMaxMotorForce@b2PrismaticJoint@@QAEXM@Z 004627d0 f   AGKWindows:b2PrismaticJoint.obj
 0001:00061820       ?GetMotorForce@b2PrismaticJoint@@QBEMM@Z 00462820 f   AGKWindows:b2PrismaticJoint.obj
 0001:00061840       ?InitVelocityConstraints@b2PrismaticJoint@@MAEXABUb2SolverData@@@Z 00462840 f   AGKWindows:b2PrismaticJoint.obj
 0001:00061eb0       ?SolveVelocityConstraints@b2PrismaticJoint@@MAEXABUb2SolverData@@@Z 00462eb0 f   AGKWindows:b2PrismaticJoint.obj
 0001:000624d0       ?SolvePositionConstraints@b2PrismaticJoint@@MAE_NABUb2SolverData@@@Z 004634d0 f   AGKWindows:b2PrismaticJoint.obj
 0001:00062c40       ?Initialize@b2WheelJointDef@@QAEXPAVb2Body@@0ABUb2Vec2@@1@Z 00463c40 f   AGKWindows:b2WheelJoint.obj
 0001:00062d20       ??0b2WheelJoint@@IAE@PBUb2WheelJointDef@@@Z 00463d20 f   AGKWindows:b2WheelJoint.obj
 0001:00062df0       ?InitVelocityConstraints@b2WheelJoint@@MAEXABUb2SolverData@@@Z 00463df0 f   AGKWindows:b2WheelJoint.obj
 0001:00063450       ?GetAnchorA@b2WheelJoint@@UBE?AUb2Vec2@@XZ 00464450 f   AGKWindows:b2WheelJoint.obj
 0001:00063490       ?GetAnchorB@b2WheelJoint@@UBE?AUb2Vec2@@XZ 00464490 f   AGKWindows:b2WheelJoint.obj
 0001:000634d0       ?GetReactionForce@b2WheelJoint@@UBE?AUb2Vec2@@M@Z 004644d0 f   AGKWindows:b2WheelJoint.obj
 0001:00063550       ?GetReactionTorque@b2WheelJoint@@UBEMM@Z 00464550 f   AGKWindows:b2WheelJoint.obj
 0001:00063570       ?GetJointTranslation@b2WheelJoint@@QBEMXZ 00464570 f   AGKWindows:b2WheelJoint.obj
 0001:00063620       ?GetJointSpeed@b2WheelJoint@@QBEMXZ 00464620 f   AGKWindows:b2WheelJoint.obj
 0001:00063640       ?IsMotorEnabled@b2WheelJoint@@QBE_NXZ 00464640 f   AGKWindows:b2WheelJoint.obj
 0001:00063650       ?EnableMotor@b2WheelJoint@@QAEX_N@Z 00464650 f   AGKWindows:b2WheelJoint.obj
 0001:000636a0       ?SetMotorSpeed@b2WheelJoint@@QAEXM@Z 004646a0 f   AGKWindows:b2WheelJoint.obj
 0001:000636f0       ?SetMaxMotorTorque@b2WheelJoint@@QAEXM@Z 004646f0 f   AGKWindows:b2WheelJoint.obj
 0001:00063740       ?GetMotorTorque@b2WheelJoint@@QBEMM@Z 00464740 f   AGKWindows:b2WheelJoint.obj
 0001:00063760       ?SolveVelocityConstraints@b2WheelJoint@@MAEXABUb2SolverData@@@Z 00464760 f   AGKWindows:b2WheelJoint.obj
 0001:00063ae0       ?SolvePositionConstraints@b2WheelJoint@@MAE_NABUb2SolverData@@@Z 00464ae0 f   AGKWindows:b2WheelJoint.obj
 0001:00063e50       ??_Gb2RevoluteJoint@@UAEPAXI@Z 00464e50 f i AGKWindows:b2RevoluteJoint.obj
 0001:00063e50       ??_Gb2PrismaticJoint@@UAEPAXI@Z 00464e50 f i AGKWindows:b2PrismaticJoint.obj
 0001:00063e50       ??_Gb2RopeJoint@@UAEPAXI@Z 00464e50 f i AGKWindows:b2RopeJoint.obj
 0001:00063e50       ??_Eb2WheelJoint@@UAEPAXI@Z 00464e50 f i AGKWindows:b2WheelJoint.obj
 0001:00063e50       ??_Eb2WeldJoint@@UAEPAXI@Z 00464e50 f i AGKWindows:b2WeldJoint.obj
 0001:00063e50       ??_Eb2GearJoint@@UAEPAXI@Z 00464e50 f i AGKWindows:b2GearJoint.obj
 0001:00063e50       ??_Gb2Joint@@MAEPAXI@Z     00464e50 f i AGKWindows:b2RevoluteJoint.obj
 0001:00063e50       ??_Eb2DistanceJoint@@UAEPAXI@Z 00464e50 f i AGKWindows:b2DistanceJoint.obj
 0001:00063e50       ??_Gb2WheelJoint@@UAEPAXI@Z 00464e50 f i AGKWindows:b2WheelJoint.obj
 0001:00063e50       ??_Gb2FrictionJoint@@UAEPAXI@Z 00464e50 f i AGKWindows:b2FrictionJoint.obj
 0001:00063e50       ??_Eb2PulleyJoint@@UAEPAXI@Z 00464e50 f i AGKWindows:b2PulleyJoint.obj
 0001:00063e50       ??_Gb2DistanceJoint@@UAEPAXI@Z 00464e50 f i AGKWindows:b2DistanceJoint.obj
 0001:00063e50       ??_Eb2RopeJoint@@UAEPAXI@Z 00464e50 f i AGKWindows:b2RopeJoint.obj
 0001:00063e50       ??_Eb2FrictionJoint@@UAEPAXI@Z 00464e50 f i AGKWindows:b2FrictionJoint.obj
 0001:00063e50       ??_Eb2RevoluteJoint@@UAEPAXI@Z 00464e50 f i AGKWindows:b2RevoluteJoint.obj
 0001:00063e50       ??_Eb2MouseJoint@@UAEPAXI@Z 00464e50 f i AGKWindows:b2MouseJoint.obj
 0001:00063e50       ??_Eb2PrismaticJoint@@UAEPAXI@Z 00464e50 f i AGKWindows:b2PrismaticJoint.obj
 0001:00063e50       ??_Gb2MouseJoint@@UAEPAXI@Z 00464e50 f i AGKWindows:b2MouseJoint.obj
 0001:00063e50       ??_Gb2PulleyJoint@@UAEPAXI@Z 00464e50 f i AGKWindows:b2PulleyJoint.obj
 0001:00063e50       ??_Eb2Joint@@MAEPAXI@Z     00464e50 f i AGKWindows:b2RevoluteJoint.obj
 0001:00063e50       ??_Gb2GearJoint@@UAEPAXI@Z 00464e50 f i AGKWindows:b2GearJoint.obj
 0001:00063e50       ??_Gb2WeldJoint@@UAEPAXI@Z 00464e50 f i AGKWindows:b2WeldJoint.obj
 0001:00063e80       ?GetInverse@b2Mat22@@QBE?AU1@XZ 00464e80 f i AGKWindows:b2MouseJoint.obj
 0001:00063f10       ??0b2MouseJoint@@IAE@PBUb2MouseJointDef@@@Z 00464f10 f   AGKWindows:b2MouseJoint.obj
 0001:00063fb0       ?SetTarget@b2MouseJoint@@QAEXABUb2Vec2@@@Z 00464fb0 f   AGKWindows:b2MouseJoint.obj
 0001:00063ff0       ?GetTarget@b2MouseJoint@@QBEABUb2Vec2@@XZ 00464ff0 f   AGKWindows:b2MouseJoint.obj
 0001:00064000       ?SetMaxForce@b2MouseJoint@@QAEXM@Z 00465000 f   AGKWindows:b2MouseJoint.obj
 0001:00064010       ?GetMaxForce@b2MouseJoint@@QBEMXZ 00465010 f   AGKWindows:b2MouseJoint.obj
 0001:00064020       ?SetFrequency@b2MouseJoint@@QAEXM@Z 00465020 f   AGKWindows:b2MouseJoint.obj
 0001:00064030       ?GetFrequency@b2MouseJoint@@QBEMXZ 00465030 f   AGKWindows:b2MouseJoint.obj
 0001:00064040       ?SetDampingRatio@b2MouseJoint@@QAEXM@Z 00465040 f   AGKWindows:b2MouseJoint.obj
 0001:00064050       ?GetDampingRatio@b2MouseJoint@@QBEMXZ 00465050 f   AGKWindows:b2MouseJoint.obj
 0001:00064060       ?InitVelocityConstraints@b2MouseJoint@@MAEXABUb2SolverData@@@Z 00465060 f   AGKWindows:b2MouseJoint.obj
 0001:00064340       ?SolveVelocityConstraints@b2MouseJoint@@MAEXABUb2SolverData@@@Z 00465340 f   AGKWindows:b2MouseJoint.obj
 0001:00064540       ?SolvePositionConstraints@b2MouseJoint@@MAE_NABUb2SolverData@@@Z 00465540 f   AGKWindows:b2MouseJoint.obj
 0001:00064550       ?GetAnchorA@b2MouseJoint@@UBE?AUb2Vec2@@XZ 00465550 f   AGKWindows:b2MouseJoint.obj
 0001:00064570       ?GetAnchorB@b2MouseJoint@@UBE?AUb2Vec2@@XZ 00465570 f   AGKWindows:b2MouseJoint.obj
 0001:000645b0       ?GetReactionForce@b2MouseJoint@@UBE?AUb2Vec2@@M@Z 004655b0 f   AGKWindows:b2MouseJoint.obj
 0001:000645d0       ?GetReactionTorque@b2MouseJoint@@UBEMM@Z 004655d0 f   AGKWindows:b2MouseJoint.obj
 0001:000645f0       ?Initialize@b2DistanceJointDef@@QAEXPAVb2Body@@0ABUb2Vec2@@1@Z 004655f0 f   AGKWindows:b2DistanceJoint.obj
 0001:000646d0       ??0b2DistanceJoint@@IAE@PBUb2DistanceJointDef@@@Z 004656d0 f   AGKWindows:b2DistanceJoint.obj
 0001:00064730       ?InitVelocityConstraints@b2DistanceJoint@@MAEXABUb2SolverData@@@Z 00465730 f   AGKWindows:b2DistanceJoint.obj
 0001:00064c20       ?SolveVelocityConstraints@b2DistanceJoint@@MAEXABUb2SolverData@@@Z 00465c20 f   AGKWindows:b2DistanceJoint.obj
 0001:00064e20       ?GetAnchorA@b2DistanceJoint@@UBE?AUb2Vec2@@XZ 00465e20 f   AGKWindows:b2DistanceJoint.obj
 0001:00064e60       ?GetAnchorB@b2DistanceJoint@@UBE?AUb2Vec2@@XZ 00465e60 f   AGKWindows:b2DistanceJoint.obj
 0001:00064ea0       ?GetReactionForce@b2DistanceJoint@@UBE?AUb2Vec2@@M@Z 00465ea0 f   AGKWindows:b2DistanceJoint.obj
 0001:00064ed0       ?GetReactionTorque@b2DistanceJoint@@UBEMM@Z 00465ed0 f   AGKWindows:b2DistanceJoint.obj
 0001:00064ee0       ?SolvePositionConstraints@b2DistanceJoint@@MAE_NABUb2SolverData@@@Z 00465ee0 f   AGKWindows:b2DistanceJoint.obj
 0001:000651d0       ?Initialize@b2PulleyJointDef@@QAEXPAVb2Body@@0ABUb2Vec2@@111M@Z 004661d0 f   AGKWindows:b2PulleyJoint.obj
 0001:00065310       ??0b2PulleyJoint@@IAE@PBUb2PulleyJointDef@@@Z 00466310 f   AGKWindows:b2PulleyJoint.obj
 0001:00065380       ?InitVelocityConstraints@b2PulleyJoint@@MAEXABUb2SolverData@@@Z 00466380 f   AGKWindows:b2PulleyJoint.obj
 0001:00065870       ?SolveVelocityConstraints@b2PulleyJoint@@MAEXABUb2SolverData@@@Z 00466870 f   AGKWindows:b2PulleyJoint.obj
 0001:00065ac0       ?GetAnchorA@b2PulleyJoint@@UBE?AUb2Vec2@@XZ 00466ac0 f   AGKWindows:b2PulleyJoint.obj
 0001:00065b00       ?GetAnchorB@b2PulleyJoint@@UBE?AUb2Vec2@@XZ 00466b00 f   AGKWindows:b2PulleyJoint.obj
 0001:00065b40       ?GetReactionForce@b2PulleyJoint@@UBE?AUb2Vec2@@M@Z 00466b40 f   AGKWindows:b2PulleyJoint.obj
 0001:00065b90       ?GetReactionTorque@b2PulleyJoint@@UBEMM@Z 00466b90 f   AGKWindows:b2PulleyJoint.obj
 0001:00065ba0       ?GetGroundAnchorA@b2PulleyJoint@@QBE?AUb2Vec2@@XZ 00466ba0 f   AGKWindows:b2PulleyJoint.obj
 0001:00065bc0       ?GetGroundAnchorB@b2PulleyJoint@@QBE?AUb2Vec2@@XZ 00466bc0 f   AGKWindows:b2PulleyJoint.obj
 0001:00065be0       ?GetLengthA@b2PulleyJoint@@QBEMXZ 00466be0 f   AGKWindows:b2PulleyJoint.obj
 0001:00065c60       ?GetLengthB@b2PulleyJoint@@QBEMXZ 00466c60 f   AGKWindows:b2PulleyJoint.obj
 0001:00065ce0       ?GetRatio@b2PulleyJoint@@QBEMXZ 00466ce0 f   AGKWindows:b2PulleyJoint.obj
 0001:00065cf0       ?SolvePositionConstraints@b2PulleyJoint@@MAE_NABUb2SolverData@@@Z 00466cf0 f   AGKWindows:b2PulleyJoint.obj
 0001:00066110       ?Initialize@b2WeldJointDef@@QAEXPAVb2Body@@0ABUb2Vec2@@@Z 00467110 f   AGKWindows:b2WeldJoint.obj
 0001:000661f0       ??0b2WeldJoint@@IAE@PBUb2WeldJointDef@@@Z 004671f0 f   AGKWindows:b2WeldJoint.obj
 0001:00066240       ?InitVelocityConstraints@b2WeldJoint@@MAEXABUb2SolverData@@@Z 00467240 f   AGKWindows:b2WeldJoint.obj
 0001:00066600       ?SolveVelocityConstraints@b2WeldJoint@@MAEXABUb2SolverData@@@Z 00467600 f   AGKWindows:b2WeldJoint.obj
 0001:00066820       ?GetAnchorA@b2WeldJoint@@UBE?AUb2Vec2@@XZ 00467820 f   AGKWindows:b2WeldJoint.obj
 0001:00066860       ?GetAnchorB@b2WeldJoint@@UBE?AUb2Vec2@@XZ 00467860 f   AGKWindows:b2WeldJoint.obj
 0001:000668a0       ?GetReactionForce@b2WeldJoint@@UBE?AUb2Vec2@@M@Z 004678a0 f   AGKWindows:b2WeldJoint.obj
 0001:000668d0       ?GetReactionTorque@b2WeldJoint@@UBEMM@Z 004678d0 f   AGKWindows:b2WeldJoint.obj
 0001:000668f0       ?SolvePositionConstraints@b2WeldJoint@@MAE_NABUb2SolverData@@@Z 004678f0 f   AGKWindows:b2WeldJoint.obj
 0001:00066cbe       ?RemoveAll@?$CSimpleArray@PAUHINSTANCE__@@V?$CSimpleArrayEqualHelper@PAUHINSTANCE__@@@ATL@@@ATL@@QAEXXZ 00467cbe f i AGKWindows:atlbase.obj
 0001:00066cdd       ?Init@CComCriticalSection@ATL@@QAEJXZ 00467cdd f i AGKWindows:atlbase.obj
 0001:00066d08       ??0_ATL_BASE_MODULE70@ATL@@QAE@XZ 00467d08 f i AGKWindows:atlbase.obj
 0001:00066d2d       ??1CAtlBaseModule@ATL@@QAE@XZ 00467d2d f   AGKWindows:atlbase.obj
 0001:00066d45       ?GetHInstanceAt@CAtlBaseModule@ATL@@QAEPAUHINSTANCE__@@H@Z 00467d45 f   AGKWindows:atlbase.obj
 0001:00066da2       ??0CAtlBaseModule@ATL@@QAE@XZ 00467da2 f   AGKWindows:atlbase.obj
 0001:00066de2       ??0CInitGDIPlus@CImage@ATL@@QAE@XZ 00467de2 f i AGKWindows:atlimage2.obj
 0001:00066e1d       ??1CDCCache@CImage@ATL@@QAE@XZ 00467e1d f i AGKWindows:atlimage.obj
 0001:00066e3c       _DirectInput8Create@20     00467e3c f   AGKWindows:DINPUT8.dll
 0001:00066e42       _WSAStartup@8              00467e42 f   AGKWindows:WSOCK32.dll
 0001:00066e48       _WSACleanup@0              00467e48 f   AGKWindows:WSOCK32.dll
 0001:00066e4e       _gluBuild2DMipmaps@28      00467e4e f   AGKWindows:GLU32.dll
 0001:00066e60       ?IsNumeralData@zxing@@YAHE@Z 00467e60 f   AGKWindows:QREncode.obj
 0001:00066e80       ?IsAlphabetData@zxing@@YAHE@Z 00467e80 f   AGKWindows:QREncode.obj
 0001:00066ed0       ?IsKanjiData@zxing@@YAHEE@Z 00467ed0 f   AGKWindows:QREncode.obj
 0001:00066f10       ?AlphabetToBinaly@zxing@@YAEE@Z 00467f10 f   AGKWindows:QREncode.obj
 0001:00066f80       ?KanjiToBinaly@zxing@@YAGG@Z 00467f80 f   AGKWindows:QREncode.obj
 0001:00066fc0       ?SetBitStream@zxing@@YAHHGHQAE@Z 00467fc0 f   AGKWindows:QREncode.obj
 0001:00067040       ?GetBitLength@zxing@@YAHEHH@Z 00468040 f   AGKWindows:QREncode.obj
 0001:000670f0       ?EncodeSourceData@zxing@@YAHPBDHHQAHQAE2@Z 004680f0 f   AGKWindows:QREncode.obj
 0001:00067b90       ?GetEncodeVersion@zxing@@YAHHPBDHQAHQAE2@Z 00468b90 f   AGKWindows:QREncode.obj
 0001:00067ca0       ?min@zxing@@YAHHH@Z        00468ca0 f   AGKWindows:QREncode.obj
 0001:00067cc0       ?GetRSCodeWord@zxing@@YAXPAEHH@Z 00468cc0 f   AGKWindows:QREncode.obj
 0001:00067d60       ?SetFinderPattern@zxing@@YAXHHQAY0LB@E@Z 00468d60 f   AGKWindows:QREncode.obj
 0001:00067e30       ?SetVersionPattern@zxing@@YAXQAY0LB@E@Z 00468e30 f   AGKWindows:QREncode.obj
 0001:00067f70       ?SetAlignmentPattern@zxing@@YAXHHQAY0LB@E@Z 00468f70 f   AGKWindows:QREncode.obj
 0001:00068020       ?SetFunctionModule@zxing@@YAXQAY0LB@E@Z 00469020 f   AGKWindows:QREncode.obj
 0001:00068220       ?SetCodeWordPattern@zxing@@YAXQAY0LB@EQAE@Z 00469220 f   AGKWindows:QREncode.obj
 0001:00068300       ?SetMaskingPattern@zxing@@YAXHQAY0LB@E@Z 00469300 f   AGKWindows:QREncode.obj
 0001:00068490       ?SetFormatInfoPattern@zxing@@YAXHQAY0LB@E@Z 00469490 f   AGKWindows:QREncode.obj
 0001:00068780       ?CountPenalty@zxing@@YAHQAY0LB@E@Z 00469780 f   AGKWindows:QREncode.obj
 0001:00068b90       ?FormatModule@zxing@@YAXQAY0LB@EQAE@Z 00469b90 f   AGKWindows:QREncode.obj
 0001:00068c80       ?putBitToPos@zxing@@YAXIHPAE@Z 00469c80 f   AGKWindows:QREncode.obj
 0001:00068d10       ?EncodeData@zxing@@YAHHHPBDHQAE@Z 00469d10 f   AGKWindows:QREncode.obj
 0001:00069250       _uncompress                0046a250 f   AGKWindows:uncompr.obj
 0001:000692f2       _DirectSoundCreate8@12     0046a2f2 f   AGKWindows:DSOUND.dll
 0001:000692f8       ??1CWin32Heap@ATL@@UAE@XZ  0046a2f8 f i AGKWindows:atlstr.obj
 0001:00069313       ?Allocate@CWin32Heap@ATL@@UAEPAXI@Z 0046a313 f i AGKWindows:atlstr.obj
 0001:0006932a       ?Free@CWin32Heap@ATL@@UAEXPAX@Z 0046a32a f i AGKWindows:atlstr.obj
 0001:00069347       ?Reallocate@CWin32Heap@ATL@@UAEPAXPAXI@Z 0046a347 f i AGKWindows:atlstr.obj
 0001:00069381       ?GetSize@CWin32Heap@ATL@@UAEIPAX@Z 0046a381 f i AGKWindows:atlstr.obj
 0001:00069398       ??_GCWin32Heap@ATL@@UAEPAXI@Z 0046a398 f i AGKWindows:atlstr.obj
 0001:00069398       ??_ECWin32Heap@ATL@@UAEPAXI@Z 0046a398 f i AGKWindows:atlstr.obj
 0001:000693b9       ??$AtlMultiply@K@ATL@@YAJPAKKK@Z 0046a3b9 f i AGKWindows:atlstr.obj
 0001:000693b9       ??$AtlMultiply@I@ATL@@YAJPAIII@Z 0046a3b9 f i AGKWindows:atlstr.obj
 0001:000693dd       ?Free@CAtlStringMgr@ATL@@UAEXPAUCStringData@2@@Z 0046a3dd f i AGKWindows:atlstr.obj
 0001:000693eb       ?GetNilString@CAtlStringMgr@ATL@@UAEPAUCStringData@2@XZ 0046a3eb f i AGKWindows:atlstr.obj
 0001:000693f9       ?Clone@CAtlStringMgr@ATL@@UAEPAUIAtlStringMgr@2@XZ 0046a3f9 f i AGKWindows:atlstr.obj
 0001:000693fc       ??_ECAtlStringMgr@ATL@@UAEPAXI@Z 0046a3fc f i AGKWindows:atlstr.obj
 0001:000693fc       ??_GCAtlStringMgr@ATL@@UAEPAXI@Z 0046a3fc f i AGKWindows:atlstr.obj
 0001:0006941e       ??$AtlAdd@I@ATL@@YAJPAIII@Z 0046a41e f i AGKWindows:atlstr.obj
 0001:00069444       ?Allocate@CAtlStringMgr@ATL@@UAEPAUCStringData@2@HH@Z 0046a444 f i AGKWindows:atlstr.obj
 0001:000694a8       ?Reallocate@CAtlStringMgr@ATL@@UAEPAUCStringData@2@PAU32@HH@Z 0046a4a8 f i AGKWindows:atlstr.obj
 0001:00069510       ??1Counted@zxing@@UAE@XZ   0046a510 f i AGKWindows:QRCodeReader.obj
 0001:00069520       ??_GDataMask@qrcode@zxing@@UAEPAXI@Z 0046a520 f i AGKWindows:DataMask.obj
 0001:00069520       ??_EDataMask010@qrcode@zxing@@UAEPAXI@Z 0046a520 f i AGKWindows:DataMask.obj
 0001:00069520       ??_GPerspectiveTransform@zxing@@UAEPAXI@Z 0046a520 f i AGKWindows:PerspectiveTransform.obj
 0001:00069520       ??_ELuminanceSource@zxing@@UAEPAXI@Z 0046a520 f i AGKWindows:LuminanceSource.obj
 0001:00069520       ??_GDataMask000@qrcode@zxing@@UAEPAXI@Z 0046a520 f i AGKWindows:DataMask.obj
 0001:00069520       ??_GLuminanceSource@zxing@@UAEPAXI@Z 0046a520 f i AGKWindows:LuminanceSource.obj
 0001:00069520       ??_ECounted@zxing@@UAEPAXI@Z 0046a520 f i AGKWindows:QRCodeReader.obj
 0001:00069520       ??_EDataMask100@qrcode@zxing@@UAEPAXI@Z 0046a520 f i AGKWindows:DataMask.obj
 0001:00069520       ??_EDataMask110@qrcode@zxing@@UAEPAXI@Z 0046a520 f i AGKWindows:DataMask.obj
 0001:00069520       ??_GDataMask100@qrcode@zxing@@UAEPAXI@Z 0046a520 f i AGKWindows:DataMask.obj
 0001:00069520       ??_EDataMask101@qrcode@zxing@@UAEPAXI@Z 0046a520 f i AGKWindows:DataMask.obj
 0001:00069520       ??_GDataMask001@qrcode@zxing@@UAEPAXI@Z 0046a520 f i AGKWindows:DataMask.obj
 0001:00069520       ??_GCounted@zxing@@UAEPAXI@Z 0046a520 f i AGKWindows:QRCodeReader.obj
 0001:00069520       ??_GDataMask011@qrcode@zxing@@UAEPAXI@Z 0046a520 f i AGKWindows:DataMask.obj
 0001:00069520       ??_GDataMask010@qrcode@zxing@@UAEPAXI@Z 0046a520 f i AGKWindows:DataMask.obj
 0001:00069520       ??_EFormatInformation@qrcode@zxing@@UAEPAXI@Z 0046a520 f i AGKWindows:FormatInformation.obj
 0001:00069520       ??_EPerspectiveTransform@zxing@@UAEPAXI@Z 0046a520 f i AGKWindows:PerspectiveTransform.obj
 0001:00069520       ??_GDataMask110@qrcode@zxing@@UAEPAXI@Z 0046a520 f i AGKWindows:DataMask.obj
 0001:00069520       ??_GDataMask111@qrcode@zxing@@UAEPAXI@Z 0046a520 f i AGKWindows:DataMask.obj
 0001:00069520       ??_EDataMask@qrcode@zxing@@UAEPAXI@Z 0046a520 f i AGKWindows:DataMask.obj
 0001:00069520       ??_EDataMask111@qrcode@zxing@@UAEPAXI@Z 0046a520 f i AGKWindows:DataMask.obj
 0001:00069520       ??_EDataMask000@qrcode@zxing@@UAEPAXI@Z 0046a520 f i AGKWindows:DataMask.obj
 0001:00069520       ??_GDataMask101@qrcode@zxing@@UAEPAXI@Z 0046a520 f i AGKWindows:DataMask.obj
 0001:00069520       ??_GFormatInformation@qrcode@zxing@@UAEPAXI@Z 0046a520 f i AGKWindows:FormatInformation.obj
 0001:00069520       ??_EResultPoint@zxing@@UAEPAXI@Z 0046a520 f i AGKWindows:ResultPoint.obj
 0001:00069520       ??_GResultPoint@zxing@@UAEPAXI@Z 0046a520 f i AGKWindows:ResultPoint.obj
 0001:00069520       ??_EDataMask011@qrcode@zxing@@UAEPAXI@Z 0046a520 f i AGKWindows:DataMask.obj
 0001:00069520       ??_EDataMask001@qrcode@zxing@@UAEPAXI@Z 0046a520 f i AGKWindows:DataMask.obj
 0001:00069550       ??1QRCodeReader@qrcode@zxing@@UAE@XZ 0046a550 f   AGKWindows:QRCodeReader.obj
 0001:000695b0       ?getDecoder@QRCodeReader@qrcode@zxing@@IAEAAVDecoder@23@XZ 0046a5b0 f   AGKWindows:QRCodeReader.obj
 0001:000695c0       ??0QRCodeReader@qrcode@zxing@@QAE@XZ 0046a5c0 f   AGKWindows:QRCodeReader.obj
 0001:00069620       ?decode@QRCodeReader@qrcode@zxing@@UAE?AV?$Ref@VResult@zxing@@@3@V?$Ref@VBinaryBitmap@zxing@@@3@VDecodeHints@3@@Z 0046a620 f   AGKWindows:QRCodeReader.obj
 0001:000698c0       ??1?$ArrayRef@E@zxing@@UAE@XZ 0046a8c0 f i AGKWindows:QRCodeReader.obj
 0001:00069960       ??_G?$ArrayRef@E@zxing@@UAEPAXI@Z 0046a960 f i AGKWindows:QRCodeReader.obj
 0001:00069960       ??_E?$ArrayRef@E@zxing@@UAEPAXI@Z 0046a960 f i AGKWindows:QRCodeReader.obj
 0001:00069a10       ??_GQRCodeReader@qrcode@zxing@@UAEPAXI@Z 0046aa10 f i AGKWindows:QRCodeReader.obj
 0001:00069a10       ??_EQRCodeReader@qrcode@zxing@@UAEPAXI@Z 0046aa10 f i AGKWindows:QRCodeReader.obj
 0001:00069a80       ??1Detector@qrcode@zxing@@UAE@XZ 0046aa80 f i AGKWindows:QRCodeReader.obj
 0001:00069b50       ??0?$vector@V?$Ref@VFinderPattern@qrcode@zxing@@@zxing@@V?$allocator@V?$Ref@VFinderPattern@qrcode@zxing@@@zxing@@@std@@@std@@QAE@ABV01@@Z 0046ab50 f i AGKWindows:FinderPatternFinder.obj
 0001:00069b50       ??0?$vector@V?$Ref@VResultPoint@zxing@@@zxing@@V?$allocator@V?$Ref@VResultPoint@zxing@@@zxing@@@std@@@std@@QAE@ABV01@@Z 0046ab50 f i AGKWindows:QRCodeReader.obj
 0001:00069c20       ??1runtime_error@std@@UAE@XZ 0046ac20 f i AGKWindows:Str.obj
 0001:00069c20       ??1failure@ios_base@std@@UAE@XZ 0046ac20 f i AGKWindows:Str.obj
 0001:00069c30       ?getText@String@zxing@@QBEABV?$basic_string@DU?$char_traits@D@std@@V?$allocator@D@2@@std@@XZ 0046ac30 f   AGKWindows:Str.obj
 0001:00069c40       ??6zxing@@YAAAV?$basic_ostream@DU?$char_traits@D@std@@@std@@AAV12@ABVString@0@@Z 0046ac40 f   AGKWindows:Str.obj
 0001:00069c60       ??0String@zxing@@QAE@ABV?$basic_string@DU?$char_traits@D@std@@V?$allocator@D@2@@std@@@Z 0046ac60 f   AGKWindows:Str.obj
 0001:00069cd0       ?_Pnavail@?$basic_streambuf@DU?$char_traits@D@std@@@std@@IBE_JXZ 0046acd0 f i AGKWindows:Str.obj
 0001:00069cf0       ??1_Sentry_base@?$basic_ostream@DU?$char_traits@D@std@@@std@@QAE@XZ 0046acf0 f i AGKWindows:Str.obj
 0001:00069d10       ??_Efailure@ios_base@std@@UAEPAXI@Z 0046ad10 f i AGKWindows:Str.obj
 0001:00069d10       ??_Esystem_error@std@@UAEPAXI@Z 0046ad10 f i AGKWindows:Str.obj
 0001:00069d10       ??_Gfailure@ios_base@std@@UAEPAXI@Z 0046ad10 f i AGKWindows:Str.obj
 0001:00069d10       ??_Gsystem_error@std@@UAEPAXI@Z 0046ad10 f i AGKWindows:Str.obj
 0001:00069d10       ??_Gruntime_error@std@@UAEPAXI@Z 0046ad10 f i AGKWindows:Str.obj
 0001:00069d10       ??_Eruntime_error@std@@UAEPAXI@Z 0046ad10 f i AGKWindows:Str.obj
 0001:00069d40       ?clear@ios_base@std@@QAEXH_N@Z 0046ad40 f i AGKWindows:Str.obj
 0001:00069e20       ??0runtime_error@std@@QAE@ABV01@@Z 0046ae20 f i AGKWindows:Str.obj
 0001:00069e40       ??0system_error@std@@QAE@ABV01@@Z 0046ae40 f i AGKWindows:Str.obj
 0001:00069e70       ??0failure@ios_base@std@@QAE@ABV012@@Z 0046ae70 f i AGKWindows:Str.obj
 0001:00069ea0       ?flush@?$basic_ostream@DU?$char_traits@D@std@@@std@@QAEAAV12@XZ 0046aea0 f i AGKWindows:Str.obj
 0001:00069ef0       ?_Osfx@?$basic_ostream@DU?$char_traits@D@std@@@std@@QAEXXZ 0046aef0 f i AGKWindows:Str.obj
 0001:00069f50       ??1sentry@?$basic_ostream@DU?$char_traits@D@std@@@std@@QAE@XZ 0046af50 f i AGKWindows:Str.obj
 0001:00069fc0       ??$?6DU?$char_traits@D@std@@V?$allocator@D@1@@std@@YAAAV?$basic_ostream@DU?$char_traits@D@std@@@0@AAV10@ABV?$basic_string@DU?$char_traits@D@std@@V?$allocator@D@2@@0@@Z 0046afc0 f i AGKWindows:Str.obj
 0001:0006a260       ??_EString@zxing@@UAEPAXI@Z 0046b260 f i AGKWindows:Str.obj
 0001:0006a260       ??_GString@zxing@@UAEPAXI@Z 0046b260 f i AGKWindows:Str.obj
 0001:0006a2b0       ?_Incref@facet@locale@std@@QAEXXZ 0046b2b0 f i AGKWindows:Result.obj
 0001:0006a2e0       ?_Decref@facet@locale@std@@QAEPAV123@XZ 0046b2e0 f i AGKWindows:Result.obj
 0001:0006a320       ??1facet@locale@std@@UAE@XZ 0046b320 f i AGKWindows:Result.obj
 0001:0006a330       ??1locale@std@@QAE@XZ      0046b330 f i AGKWindows:Result.obj
 0001:0006a380       ??_Gfacet@locale@std@@UAEPAXI@Z 0046b380 f i AGKWindows:Result.obj
 0001:0006a380       ??_G?$num_put@DV?$ostreambuf_iterator@DU?$char_traits@D@std@@@std@@@std@@MAEPAXI@Z 0046b380 f i AGKWindows:Result.obj
 0001:0006a380       ??_Efacet@locale@std@@UAEPAXI@Z 0046b380 f i AGKWindows:Result.obj
 0001:0006a380       ??_E?$num_put@DV?$ostreambuf_iterator@DU?$char_traits@D@std@@@std@@@std@@MAEPAXI@Z 0046b380 f i AGKWindows:Result.obj
 0001:0006a3b0       ?getloc@ios_base@std@@QBE?AVlocale@2@XZ 0046b3b0 f i AGKWindows:Result.obj
 0001:0006a3f0       ?getResultPoints@Result@zxing@@QBEABV?$vector@V?$Ref@VResultPoint@zxing@@@zxing@@V?$allocator@V?$Ref@VResultPoint@zxing@@@zxing@@@std@@@std@@XZ 0046b3f0 f   AGKWindows:Result.obj
 0001:0006a400       ?getResultPoints@Result@zxing@@QAEAAV?$vector@V?$Ref@VResultPoint@zxing@@@zxing@@V?$allocator@V?$Ref@VResultPoint@zxing@@@zxing@@@std@@@std@@XZ 0046b400 f   AGKWindows:Result.obj
 0001:0006a410       ?getBarcodeFormat@Result@zxing@@QBE?AW4BarcodeFormat@2@XZ 0046b410 f   AGKWindows:Result.obj
 0001:0006a420       ?getText@Result@zxing@@QAE?AV?$Ref@VString@zxing@@@2@XZ 0046b420 f   AGKWindows:Result.obj
 0001:0006a450       ?getRawBytes@Result@zxing@@QAE?AV?$ArrayRef@E@2@XZ 0046b450 f   AGKWindows:Result.obj
 0001:0006a4f0       ??6zxing@@YAAAV?$basic_ostream@DU?$char_traits@D@std@@@std@@AAV12@AAVResult@0@@Z 0046b4f0 f   AGKWindows:Result.obj
 0001:0006a550       ??0Result@zxing@@QAE@V?$Ref@VString@zxing@@@1@V?$ArrayRef@E@1@V?$vector@V?$Ref@VResultPoint@zxing@@@zxing@@V?$allocator@V?$Ref@VResultPoint@zxing@@@zxing@@@std@@@std@@W4BarcodeFormat@1@@Z 0046b550 f   AGKWindows:Result.obj
 0001:0006a760       ??1Result@zxing@@UAE@XZ    0046b760 f   AGKWindows:Result.obj
 0001:0006a890       ??1?$_Yarn@D@std@@QAE@XZ   0046b890 f i AGKWindows:Result.obj
 0001:0006a8b0       ??0?$ArrayRef@E@zxing@@QAE@ABV01@@Z 0046b8b0 f i AGKWindows:Result.obj
 0001:0006a960       ?_Ifmt@?$num_put@DV?$ostreambuf_iterator@DU?$char_traits@D@std@@@std@@@std@@ABAPADPADPBDH@Z 0046b960 f i AGKWindows:Result.obj
 0001:0006a9f0       ?_Chassign@?$basic_string@DU?$char_traits@D@std@@V?$allocator@D@2@@std@@QAEXIID@Z 0046b9f0 f i AGKWindows:Result.obj
 0001:0006aa30       ?_Tidy@?$numpunct@D@std@@AAEXXZ 0046ba30 f i AGKWindows:Result.obj
 0001:0006aa60       ?_Init@?$numpunct@D@std@@IAEXABV_Locinfo@2@_N@Z 0046ba60 f i AGKWindows:Result.obj
 0001:0006aba0       ??0_Locinfo@std@@QAE@PBD@Z 0046bba0 f i AGKWindows:Result.obj
 0001:0006ac50       ??1_Locinfo@std@@QAE@XZ    0046bc50 f i AGKWindows:Result.obj
 0001:0006ad00       ?_Put@?$num_put@DV?$ostreambuf_iterator@DU?$char_traits@D@std@@@std@@@std@@ABA?AV?$ostreambuf_iterator@DU?$char_traits@D@std@@@2@V32@PBDI@Z 0046bd00 f i AGKWindows:Result.obj
 0001:0006ad00       ?_Putc@?$num_put@DV?$ostreambuf_iterator@DU?$char_traits@D@std@@@std@@@std@@ABA?AV?$ostreambuf_iterator@DU?$char_traits@D@std@@@2@V32@PBDI@Z 0046bd00 f i AGKWindows:Result.obj
 0001:0006ad70       ?_Rep@?$num_put@DV?$ostreambuf_iterator@DU?$char_traits@D@std@@@std@@@std@@ABA?AV?$ostreambuf_iterator@DU?$char_traits@D@std@@@2@V32@DI@Z 0046bd70 f i AGKWindows:Result.obj
 0001:0006ade0       ?_Putgrouped@?$num_put@DV?$ostreambuf_iterator@DU?$char_traits@D@std@@@std@@@std@@ABA?AV?$ostreambuf_iterator@DU?$char_traits@D@std@@@2@V32@PBDID@Z 0046bde0 f i AGKWindows:Result.obj
 0001:0006ae80       ?_Getcat@?$num_put@DV?$ostreambuf_iterator@DU?$char_traits@D@std@@@std@@@std@@SAIPAPBVfacet@locale@2@PBV42@@Z 0046be80 f i AGKWindows:Result.obj
 0001:0006af40       ?do_decimal_point@?$numpunct@D@std@@MBEDXZ 0046bf40 f i AGKWindows:Result.obj
 0001:0006af50       ?do_thousands_sep@?$numpunct@D@std@@MBEDXZ 0046bf50 f i AGKWindows:Result.obj
 0001:0006af60       ??_G?$numpunct@D@std@@MAEPAXI@Z 0046bf60 f i AGKWindows:Result.obj
 0001:0006af60       ??_E?$numpunct@D@std@@MAEPAXI@Z 0046bf60 f i AGKWindows:Result.obj
 0001:0006afb0       ?falsename@?$numpunct@D@std@@QBE?AV?$basic_string@DU?$char_traits@D@std@@V?$allocator@D@2@@2@XZ 0046bfb0 f i AGKWindows:Result.obj
 0001:0006afd0       ?truename@?$numpunct@D@std@@QBE?AV?$basic_string@DU?$char_traits@D@std@@V?$allocator@D@2@@2@XZ 0046bfd0 f i AGKWindows:Result.obj
 0001:0006aff0       ?grouping@?$numpunct@D@std@@QBE?AV?$basic_string@DU?$char_traits@D@std@@V?$allocator@D@2@@2@XZ 0046bff0 f i AGKWindows:Result.obj
 0001:0006b010       ?append@?$basic_string@DU?$char_traits@D@std@@V?$allocator@D@2@@std@@QAEAAV12@ABV12@II@Z 0046c010 f i AGKWindows:Result.obj
 0001:0006b100       ??$use_facet@V?$num_put@DV?$ostreambuf_iterator@DU?$char_traits@D@std@@@std@@@std@@@std@@YAABV?$num_put@DV?$ostreambuf_iterator@DU?$char_traits@D@std@@@std@@@0@ABVlocale@0@@Z 0046c100 f i AGKWindows:Result.obj
 0001:0006b240       ?_Getcat@?$numpunct@D@std@@SAIPAPBVfacet@locale@2@PBV42@@Z 0046c240 f i AGKWindows:Result.obj
 0001:0006b310       ?insert@?$basic_string@DU?$char_traits@D@std@@V?$allocator@D@2@@std@@QAEAAV12@IID@Z 0046c310 f i AGKWindows:Result.obj
 0001:0006b410       ?append@?$basic_string@DU?$char_traits@D@std@@V?$allocator@D@2@@std@@QAEAAV12@PBDI@Z 0046c410 f i AGKWindows:Result.obj
 0001:0006b530       ?append@?$basic_string@DU?$char_traits@D@std@@V?$allocator@D@2@@std@@QAEAAV12@ID@Z 0046c530 f i AGKWindows:Result.obj
 0001:0006b5e0       ??$?6U?$char_traits@D@std@@@std@@YAAAV?$basic_ostream@DU?$char_traits@D@std@@@0@AAV10@PBD@Z 0046c5e0 f i AGKWindows:Result.obj
 0001:0006b8a0       ??$use_facet@V?$numpunct@D@std@@@std@@YAABV?$numpunct@D@0@ABVlocale@0@@Z 0046c8a0 f i AGKWindows:Result.obj
 0001:0006b9e0       ??6?$basic_ostream@DU?$char_traits@D@std@@@std@@QAEAAV01@I@Z 0046c9e0 f i AGKWindows:Result.obj
 0001:0006bbd0       ?_Fput@?$num_put@DV?$ostreambuf_iterator@DU?$char_traits@D@std@@@std@@@std@@ABA?AV?$ostreambuf_iterator@DU?$char_traits@D@std@@@2@V32@AAVios_base@2@DPBDIIII@Z 0046cbd0 f i AGKWindows:Result.obj
 0001:0006c140       ?_Iput@?$num_put@DV?$ostreambuf_iterator@DU?$char_traits@D@std@@@std@@@std@@ABA?AV?$ostreambuf_iterator@DU?$char_traits@D@std@@@2@V32@AAVios_base@2@DPADI@Z 0046d140 f i AGKWindows:Result.obj
 0001:0006c3d0       ?do_put@?$num_put@DV?$ostreambuf_iterator@DU?$char_traits@D@std@@@std@@@std@@MBE?AV?$ostreambuf_iterator@DU?$char_traits@D@std@@@2@V32@AAVios_base@2@DJ@Z 0046d3d0 f i AGKWindows:Result.obj
 0001:0006c450       ?do_put@?$num_put@DV?$ostreambuf_iterator@DU?$char_traits@D@std@@@std@@@std@@MBE?AV?$ostreambuf_iterator@DU?$char_traits@D@std@@@2@V32@AAVios_base@2@DK@Z 0046d450 f i AGKWindows:Result.obj
 0001:0006c4d0       ?do_put@?$num_put@DV?$ostreambuf_iterator@DU?$char_traits@D@std@@@std@@@std@@MBE?AV?$ostreambuf_iterator@DU?$char_traits@D@std@@@2@V32@AAVios_base@2@D_J@Z 0046d4d0 f i AGKWindows:Result.obj
 0001:0006c550       ?do_put@?$num_put@DV?$ostreambuf_iterator@DU?$char_traits@D@std@@@std@@@std@@MBE?AV?$ostreambuf_iterator@DU?$char_traits@D@std@@@2@V32@AAVios_base@2@D_K@Z 0046d550 f i AGKWindows:Result.obj
 0001:0006c5d0       ?do_put@?$num_put@DV?$ostreambuf_iterator@DU?$char_traits@D@std@@@std@@@std@@MBE?AV?$ostreambuf_iterator@DU?$char_traits@D@std@@@2@V32@AAVios_base@2@DN@Z 0046d5d0 f i AGKWindows:Result.obj
 0001:0006c7e0       ?do_put@?$num_put@DV?$ostreambuf_iterator@DU?$char_traits@D@std@@@std@@@std@@MBE?AV?$ostreambuf_iterator@DU?$char_traits@D@std@@@2@V32@AAVios_base@2@DO@Z 0046d7e0 f i AGKWindows:Result.obj
 0001:0006c9e0       ?do_put@?$num_put@DV?$ostreambuf_iterator@DU?$char_traits@D@std@@@std@@@std@@MBE?AV?$ostreambuf_iterator@DU?$char_traits@D@std@@@2@V32@AAVios_base@2@DPBX@Z 0046d9e0 f i AGKWindows:Result.obj
 0001:0006ca40       ?assign@?$basic_string@DU?$char_traits@D@std@@V?$allocator@D@2@@std@@QAEAAV12@$$QAV12@@Z 0046da40 f i AGKWindows:Result.obj
 0001:0006cac0       ?do_put@?$num_put@DV?$ostreambuf_iterator@DU?$char_traits@D@std@@@std@@@std@@MBE?AV?$ostreambuf_iterator@DU?$char_traits@D@std@@@2@V32@AAVios_base@2@D_N@Z 0046dac0 f i AGKWindows:Result.obj
 0001:0006cce0       ?do_grouping@?$numpunct@D@std@@MBE?AV?$basic_string@DU?$char_traits@D@std@@V?$allocator@D@2@@2@XZ 0046dce0 f i AGKWindows:Result.obj
 0001:0006cd30       ?do_falsename@?$numpunct@D@std@@MBE?AV?$basic_string@DU?$char_traits@D@std@@V?$allocator@D@2@@2@XZ 0046dd30 f i AGKWindows:Result.obj
 0001:0006cd80       ?do_truename@?$numpunct@D@std@@MBE?AV?$basic_string@DU?$char_traits@D@std@@V?$allocator@D@2@@2@XZ 0046dd80 f i AGKWindows:Result.obj
 0001:0006cdd0       ??_EResult@zxing@@UAEPAXI@Z 0046ddd0 f i AGKWindows:Result.obj
 0001:0006cdd0       ??_GResult@zxing@@UAEPAXI@Z 0046ddd0 f i AGKWindows:Result.obj
 0001:0006ce00       ?addFormat@DecodeHints@zxing@@QAEXW4BarcodeFormat@2@@Z 0046de00 f   AGKWindows:DecodeHints.obj
 0001:0006cf20       ?containsFormat@DecodeHints@zxing@@QBE_NW4BarcodeFormat@2@@Z 0046df20 f   AGKWindows:DecodeHints.obj
 0001:0006cfe0       ?setTryHarder@DecodeHints@zxing@@QAEX_N@Z 0046dfe0 f   AGKWindows:DecodeHints.obj
 0001:0006d000       ?getTryHarder@DecodeHints@zxing@@QBE_NXZ 0046e000 f   AGKWindows:DecodeHints.obj
 0001:0006d010       ??0DecodeHints@zxing@@QAE@XZ 0046e010 f   AGKWindows:DecodeHints.obj
 0001:0006d020       ??0DecodeHints@zxing@@QAE@I@Z 0046e020 f   AGKWindows:DecodeHints.obj
 0001:0006d040       ?setResultPointCallback@DecodeHints@zxing@@QAEXABV?$Ref@VResultPointCallback@zxing@@@2@@Z 0046e040 f   AGKWindows:DecodeHints.obj
 0001:0006d0a0       ?getResultPointCallback@DecodeHints@zxing@@QBE?AV?$Ref@VResultPointCallback@zxing@@@2@XZ 0046e0a0 f   AGKWindows:DecodeHints.obj
 0001:0006d0d0       ??0Exception@zxing@@QAE@ABV01@@Z 0046e0d0 f i AGKWindows:DecodeHints.obj
 0001:0006d140       ??_EException@zxing@@UAEPAXI@Z 0046e140 f i AGKWindows:DecodeHints.obj
 0001:0006d140       ??_GException@zxing@@UAEPAXI@Z 0046e140 f i AGKWindows:DecodeHints.obj
 0001:0006d170       ??0IllegalArgumentException@zxing@@QAE@ABV01@@Z 0046e170 f i AGKWindows:DecodeHints.obj
 0001:0006d1f0       ??_GIllegalArgumentException@zxing@@UAEPAXI@Z 0046e1f0 f i AGKWindows:DecodeHints.obj
 0001:0006d1f0       ??_EIllegalArgumentException@zxing@@UAEPAXI@Z 0046e1f0 f i AGKWindows:DecodeHints.obj
 0001:0006d220       ??1BinaryBitmap@zxing@@UAE@XZ 0046e220 f   AGKWindows:BinaryBitmap.obj
 0001:0006d2b0       ?getBlackMatrix@BinaryBitmap@zxing@@QAE?AV?$Ref@VBitMatrix@zxing@@@2@XZ 0046e2b0 f   AGKWindows:BinaryBitmap.obj
 0001:0006d2e0       ?getLuminanceSource@BinaryBitmap@zxing@@QBE?AV?$Ref@VLuminanceSource@zxing@@@2@XZ 0046e2e0 f   AGKWindows:BinaryBitmap.obj
 0001:0006d310       ?isCropSupported@BinaryBitmap@zxing@@QBE_NXZ 0046e310 f   AGKWindows:BinaryBitmap.obj
 0001:0006d3b0       ?isRotateSupported@BinaryBitmap@zxing@@QBE_NXZ 0046e3b0 f   AGKWindows:BinaryBitmap.obj
 0001:0006d450       ??0BinaryBitmap@zxing@@QAE@V?$Ref@VBinarizer@zxing@@@1@@Z 0046e450 f   AGKWindows:BinaryBitmap.obj
 0001:0006d550       ?getBlackRow@BinaryBitmap@zxing@@QAE?AV?$Ref@VBitArray@zxing@@@2@HV32@@Z 0046e550 f   AGKWindows:BinaryBitmap.obj
 0001:0006d660       ?getWidth@BinaryBitmap@zxing@@QBEHXZ 0046e660 f   AGKWindows:BinaryBitmap.obj
 0001:0006d700       ?getHeight@BinaryBitmap@zxing@@QBEHXZ 0046e700 f   AGKWindows:BinaryBitmap.obj
 0001:0006d7a0       ?crop@BinaryBitmap@zxing@@QAE?AV?$Ref@VBinaryBitmap@zxing@@@2@HHHH@Z 0046e7a0 f   AGKWindows:BinaryBitmap.obj
 0001:0006d910       ?rotateCounterClockwise@BinaryBitmap@zxing@@QAE?AV?$Ref@VBinaryBitmap@zxing@@@2@XZ 0046e910 f   AGKWindows:BinaryBitmap.obj
 0001:0006da70       ??_GBinaryBitmap@zxing@@UAEPAXI@Z 0046ea70 f i AGKWindows:BinaryBitmap.obj
 0001:0006da70       ??_EBinaryBitmap@zxing@@UAEPAXI@Z 0046ea70 f i AGKWindows:BinaryBitmap.obj
 0001:0006db10       ??1GlobalHistogramBinarizer@zxing@@UAE@XZ 0046eb10 f   AGKWindows:GlobalHistogramBinarizer.obj
 0001:0006dbf0       ?estimate@GlobalHistogramBinarizer@zxing@@SAHAAV?$vector@HV?$allocator@H@std@@@std@@@Z 0046ebf0 f   AGKWindows:GlobalHistogramBinarizer.obj
 0001:0006dd00       ??0GlobalHistogramBinarizer@zxing@@QAE@V?$Ref@VLuminanceSource@zxing@@@1@@Z 0046ed00 f   AGKWindows:GlobalHistogramBinarizer.obj
 0001:0006de20       ?createBinarizer@GlobalHistogramBinarizer@zxing@@UAE?AV?$Ref@VBinarizer@zxing@@@2@V?$Ref@VLuminanceSource@zxing@@@2@@Z 0046ee20 f   AGKWindows:GlobalHistogramBinarizer.obj
 0001:0006df80       ?getBlackRow@GlobalHistogramBinarizer@zxing@@UAE?AV?$Ref@VBitArray@zxing@@@2@HV32@@Z 0046ef80 f   AGKWindows:GlobalHistogramBinarizer.obj
 0001:0006e430       ?getBlackMatrix@GlobalHistogramBinarizer@zxing@@UAE?AV?$Ref@VBitMatrix@zxing@@@2@XZ 0046f430 f   AGKWindows:GlobalHistogramBinarizer.obj
 0001:0006e7f0       ?allocate@?$allocator@E@std@@QAEPAEI@Z 0046f7f0 f i AGKWindows:GlobalHistogramBinarizer.obj
 0001:0006e840       ??_GGlobalHistogramBinarizer@zxing@@UAEPAXI@Z 0046f840 f i AGKWindows:GlobalHistogramBinarizer.obj
 0001:0006e840       ??_EGlobalHistogramBinarizer@zxing@@UAEPAXI@Z 0046f840 f i AGKWindows:GlobalHistogramBinarizer.obj
 0001:0006e870       ?_Construct_n@?$vector@EV?$allocator@E@std@@@std@@QAEXIPBE@Z 0046f870 f i AGKWindows:GlobalHistogramBinarizer.obj
 0001:0006e8d0       ?_Construct_n@?$vector@IV?$allocator@I@std@@@std@@QAEXIPBI@Z 0046f8d0 f i AGKWindows:BitArray.obj
 0001:0006e8d0       ?_Construct_n@?$vector@PAVECB@qrcode@zxing@@V?$allocator@PAVECB@qrcode@zxing@@@std@@@std@@QAEXIPBQAVECB@qrcode@zxing@@@Z 0046f8d0 f i AGKWindows:Version.obj
 0001:0006e8d0       ?_Construct_n@?$vector@HV?$allocator@H@std@@@std@@QAEXIPBH@Z 0046f8d0 f i AGKWindows:GlobalHistogramBinarizer.obj
 0001:0006e940       ??_E?$Array@E@zxing@@UAEPAXI@Z 0046f940 f i AGKWindows:GlobalHistogramBinarizer.obj
 0001:0006e940       ??_G?$Array@E@zxing@@UAEPAXI@Z 0046f940 f i AGKWindows:GlobalHistogramBinarizer.obj
 0001:0006e990       ??0?$ArrayRef@E@zxing@@QAE@I@Z 0046f990 f i AGKWindows:GlobalHistogramBinarizer.obj
 0001:0006ea80       ??0GreyscaleLuminanceSource@zxing@@QAE@PAEHHHHHH@Z 0046fa80 f   AGKWindows:GreyscaleLuminanceSource.obj
 0001:0006eb40       ?getRow@GreyscaleLuminanceSource@zxing@@UAEPAEHPAE@Z 0046fb40 f   AGKWindows:GreyscaleLuminanceSource.obj
 0001:0006ebe0       ?getMatrix@GreyscaleLuminanceSource@zxing@@UAEPAEXZ 0046fbe0 f   AGKWindows:GreyscaleLuminanceSource.obj
 0001:0006ec60       ?rotateCounterClockwise@GreyscaleLuminanceSource@zxing@@UAE?AV?$Ref@VLuminanceSource@zxing@@@2@XZ 0046fc60 f   AGKWindows:GreyscaleLuminanceSource.obj
 0001:0006ed00       ?isRotateSupported@GreyscaleLuminanceSource@zxing@@UBE_NXZ 0046fd00 f i AGKWindows:GreyscaleLuminanceSource.obj
 0001:0006ed10       ?getWidth@GreyscaleLuminanceSource@zxing@@UBEHXZ 0046fd10 f i AGKWindows:GreyscaleLuminanceSource.obj
 0001:0006ed10       ?getWidth@GreyscaleRotatedLuminanceSource@zxing@@UBEHXZ 0046fd10 f i AGKWindows:GreyscaleRotatedLuminanceSource.obj
 0001:0006ed20       ?getHeight@GreyscaleRotatedLuminanceSource@zxing@@UBEHXZ 0046fd20 f i AGKWindows:GreyscaleRotatedLuminanceSource.obj
 0001:0006ed20       ?getHeight@GreyscaleLuminanceSource@zxing@@UBEHXZ 0046fd20 f i AGKWindows:GreyscaleLuminanceSource.obj
 0001:0006ed30       ??_EGreyscaleLuminanceSource@zxing@@UAEPAXI@Z 0046fd30 f i AGKWindows:GreyscaleLuminanceSource.obj
 0001:0006ed30       ??_EGreyscaleRotatedLuminanceSource@zxing@@UAEPAXI@Z 0046fd30 f i AGKWindows:GreyscaleRotatedLuminanceSource.obj
 0001:0006ed30       ??_GGreyscaleLuminanceSource@zxing@@UAEPAXI@Z 0046fd30 f i AGKWindows:GreyscaleLuminanceSource.obj
 0001:0006ed30       ??_GGreyscaleRotatedLuminanceSource@zxing@@UAEPAXI@Z 0046fd30 f i AGKWindows:GreyscaleRotatedLuminanceSource.obj
 0001:0006ed60       _compress2                 0046fd60 f   AGKWindows:compress.obj
 0001:0006ee00       _compress                  0046fe00 f   AGKWindows:compress.obj
 0001:0006ee20       _compressBound             0046fe20 f   AGKWindows:compress.obj
 0001:0006ee40       _DGifGetRecordType         0046fe40 f   AGKWindows:dgif_lib.obj
 0001:0006eef0       _DGifGetExtensionNext      0046fef0 f   AGKWindows:dgif_lib.obj
 0001:0006efa0       _DGifCloseFile             0046ffa0 f   AGKWindows:dgif_lib.obj
 0001:0006f0d0       _DGifGetCodeNext           004700d0 f   AGKWindows:dgif_lib.obj
 0001:0006f300       _DGifGetScreenDesc         00470300 f   AGKWindows:dgif_lib.obj
 0001:0006f480       _DGifGetImageDesc          00470480 f   AGKWindows:dgif_lib.obj
 0001:0006f6f0       _DGifGetExtension          004706f0 f   AGKWindows:dgif_lib.obj
 0001:0006f770       _DGifGetCode               00470770 f   AGKWindows:dgif_lib.obj
 0001:0006f910       _DGifOpenFileHandle        00470910 f   AGKWindows:dgif_lib.obj
 0001:0006faa0       _DGifOpen                  00470aa0 f   AGKWindows:dgif_lib.obj
 0001:0006fe50       _DGifGetLZCodes            00470e50 f   AGKWindows:dgif_lib.obj
 0001:0006fef0       _DGifOpenFileName          00470ef0 f   AGKWindows:dgif_lib.obj
 0001:0006ff30       _DGifGetLine               00470f30 f   AGKWindows:dgif_lib.obj
 0001:0006ffb0       _DGifGetPixel              00470fb0 f   AGKWindows:dgif_lib.obj
 0001:00070030       _DGifSlurp                 00471030 f   AGKWindows:dgif_lib.obj
 0001:000701e0       ?Count@Point2D@AGK@@SAHPBV12@@Z 004711e0 f   AGKWindows:Physics.obj
 0001:00070200       ?ConvexHullReducePoints@Physics@AGK@@SAXAAPAVPoint2D@2@H@Z 00471200 f   AGKWindows:Physics.obj
 0001:00070520       ?ConvexHullAddPoint@Physics@AGK@@SAXAAPAVPoint2D@2@MM@Z 00471520 f   AGKWindows:Physics.obj
 0001:00070860       ?IsPointInConvexHull@Physics@AGK@@SA_NPAVPoint2D@2@MM@Z 00471860 f   AGKWindows:Physics.obj
 0001:00070920       ?ConvexHullCleanPoints@Physics@AGK@@SAXAAPAVPoint2D@2@M@Z 00471920 f   AGKWindows:Physics.obj
 0001:00070b40       ?ConvexHull2D@Physics@AGK@@SAPAVPoint2D@2@HHPAE@Z 00471b40 f   AGKWindows:Physics.obj
 0001:00070d50       ??0b2Fixture@@IAE@XZ       00471d50 f   AGKWindows:b2Fixture.obj
 0001:00070d70       ?Create@b2Fixture@@IAEXPAVb2BlockAllocator@@PAVb2Body@@PBUb2FixtureDef@@@Z 00471d70 f   AGKWindows:b2Fixture.obj
 0001:00070e20       ?Destroy@b2Fixture@@IAEXPAVb2BlockAllocator@@@Z 00471e20 f   AGKWindows:b2Fixture.obj
 0001:00070ed0       ?CreateProxies@b2Fixture@@IAEXPAVb2BroadPhase@@ABUb2Transform@@@Z 00471ed0 f   AGKWindows:b2Fixture.obj
 0001:00070f30       ?DestroyProxies@b2Fixture@@IAEXPAVb2BroadPhase@@@Z 00471f30 f   AGKWindows:b2Fixture.obj
 0001:00070f90       ?Refilter@b2Fixture@@QAEXXZ 00471f90 f   AGKWindows:b2Fixture.obj
 0001:00071010       ?SetSensor@b2Fixture@@QAEX_N@Z 00472010 f   AGKWindows:b2Fixture.obj
 0001:00071040       ?Synchronize@b2Fixture@@IAEXPAVb2BroadPhase@@ABUb2Transform@@1@Z 00472040 f   AGKWindows:b2Fixture.obj
 0001:00071190       ?SetFilterData@b2Fixture@@QAEXABUb2Filter@@@Z 00472190 f   AGKWindows:b2Fixture.obj
 0001:000711b0       ?Combine@b2AABB@@QAEXABU1@0@Z 004721b0 f i AGKWindows:b2Fixture.obj
 0001:00071200       ?GetChildCount@b2CircleShape@@UBEHXZ 00472200 f   AGKWindows:b2CircleShape.obj
 0001:00071210       ?TestPoint@b2CircleShape@@UBE_NABUb2Transform@@ABUb2Vec2@@@Z 00472210 f   AGKWindows:b2CircleShape.obj
 0001:000712b0       ?RayCast@b2CircleShape@@UBE_NPAUb2RayCastOutput@@ABUb2RayCastInput@@ABUb2Transform@@H@Z 004722b0 f   AGKWindows:b2CircleShape.obj
 0001:00071440       ?ComputeAABB@b2CircleShape@@UBEXPAUb2AABB@@ABUb2Transform@@H@Z 00472440 f   AGKWindows:b2CircleShape.obj
 0001:000714c0       ?ComputeMass@b2CircleShape@@UBEXPAUb2MassData@@M@Z 004724c0 f   AGKWindows:b2CircleShape.obj
 0001:00071510       ?Clone@b2CircleShape@@UBEPAVb2Shape@@PAVb2BlockAllocator@@@Z 00472510 f   AGKWindows:b2CircleShape.obj
 0001:00071c90       ?b2CollidePolygons@@YAXPAUb2Manifold@@PBVb2PolygonShape@@ABUb2Transform@@12@Z 00472c90 f   AGKWindows:b2CollidePolygon.obj
 0001:000721e0       ?GetSupport@b2DistanceProxy@@QBEHABUb2Vec2@@@Z 004731e0 f i AGKWindows:b2Distance.obj
 0001:00072330       ?Set@b2DistanceProxy@@QAEXPBVb2Shape@@H@Z 00473330 f   AGKWindows:b2Distance.obj
 0001:00072410       ?Solve2@b2Simplex@@QAEXXZ  00473410 f   AGKWindows:b2Distance.obj
 0001:00072510       ?Solve3@b2Simplex@@QAEXXZ  00473510 f   AGKWindows:b2Distance.obj
 0001:00072860       ?b2Distance@@YAXPAUb2DistanceOutput@@PAUb2SimplexCache@@PBUb2DistanceInput@@@Z 00473860 f   AGKWindows:b2Distance.obj
 0001:00072f00       ?GetSearchDirection@b2Simplex@@QBE?AUb2Vec2@@XZ 00473f00 f i AGKWindows:b2Distance.obj
 0001:00072fc0       ?GetWitnessPoints@b2Simplex@@QBEXPAUb2Vec2@@0@Z 00473fc0 f i AGKWindows:b2Distance.obj
 0001:00073140       ?ReadCache@b2Simplex@@QAEXPBUb2SimplexCache@@PBUb2DistanceProxy@@ABUb2Transform@@12@Z 00474140 f i AGKWindows:b2Distance.obj
 0001:00073420       _closesocket@4             00474420 f   AGKWindows:WSOCK32.dll
 0001:00073426       _bind@12                   00474426 f   AGKWindows:WSOCK32.dll
 0001:0007342c       _htons@4                   0047442c f   AGKWindows:WSOCK32.dll
 0001:00073432       _socket@12                 00474432 f   AGKWindows:WSOCK32.dll
 0001:00073438       _sendto@24                 00474438 f   AGKWindows:WSOCK32.dll
 0001:0007343e       _inet_addr@4               0047443e f   AGKWindows:WSOCK32.dll
 0001:00073444       _inet_ntoa@4               00474444 f   AGKWindows:WSOCK32.dll
 0001:0007344a       _recvfrom@24               0047444a f   AGKWindows:WSOCK32.dll
 0001:00073450       _ioctlsocket@12            00474450 f   AGKWindows:WSOCK32.dll
 0001:00073456       _recv@16                   00474456 f   AGKWindows:WSOCK32.dll
 0001:0007345c       _shutdown@8                0047445c f   AGKWindows:WSOCK32.dll
 0001:00073462       _connect@12                00474462 f   AGKWindows:WSOCK32.dll
 0001:00073468       _setsockopt@20             00474468 f   AGKWindows:WSOCK32.dll
 0001:0007346e       _send@16                   0047446e f   AGKWindows:WSOCK32.dll
 0001:00073474       _WSAGetLastError@0         00474474 f   AGKWindows:WSOCK32.dll
 0001:0007347a       _listen@8                  0047447a f   AGKWindows:WSOCK32.dll
 0001:00073480       _getpeername@12            00474480 f   AGKWindows:WSOCK32.dll
 0001:00073486       _accept@12                 00474486 f   AGKWindows:WSOCK32.dll
 0001:00073f70       _LoadCentralDirectoryRecord 00474f70 f   AGKWindows:zip.obj
 0001:00074430       _zipOpen3                  00475430 f   AGKWindows:zip.obj
 0001:00074600       _zipOpen2                  00475600 f   AGKWindows:zip.obj
 0001:00074650       _zipOpen2_64               00475650 f   AGKWindows:zip.obj
 0001:000746b0       _zipOpen                   004756b0 f   AGKWindows:zip.obj
 0001:000746d0       _zipOpen64                 004756d0 f   AGKWindows:zip.obj
 0001:000746f0       _Write_LocalFileHeader     004756f0 f   AGKWindows:zip.obj
 0001:00074b10       _zipWriteInFileInZip       00475b10 f   AGKWindows:zip.obj
 0001:00074c10       _zipCloseFileInZipRaw64    00475c10 f   AGKWindows:zip.obj
 0001:00075430       _Write_Zip64EndOfCentralDirectoryLocator 00476430 f   AGKWindows:zip.obj
 0001:00075570       _Write_Zip64EndOfCentralDirectoryRecord 00476570 f   AGKWindows:zip.obj
 0001:000758b0       _Write_EndOfCentralDirectoryRecord 004768b0 f   AGKWindows:zip.obj
 0001:00075b50       _Write_GlobalComment       00476b50 f   AGKWindows:zip.obj
 0001:00075c20       _zipRemoveExtraInfoBlock   00476c20 f   AGKWindows:zip.obj
 0001:00075d00       _zipCloseFileInZipRaw      00476d00 f   AGKWindows:zip.obj
 0001:00075d20       _zipCloseFileInZip         00476d20 f   AGKWindows:zip.obj
 0001:00075d40       _zipClose                  00476d40 f   AGKWindows:zip.obj
 0001:00075ed0       _zipOpenNewFileInZip4_64   00476ed0 f   AGKWindows:zip.obj
 0001:00076400       _zipOpenNewFileInZip4      00477400 f   AGKWindows:zip.obj
 0001:00076460       _zipOpenNewFileInZip3      00477460 f   AGKWindows:zip.obj
 0001:000764c0       _zipOpenNewFileInZip3_64   004774c0 f   AGKWindows:zip.obj
 0001:00076520       _zipOpenNewFileInZip2      00477520 f   AGKWindows:zip.obj
 0001:00076570       _zipOpenNewFileInZip2_64   00477570 f   AGKWindows:zip.obj
 0001:000765c0       _zipOpenNewFileInZip64     004775c0 f   AGKWindows:zip.obj
 0001:00076610       _zipOpenNewFileInZip       00477610 f   AGKWindows:zip.obj
 0001:00076b00       _unzStringFileNameCompare  00477b00 f   AGKWindows:unzip.obj
 0001:00076f60       _unzGetGlobalInfo64        00477f60 f   AGKWindows:unzip.obj
 0001:00076f90       _unzGetGlobalInfo          00477f90 f   AGKWindows:unzip.obj
 0001:00077530       _unzGetCurrentFileInfo64   00478530 f   AGKWindows:unzip.obj
 0001:00077560       _unzGetCurrentFileInfo     00478560 f   AGKWindows:unzip.obj
 0001:00077620       _unzGoToFirstFile          00478620 f   AGKWindows:unzip.obj
 0001:00077690       _unzGoToNextFile           00478690 f   AGKWindows:unzip.obj
 0001:00077740       _unzLocateFile             00478740 f   AGKWindows:unzip.obj
 0001:00077910       _unzGetFilePos64           00478910 f   AGKWindows:unzip.obj
 0001:00077960       _unzGetFilePos             00478960 f   AGKWindows:unzip.obj
 0001:000779b0       _unzGoToFilePos64          004789b0 f   AGKWindows:unzip.obj
 0001:00077a20       _unzGoToFilePos            00478a20 f   AGKWindows:unzip.obj
 0001:00077cc0       _unzGetCurrentFileZStreamPos64 00478cc0 f   AGKWindows:unzip.obj
 0001:00077cf0       _unzReadCurrentFile        00478cf0 f   AGKWindows:unzip.obj
 0001:00077f80       _unztell                   00478f80 f   AGKWindows:unzip.obj
 0001:00077fa0       _unztell64                 00478fa0 f   AGKWindows:unzip.obj
 0001:00077fd0       _unzeof                    00478fd0 f   AGKWindows:unzip.obj
 0001:00078010       _unzGetLocalExtrafield     00479010 f   AGKWindows:unzip.obj
 0001:000780d0       _unzCloseCurrentFile       004790d0 f   AGKWindows:unzip.obj
 0001:00078170       _unzGetGlobalComment       00479170 f   AGKWindows:unzip.obj
 0001:00078200       _unzGetOffset64            00479200 f   AGKWindows:unzip.obj
 0001:00078250       _unzGetOffset              00479250 f   AGKWindows:unzip.obj
 0001:000782b0       _unzSetOffset64            004792b0 f   AGKWindows:unzip.obj
 0001:00078320       _unzSetOffset              00479320 f   AGKWindows:unzip.obj
 0001:000788a0       _unzOpen2                  004798a0 f   AGKWindows:unzip.obj
 0001:000788e0       _unzOpen2_64               004798e0 f   AGKWindows:unzip.obj
 0001:00078930       _unzOpen                   00479930 f   AGKWindows:unzip.obj
 0001:00078950       _unzOpen64                 00479950 f   AGKWindows:unzip.obj
 0001:00078970       _unzClose                  00479970 f   AGKWindows:unzip.obj
 0001:000789b0       _unzOpenCurrentFile3       004799b0 f   AGKWindows:unzip.obj
 0001:00078be0       _unzOpenCurrentFile        00479be0 f   AGKWindows:unzip.obj
 0001:00078c00       _unzOpenCurrentFilePassword 00479c00 f   AGKWindows:unzip.obj
 0001:00078c20       _unzOpenCurrentFile2       00479c20 f   AGKWindows:unzip.obj
 0001:00078c40       ??0b2DynamicTree@@QAE@XZ   00479c40 f   AGKWindows:b2DynamicTree.obj
 0001:00078cd0       ??1b2DynamicTree@@QAE@XZ   00479cd0 f   AGKWindows:b2DynamicTree.obj
 0001:00078ce0       ?AllocateNode@b2DynamicTree@@AAEHXZ 00479ce0 f   AGKWindows:b2DynamicTree.obj
 0001:00078dc0       ?FreeNode@b2DynamicTree@@AAEXH@Z 00479dc0 f   AGKWindows:b2DynamicTree.obj
 0001:00078df0       ?GetHeight@b2DynamicTree@@QBEHXZ 00479df0 f   AGKWindows:b2DynamicTree.obj
 0001:00078e10       ?GetAreaRatio@b2DynamicTree@@QBEMXZ 00479e10 f   AGKWindows:b2DynamicTree.obj
 0001:00078f90       ?ValidateStructure@b2DynamicTree@@ABEXH@Z 00479f90 f   AGKWindows:b2DynamicTree.obj
 0001:00078fd0       ?Balance@b2DynamicTree@@AAEHH@Z 00479fd0 f   AGKWindows:b2DynamicTree.obj
 0001:00079220       ?ComputeHeight@b2DynamicTree@@ABEHH@Z 0047a220 f   AGKWindows:b2DynamicTree.obj
 0001:00079270       ?ComputeHeight@b2DynamicTree@@ABEHXZ 0047a270 f   AGKWindows:b2DynamicTree.obj
 0001:000792b0       ?ValidateMetrics@b2DynamicTree@@ABEXH@Z 0047a2b0 f   AGKWindows:b2DynamicTree.obj
 0001:000792f0       ?Validate@b2DynamicTree@@QBEXXZ 0047a2f0 f   AGKWindows:b2DynamicTree.obj
 0001:00079310       ?GetMaxBalance@b2DynamicTree@@QBEHXZ 0047a310 f   AGKWindows:b2DynamicTree.obj
 0001:00079370       ?RebuildBottomUp@b2DynamicTree@@QAEXXZ 0047a370 f   AGKWindows:b2DynamicTree.obj
 0001:00079a10       ?InsertLeaf@b2DynamicTree@@AAEXH@Z 0047aa10 f   AGKWindows:b2DynamicTree.obj
 0001:0007a130       ?RemoveLeaf@b2DynamicTree@@AAEXH@Z 0047b130 f   AGKWindows:b2DynamicTree.obj
 0001:0007a310       ?CreateProxy@b2DynamicTree@@QAEHABUb2AABB@@PAX@Z 0047b310 f   AGKWindows:b2DynamicTree.obj
 0001:0007a3a0       ?DestroyProxy@b2DynamicTree@@QAEXH@Z 0047b3a0 f   AGKWindows:b2DynamicTree.obj
 0001:0007a3e0       ?MoveProxy@b2DynamicTree@@QAE_NHABUb2AABB@@ABUb2Vec2@@@Z 0047b3e0 f   AGKWindows:b2DynamicTree.obj
 0001:0007a520       ??0b2BroadPhase@@QAE@XZ    0047b520 f   AGKWindows:b2BroadPhase.obj
 0001:0007a5a0       ??1b2BroadPhase@@QAE@XZ    0047b5a0 f   AGKWindows:b2BroadPhase.obj
 0001:0007a610       ?BufferMove@b2BroadPhase@@AAEXH@Z 0047b610 f   AGKWindows:b2BroadPhase.obj
 0001:0007a670       ?UnBufferMove@b2BroadPhase@@AAEXH@Z 0047b670 f   AGKWindows:b2BroadPhase.obj
 0001:0007a6b0       ?CreateProxy@b2BroadPhase@@QAEHABUb2AABB@@PAX@Z 0047b6b0 f   AGKWindows:b2BroadPhase.obj
 0001:0007a720       ?DestroyProxy@b2BroadPhase@@QAEXH@Z 0047b720 f   AGKWindows:b2BroadPhase.obj
 0001:0007a770       ?MoveProxy@b2BroadPhase@@QAEXHABUb2AABB@@ABUb2Vec2@@@Z 0047b770 f   AGKWindows:b2BroadPhase.obj
 0001:0007a7e0       ?TouchProxy@b2BroadPhase@@QAEXH@Z 0047b7e0 f   AGKWindows:b2BroadPhase.obj
 0001:0007a840       ?QueryCallback@b2BroadPhase@@AAE_NH@Z 0047b840 f   AGKWindows:b2BroadPhase.obj
 0001:0007a8d0       ??0b2BlockAllocator@@QAE@XZ 0047b8d0 f   AGKWindows:b2BlockAllocator.obj
 0001:0007aa00       ??1b2BlockAllocator@@QAE@XZ 0047ba00 f   AGKWindows:b2BlockAllocator.obj
 0001:0007aa40       ?Allocate@b2BlockAllocator@@QAEPAXH@Z 0047ba40 f   AGKWindows:b2BlockAllocator.obj
 0001:0007ab60       ?Free@b2BlockAllocator@@QAEXPAXH@Z 0047bb60 f   AGKWindows:b2BlockAllocator.obj
 0001:0007aba0       ?Clear@b2BlockAllocator@@QAEXXZ 0047bba0 f   AGKWindows:b2BlockAllocator.obj
 0001:0007ac00       ??0b2StackAllocator@@QAE@XZ 0047bc00 f   AGKWindows:b2StackAllocator.obj
 0001:0007ac20       ??1b2StackAllocator@@QAE@XZ 0047bc20 f   AGKWindows:b2StackAllocator.obj
 0001:0007ac30       ?Free@b2StackAllocator@@QAEXPAX@Z 0047bc30 f   AGKWindows:b2StackAllocator.obj
 0001:0007ac80       ?GetMaxAllocation@b2StackAllocator@@QBEHXZ 0047bc80 f   AGKWindows:b2StackAllocator.obj
 0001:0007ac90       ?Allocate@b2StackAllocator@@QAEPAXH@Z 0047bc90 f   AGKWindows:b2StackAllocator.obj
 0001:0007ad10       ?Create@b2Joint@@KAPAV1@PBUb2JointDef@@PAVb2BlockAllocator@@@Z 0047bd10 f   AGKWindows:b2Joint.obj
 0001:0007afd0       ?Destroy@b2Joint@@KAXPAV1@PAVb2BlockAllocator@@@Z 0047bfd0 f   AGKWindows:b2Joint.obj
 0001:0007b0c0       ??0b2Joint@@IAE@PBUb2JointDef@@@Z 0047c0c0 f   AGKWindows:b2Joint.obj
 0001:0007b120       ?IsActive@b2Joint@@QBE_NXZ 0047c120 f   AGKWindows:b2Joint.obj
 0001:0007b140       ??0b2Island@@QAE@HHHPAVb2StackAllocator@@PAVb2ContactListener@@@Z 0047c140 f   AGKWindows:b2Island.obj
 0001:0007b1e0       ??1b2Island@@QAE@XZ        0047c1e0 f   AGKWindows:b2Island.obj
 0001:0007b220       ?Report@b2Island@@QAEXPBUb2ContactVelocityConstraint@@@Z 0047c220 f   AGKWindows:b2Island.obj
 0001:0007b320       ?Solve@b2Island@@QAEXPAUb2Profile@@ABUb2TimeStep@@ABUb2Vec2@@_N@Z 0047c320 f   AGKWindows:b2Island.obj
 0001:0007bc80       ?SolveTOI@b2Island@@QAEXABUb2TimeStep@@HH@Z 0047cc80 f   AGKWindows:b2Island.obj
 0001:0007c0e0       ??0b2Timer@@QAE@XZ         0047d0e0 f   AGKWindows:b2Timer.obj
 0001:0007c140       ?Reset@b2Timer@@QAEXXZ     0047d140 f   AGKWindows:b2Timer.obj
 0001:0007c160       ?GetMilliseconds@b2Timer@@QBEMXZ 0047d160 f   AGKWindows:b2Timer.obj
 0001:0007c1d0       ??0b2ContactManager@@QAE@XZ 0047d1d0 f   AGKWindows:b2ContactManager.obj
 0001:0007c200       ?Destroy@b2ContactManager@@QAEXPAVb2Contact@@@Z 0047d200 f   AGKWindows:b2ContactManager.obj
 0001:0007c2c0       ?Collide@b2ContactManager@@QAEXXZ 0047d2c0 f   AGKWindows:b2ContactManager.obj
 0001:0007c440       ?AddPair@b2ContactManager@@QAEXPAX0@Z 0047d440 f   AGKWindows:b2ContactManager.obj
 0001:0007c5e0       ?FindNewContacts@b2ContactManager@@QAEXXZ 0047d5e0 f   AGKWindows:b2ContactManager.obj
 0001:0007c5f0       ??_Eb2ContactFilter@@UAEPAXI@Z 0047d5f0 f i AGKWindows:b2ContactManager.obj
 0001:0007c5f0       ??_Gb2ContactFilter@@UAEPAXI@Z 0047d5f0 f i AGKWindows:b2ContactManager.obj
 0001:0007c620       ?EndContact@b2ContactListener@@UAEXPAVb2Contact@@@Z 0047d620 f i AGKWindows:b2ContactManager.obj
 0001:0007c620       ?BeginContact@b2ContactListener@@UAEXPAVb2Contact@@@Z 0047d620 f i AGKWindows:b2ContactManager.obj
 0001:0007c620       ?imbue@?$basic_streambuf@DU?$char_traits@D@std@@@std@@MAEXABVlocale@2@@Z 0047d620 f i AGKWindows:Detector.obj
 0001:0007c630       ?PostSolve@b2ContactListener@@UAEXPAVb2Contact@@PBUb2ContactImpulse@@@Z 0047d630 f i AGKWindows:b2ContactManager.obj
 0001:0007c630       ?PreSolve@b2ContactListener@@UAEXPAVb2Contact@@PBUb2Manifold@@@Z 0047d630 f i AGKWindows:b2ContactManager.obj
 0001:0007c640       ??_Eb2ContactListener@@UAEPAXI@Z 0047d640 f i AGKWindows:b2ContactManager.obj
 0001:0007c640       ??_Gb2ContactListener@@UAEPAXI@Z 0047d640 f i AGKWindows:b2ContactManager.obj
 0001:0007c670       ??$Query@Vb2BroadPhase@@@b2DynamicTree@@QBEXPAVb2BroadPhase@@ABUb2AABB@@@Z 0047d670 f i AGKWindows:b2ContactManager.obj
 0001:0007c800       ??$UpdatePairs@Vb2ContactManager@@@b2BroadPhase@@QAEXPAVb2ContactManager@@@Z 0047d800 f i AGKWindows:b2ContactManager.obj
 0001:0007c8d0       ?b2Alloc@@YAPAXH@Z         0047d8d0 f   AGKWindows:b2Settings.obj
 0001:0007c8e0       ?b2Free@@YAXPAX@Z          0047d8e0 f   AGKWindows:b2Settings.obj
 0001:0007c8f0       ?AddType@b2Contact@@KAXP6APAV1@PAVb2Fixture@@H0HPAVb2BlockAllocator@@@ZP6AXPAV1@1@ZW4Type@b2Shape@@5@Z 0047d8f0 f   AGKWindows:b2Contact.obj
 0001:0007c950       ?Destroy@b2Contact@@KAXPAV1@PAVb2BlockAllocator@@@Z 0047d950 f   AGKWindows:b2Contact.obj
 0001:0007c9d0       ?Update@b2Contact@@IAEXPAVb2ContactListener@@@Z 0047d9d0 f   AGKWindows:b2Contact.obj
 0001:0007cb90       ?InitializeRegisters@b2Contact@@KAXXZ 0047db90 f   AGKWindows:b2Contact.obj
 0001:0007ccb0       ?Create@b2Contact@@KAPAV1@PAVb2Fixture@@H0HPAVb2BlockAllocator@@@Z 0047dcb0 f   AGKWindows:b2Contact.obj
 0001:0007cd30       ??0b2Contact@@IAE@PAVb2Fixture@@H0H@Z 0047dd30 f   AGKWindows:b2Contact.obj
 0001:0007cde0       ?GetTransform@b2Sweep@@QBEXPAUb2Transform@@M@Z 0047dde0 f i AGKWindows:b2TimeOfImpact.obj
 0001:0007ceb0       ?Initialize@b2SeparationFunction@@QAEMPBUb2SimplexCache@@PBUb2DistanceProxy@@ABUb2Sweep@@12M@Z 0047deb0 f i AGKWindows:b2TimeOfImpact.obj
 0001:0007d2f0       ?FindMinSeparation@b2SeparationFunction@@QBEMPAH0M@Z 0047e2f0 f i AGKWindows:b2TimeOfImpact.obj
 0001:0007d6a0       ?Evaluate@b2SeparationFunction@@QBEMHHM@Z 0047e6a0 f i AGKWindows:b2TimeOfImpact.obj
 0001:0007d920       ?b2TimeOfImpact@@YAXPAUb2TOIOutput@@PBUb2TOIInput@@@Z 0047e920 f   AGKWindows:b2TimeOfImpact.obj
 0001:0007dfc0       ?Solve33@b2Mat33@@QBE?AUb2Vec3@@ABU2@@Z 0047efc0 f   AGKWindows:b2Math.obj
 0001:0007e130       ?Solve22@b2Mat33@@QBE?AUb2Vec2@@ABU2@@Z 0047f130 f   AGKWindows:b2Math.obj
 0001:0007e1c0       _inflateResetKeep          0047f1c0 f   AGKWindows:inflate.obj
 0001:0007e240       _inflateReset              0047f240 f   AGKWindows:inflate.obj
 0001:0007e270       _inflateReset2             0047f270 f   AGKWindows:inflate.obj
 0001:0007e320       _inflateInit2_             0047f320 f   AGKWindows:inflate.obj
 0001:0007e3e0       _inflateInit_              0047f3e0 f   AGKWindows:inflate.obj
 0001:0007e400       _inflatePrime              0047f400 f   AGKWindows:inflate.obj
 0001:0007e580       _inflate                   0047f580 f   AGKWindows:inflate.obj
 0001:0007fab0       _inflateEnd                00480ab0 f   AGKWindows:inflate.obj
 0001:0007fb00       _inflateSetDictionary      00480b00 f   AGKWindows:inflate.obj
 0001:0007fbd0       _inflateGetHeader          00480bd0 f   AGKWindows:inflate.obj
 0001:0007fc60       _inflateSync               00480c60 f   AGKWindows:inflate.obj
 0001:0007fd40       _inflateSyncPoint          00480d40 f   AGKWindows:inflate.obj
 0001:0007fd70       _inflateCopy               00480d70 f   AGKWindows:inflate.obj
 0001:0007fec0       _inflateUndermine          00480ec0 f   AGKWindows:inflate.obj
 0001:0007fef0       _inflateMark               00480ef0 f   AGKWindows:inflate.obj
 0001:0007ff50       ??1Reader@zxing@@UAE@XZ    00480f50 f   AGKWindows:Reader.obj
 0001:0007ff60       ?decode@Reader@zxing@@UAE?AV?$Ref@VResult@zxing@@@2@V?$Ref@VBinaryBitmap@zxing@@@2@@Z 00480f60 f   AGKWindows:Reader.obj
 0001:000800f0       ??0ReedSolomonDecoder@zxing@@QAE@AAVGF256@1@@Z 004810f0 f   AGKWindows:ReedSolomonDecoder.obj
 0001:00080100       ??1ReedSolomonDecoder@zxing@@QAE@XZ 00481100 f   AGKWindows:ReedSolomonDecoder.obj
 0001:00080110       ?findErrorLocations@ReedSolomonDecoder@zxing@@AAE?AV?$ArrayRef@H@2@V?$Ref@VGF256Poly@zxing@@@2@@Z 00481110 f   AGKWindows:ReedSolomonDecoder.obj
 0001:000803b0       ?findErrorMagnitudes@ReedSolomonDecoder@zxing@@AAE?AV?$ArrayRef@H@2@V?$Ref@VGF256Poly@zxing@@@2@V32@_N@Z 004813b0 f   AGKWindows:ReedSolomonDecoder.obj
 0001:00080580       ?runEuclideanAlgorithm@ReedSolomonDecoder@zxing@@AAE?AV?$vector@V?$Ref@VGF256Poly@zxing@@@zxing@@V?$allocator@V?$Ref@VGF256Poly@zxing@@@zxing@@@std@@@std@@V?$Ref@VGF256Poly@zxing@@@2@0H@Z 00481580 f   AGKWindows:ReedSolomonDecoder.obj
 0001:00081300       ?decode@ReedSolomonDecoder@zxing@@QAEXV?$ArrayRef@H@2@H@Z 00482300 f   AGKWindows:ReedSolomonDecoder.obj
 0001:00081af0       ??1?$ArrayRef@H@zxing@@UAE@XZ 00482af0 f i AGKWindows:ReedSolomonDecoder.obj
 0001:00081b90       ??_G?$ArrayRef@H@zxing@@UAEPAXI@Z 00482b90 f i AGKWindows:ReedSolomonDecoder.obj
 0001:00081b90       ??_E?$ArrayRef@H@zxing@@UAEPAXI@Z 00482b90 f i AGKWindows:ReedSolomonDecoder.obj
 0001:00081c40       ?reset@?$ArrayRef@H@zxing@@QAEXPAV?$Array@H@2@@Z 00482c40 f i AGKWindows:ReedSolomonDecoder.obj
 0001:00081ca0       ??0?$ArrayRef@H@zxing@@QAE@PAV?$Array@H@1@@Z 00482ca0 f i AGKWindows:ReedSolomonDecoder.obj
 0001:00081d40       ??0?$ArrayRef@H@zxing@@QAE@ABV01@@Z 00482d40 f i AGKWindows:ReedSolomonDecoder.obj
 0001:00081df0       ??$_Move@PAV?$Ref@VGF256Poly@zxing@@@zxing@@PAV12@@std@@YAPAV?$Ref@VGF256Poly@zxing@@@zxing@@PAV12@00U_Nonscalar_ptr_iterator_tag@0@@Z 00482df0 f i AGKWindows:ReedSolomonDecoder.obj
 0001:00081df0       ??$_Move@PAV?$Ref@VDataBlock@qrcode@zxing@@@zxing@@PAV12@@std@@YAPAV?$Ref@VDataBlock@qrcode@zxing@@@zxing@@PAV12@00U_Nonscalar_ptr_iterator_tag@0@@Z 00482df0 f i AGKWindows:DataBlock.obj
 0001:00081df0       ??$_Move@PAV?$Ref@VFinderPattern@qrcode@zxing@@@zxing@@PAV12@@std@@YAPAV?$Ref@VFinderPattern@qrcode@zxing@@@zxing@@PAV12@00U_Nonscalar_ptr_iterator_tag@0@@Z 00482df0 f i AGKWindows:FinderPatternFinder.obj
 0001:00081df0       ??$_Move@PAV?$Ref@VResultPoint@zxing@@@zxing@@PAV12@@std@@YAPAV?$Ref@VResultPoint@zxing@@@zxing@@PAV12@00U_Nonscalar_ptr_iterator_tag@0@@Z 00482df0 f i AGKWindows:Detector.obj
 0001:00081e60       ??$_Dest_val@V?$allocator@V?$Ref@VResultPoint@zxing@@@zxing@@@std@@V?$Ref@VResultPoint@zxing@@@zxing@@@std@@YAXAAV?$allocator@V?$Ref@VResultPoint@zxing@@@zxing@@@0@PAV?$Ref@VResultPoint@zxing@@@zxing@@@Z 00482e60 f i AGKWindows:QRCodeReader.obj
 0001:00081e60       ??$_Dest_val@V?$allocator@V?$Ref@VGF256Poly@zxing@@@zxing@@@std@@V?$Ref@VGF256Poly@zxing@@@zxing@@@std@@YAXAAV?$allocator@V?$Ref@VGF256Poly@zxing@@@zxing@@@0@PAV?$Ref@VGF256Poly@zxing@@@zxing@@@Z 00482e60 f i AGKWindows:ReedSolomonDecoder.obj
 0001:00081e60       ??$_Dest_val@V?$allocator@V?$Ref@VDataMask@qrcode@zxing@@@zxing@@@std@@V?$Ref@VDataMask@qrcode@zxing@@@zxing@@@std@@YAXAAV?$allocator@V?$Ref@VDataMask@qrcode@zxing@@@zxing@@@0@PAV?$Ref@VDataMask@qrcode@zxing@@@zxing@@@Z 00482e60 f i AGKWindows:DataMask.obj
 0001:00081e60       ??$_Dest_val@V?$allocator@V?$Ref@VVersion@qrcode@zxing@@@zxing@@@std@@V?$Ref@VVersion@qrcode@zxing@@@zxing@@@std@@YAXAAV?$allocator@V?$Ref@VVersion@qrcode@zxing@@@zxing@@@0@PAV?$Ref@VVersion@qrcode@zxing@@@zxing@@@Z 00482e60 f i AGKWindows:Version.obj
 0001:00081e60       ??$_Dest_val@V?$allocator@V?$Ref@VFinderPattern@qrcode@zxing@@@zxing@@@std@@V?$Ref@VFinderPattern@qrcode@zxing@@@zxing@@@std@@YAXAAV?$allocator@V?$Ref@VFinderPattern@qrcode@zxing@@@zxing@@@0@PAV?$Ref@VFinderPattern@qrcode@zxing@@@zxing@@@Z 00482e60 f i AGKWindows:Detector.obj
 0001:00081e60       ??$_Dest_val@V?$allocator@V?$Ref@VDataBlock@qrcode@zxing@@@zxing@@@std@@V?$Ref@VDataBlock@qrcode@zxing@@@zxing@@@std@@YAXAAV?$allocator@V?$Ref@VDataBlock@qrcode@zxing@@@zxing@@@0@PAV?$Ref@VDataBlock@qrcode@zxing@@@zxing@@@Z 00482e60 f i AGKWindows:Decoder.obj
 0001:00081eb0       ??$_Uninit_def_fill_n@PAV?$Ref@VFinderPattern@qrcode@zxing@@@zxing@@IV12@V?$allocator@V?$Ref@VFinderPattern@qrcode@zxing@@@zxing@@@std@@V12@@std@@YAXPAV?$Ref@VFinderPattern@qrcode@zxing@@@zxing@@IPBV12@AAV?$allocator@V?$Ref@VFinderPattern@qrcode@zxing@@@zxing@@@0@0U_Nonscalar_ptr_iterator_tag@0@@Z 00482eb0 f i AGKWindows:FinderPatternFinder.obj
 0001:00081eb0       ??$_Uninit_def_fill_n@PAV?$Ref@VGF256Poly@zxing@@@zxing@@IV12@V?$allocator@V?$Ref@VGF256Poly@zxing@@@zxing@@@std@@V12@@std@@YAXPAV?$Ref@VGF256Poly@zxing@@@zxing@@IPBV12@AAV?$allocator@V?$Ref@VGF256Poly@zxing@@@zxing@@@0@0U_Nonscalar_ptr_iterator_tag@0@@Z 00482eb0 f i AGKWindows:ReedSolomonDecoder.obj
 0001:00081eb0       ??$_Uninit_def_fill_n@PAV?$Ref@VDataBlock@qrcode@zxing@@@zxing@@IV12@V?$allocator@V?$Ref@VDataBlock@qrcode@zxing@@@zxing@@@std@@V12@@std@@YAXPAV?$Ref@VDataBlock@qrcode@zxing@@@zxing@@IPBV12@AAV?$allocator@V?$Ref@VDataBlock@qrcode@zxing@@@zxing@@@0@0U_Nonscalar_ptr_iterator_tag@0@@Z 00482eb0 f i AGKWindows:DataBlock.obj
 0001:00081eb0       ??$_Uninit_def_fill_n@PAV?$Ref@VResultPoint@zxing@@@zxing@@IV12@V?$allocator@V?$Ref@VResultPoint@zxing@@@zxing@@@std@@V12@@std@@YAXPAV?$Ref@VResultPoint@zxing@@@zxing@@IPBV12@AAV?$allocator@V?$Ref@VResultPoint@zxing@@@zxing@@@0@0U_Nonscalar_ptr_iterator_tag@0@@Z 00482eb0 f i AGKWindows:Detector.obj
 0001:00081f10       ??0?$Array@H@zxing@@QAE@I@Z 00482f10 f i AGKWindows:ReedSolomonDecoder.obj
 0001:00081f80       ??_E?$Array@H@zxing@@UAEPAXI@Z 00482f80 f i AGKWindows:ReedSolomonDecoder.obj
 0001:00081f80       ??_G?$Array@H@zxing@@UAEPAXI@Z 00482f80 f i AGKWindows:ReedSolomonDecoder.obj
 0001:00081fd0       ??0?$ArrayRef@H@zxing@@QAE@I@Z 00482fd0 f i AGKWindows:ReedSolomonDecoder.obj
 0001:000820c0       ??0ReedSolomonException@zxing@@QAE@ABV01@@Z 004830c0 f i AGKWindows:ReedSolomonDecoder.obj
 0001:00082140       ??_EReedSolomonException@zxing@@UAEPAXI@Z 00483140 f i AGKWindows:ReedSolomonDecoder.obj
 0001:00082140       ??_GReedSolomonException@zxing@@UAEPAXI@Z 00483140 f i AGKWindows:ReedSolomonDecoder.obj
 0001:00082170       ?resize@?$vector@V?$Ref@VGF256Poly@zxing@@@zxing@@V?$allocator@V?$Ref@VGF256Poly@zxing@@@zxing@@@std@@@std@@QAEXI@Z 00483170 f i AGKWindows:ReedSolomonDecoder.obj
 0001:00082170       ?resize@?$vector@V?$Ref@VDataBlock@qrcode@zxing@@@zxing@@V?$allocator@V?$Ref@VDataBlock@qrcode@zxing@@@zxing@@@std@@@std@@QAEXI@Z 00483170 f i AGKWindows:DataBlock.obj
 0001:00082170       ?resize@?$vector@V?$Ref@VFinderPattern@qrcode@zxing@@@zxing@@V?$allocator@V?$Ref@VFinderPattern@qrcode@zxing@@@zxing@@@std@@@std@@QAEXI@Z 00483170 f i AGKWindows:FinderPatternFinder.obj
 0001:00082170       ?resize@?$vector@V?$Ref@VResultPoint@zxing@@@zxing@@V?$allocator@V?$Ref@VResultPoint@zxing@@@zxing@@@std@@@std@@QAEXI@Z 00483170 f i AGKWindows:Detector.obj
 0001:00082210       ??0Decoder@qrcode@zxing@@QAE@XZ 00483210 f   AGKWindows:Decoder.obj
 0001:00082230       ?correctErrors@Decoder@qrcode@zxing@@AAEXV?$ArrayRef@E@3@H@Z 00483230 f   AGKWindows:Decoder.obj
 0001:00082460       ?decode@Decoder@qrcode@zxing@@QAE?AV?$Ref@VDecoderResult@zxing@@@3@V?$Ref@VBitMatrix@zxing@@@3@@Z 00483460 f   AGKWindows:Decoder.obj
 0001:00082b00       ?_Max@?$_Tree_val@V?$_Tmap_traits@V?$basic_string@DU?$char_traits@D@std@@V?$allocator@D@2@@std@@PAVCharacterSetECI@common@zxing@@U?$less@V?$basic_string@DU?$char_traits@D@std@@V?$allocator@D@2@@std@@@2@V?$allocator@U?$pair@$$CBV?$basic_string@DU?$char_traits@D@std@@V?$allocator@D@2@@std@@PAVCharacterSetECI@common@zxing@@@std@@@2@$0A@@std@@@std@@SAPAU_Node@?$_Tree_nod@V?$_Tmap_traits@V?$basic_string@DU?$char_traits@D@std@@V?$allocator@D@2@@std@@PAVCharacterSetECI@common@zxing@@U?$less@V?$basic_string@DU?$char_traits@D@std@@V?$allocator@D@2@@std@@@2@V?$allocator@U?$pair@$$CBV?$basic_string@DU?$char_traits@D@std@@V?$allocator@D@2@@std@@PAVCharacterSetECI@common@zxing@@@std@@@2@$0A@@std@@@2@PAU342@@Z 00483b00 f i AGKWindows:CharacterSetECI.obj
 0001:00082b00       ?_Max@?$_Tree_val@V?$_Tmap_traits@IV?$basic_string@DU?$char_traits@D@std@@V?$allocator@D@2@@std@@U?$less@I@2@V?$allocator@U?$pair@$$CBIV?$basic_string@DU?$char_traits@D@std@@V?$allocator@D@2@@std@@@std@@@2@$0A@@std@@@std@@SAPAU_Node@?$_Tree_nod@V?$_Tmap_traits@IV?$basic_string@DU?$char_traits@D@std@@V?$allocator@D@2@@std@@U?$less@I@2@V?$allocator@U?$pair@$$CBIV?$basic_string@DU?$char_traits@D@std@@V?$allocator@D@2@@std@@@std@@@2@$0A@@std@@@2@PAU342@@Z 00483b00 f i AGKWindows:Decoder.obj
 0001:00082b20       ??E?$_Tree_unchecked_const_iterator@V?$_Tree_val@V?$_Tmap_traits@V?$basic_string@DU?$char_traits@D@std@@V?$allocator@D@2@@std@@PAVCharacterSetECI@common@zxing@@U?$less@V?$basic_string@DU?$char_traits@D@std@@V?$allocator@D@2@@std@@@2@V?$allocator@U?$pair@$$CBV?$basic_string@DU?$char_traits@D@std@@V?$allocator@D@2@@std@@PAVCharacterSetECI@common@zxing@@@std@@@2@$0A@@std@@@std@@U_Iterator_base0@2@@std@@QAEAAV01@XZ 00483b20 f i AGKWindows:CharacterSetECI.obj
 0001:00082b20       ??E?$_Tree_unchecked_const_iterator@V?$_Tree_val@V?$_Tmap_traits@IV?$basic_string@DU?$char_traits@D@std@@V?$allocator@D@2@@std@@U?$less@I@2@V?$allocator@U?$pair@$$CBIV?$basic_string@DU?$char_traits@D@std@@V?$allocator@D@2@@std@@@std@@@2@$0A@@std@@@std@@U_Iterator_base0@2@@std@@QAEAAV01@XZ 00483b20 f i AGKWindows:Decoder.obj
 0001:00082b70       ??1BitMatrixParser@qrcode@zxing@@UAE@XZ 00483b70 f i AGKWindows:Decoder.obj
 0001:00082c40       ??0ReaderException@zxing@@QAE@ABV01@@Z 00483c40 f i AGKWindows:Decoder.obj
 0001:00082cc0       ??_EReaderException@zxing@@UAEPAXI@Z 00483cc0 f i AGKWindows:Decoder.obj
 0001:00082cc0       ??_GReaderException@zxing@@UAEPAXI@Z 00483cc0 f i AGKWindows:Decoder.obj
 0001:00082cf0       ??1?$vector@V?$Ref@VResultPoint@zxing@@@zxing@@V?$allocator@V?$Ref@VResultPoint@zxing@@@zxing@@@std@@@std@@QAE@XZ 00483cf0 f i AGKWindows:QRCodeReader.obj
 0001:00082cf0       ??1?$vector@V?$Ref@VFinderPattern@qrcode@zxing@@@zxing@@V?$allocator@V?$Ref@VFinderPattern@qrcode@zxing@@@zxing@@@std@@@std@@QAE@XZ 00483cf0 f i AGKWindows:Detector.obj
 0001:00082cf0       ??1?$vector@V?$Ref@VGF256Poly@zxing@@@zxing@@V?$allocator@V?$Ref@VGF256Poly@zxing@@@zxing@@@std@@@std@@QAE@XZ 00483cf0 f i AGKWindows:ReedSolomonDecoder.obj
 0001:00082cf0       ??1?$vector@V?$Ref@VDataBlock@qrcode@zxing@@@zxing@@V?$allocator@V?$Ref@VDataBlock@qrcode@zxing@@@zxing@@@std@@@std@@QAE@XZ 00483cf0 f i AGKWindows:Decoder.obj
 0001:00082cf0       ?_Tidy@?$vector@V?$Ref@VFinderPattern@qrcode@zxing@@@zxing@@V?$allocator@V?$Ref@VFinderPattern@qrcode@zxing@@@zxing@@@std@@@std@@IAEXXZ 00483cf0 f i AGKWindows:Detector.obj
 0001:00082cf0       ?_Tidy@?$vector@V?$Ref@VResultPoint@zxing@@@zxing@@V?$allocator@V?$Ref@VResultPoint@zxing@@@zxing@@@std@@@std@@IAEXXZ 00483cf0 f i AGKWindows:QRCodeReader.obj
 0001:00082d40       ?erase@?$_Tree@V?$_Tmap_traits@IV?$basic_string@DU?$char_traits@D@std@@V?$allocator@D@2@@std@@U?$less@I@2@V?$allocator@U?$pair@$$CBIV?$basic_string@DU?$char_traits@D@std@@V?$allocator@D@2@@std@@@std@@@2@$0A@@std@@@std@@QAE?AV?$_Tree_iterator@V?$_Tree_val@V?$_Tmap_traits@IV?$basic_string@DU?$char_traits@D@std@@V?$allocator@D@2@@std@@U?$less@I@2@V?$allocator@U?$pair@$$CBIV?$basic_string@DU?$char_traits@D@std@@V?$allocator@D@2@@std@@@std@@@2@$0A@@std@@@std@@@2@V?$_Tree_const_iterator@V?$_Tree_val@V?$_Tmap_traits@IV?$basic_string@DU?$char_traits@D@std@@V?$allocator@D@2@@std@@U?$less@I@2@V?$allocator@U?$pair@$$CBIV?$basic_string@DU?$char_traits@D@std@@V?$allocator@D@2@@std@@@std@@@2@$0A@@std@@@std@@@2@@Z 00483d40 f i AGKWindows:Decoder.obj
 0001:00082fc0       ?_Erase@?$_Tree@V?$_Tmap_traits@IV?$basic_string@DU?$char_traits@D@std@@V?$allocator@D@2@@std@@U?$less@I@2@V?$allocator@U?$pair@$$CBIV?$basic_string@DU?$char_traits@D@std@@V?$allocator@D@2@@std@@@std@@@2@$0A@@std@@@std@@IAEXPAU_Node@?$_Tree_nod@V?$_Tmap_traits@IV?$basic_string@DU?$char_traits@D@std@@V?$allocator@D@2@@std@@U?$less@I@2@V?$allocator@U?$pair@$$CBIV?$basic_string@DU?$char_traits@D@std@@V?$allocator@D@2@@std@@@std@@@2@$0A@@std@@@2@@Z 00483fc0 f i AGKWindows:Decoder.obj
 0001:00083020       ?erase@?$_Tree@V?$_Tmap_traits@IV?$basic_string@DU?$char_traits@D@std@@V?$allocator@D@2@@std@@U?$less@I@2@V?$allocator@U?$pair@$$CBIV?$basic_string@DU?$char_traits@D@std@@V?$allocator@D@2@@std@@@std@@@2@$0A@@std@@@std@@QAE?AV?$_Tree_iterator@V?$_Tree_val@V?$_Tmap_traits@IV?$basic_string@DU?$char_traits@D@std@@V?$allocator@D@2@@std@@U?$less@I@2@V?$allocator@U?$pair@$$CBIV?$basic_string@DU?$char_traits@D@std@@V?$allocator@D@2@@std@@@std@@@2@$0A@@std@@@std@@@2@V?$_Tree_const_iterator@V?$_Tree_val@V?$_Tmap_traits@IV?$basic_string@DU?$char_traits@D@std@@V?$allocator@D@2@@std@@U?$less@I@2@V?$allocator@U?$pair@$$CBIV?$basic_string@DU?$char_traits@D@std@@V?$allocator@D@2@@std@@@std@@@2@$0A@@std@@@std@@@2@0@Z 00484020 f i AGKWindows:Decoder.obj
 0001:000830e0       ??1?$map@IV?$basic_string@DU?$char_traits@D@std@@V?$allocator@D@2@@std@@U?$less@I@2@V?$allocator@U?$pair@$$CBIV?$basic_string@DU?$char_traits@D@std@@V?$allocator@D@2@@std@@@std@@@2@@std@@QAE@XZ 004840e0 f i AGKWindows:Decoder.obj
 0001:00083140       ??1?$ArrayRef@V?$ArrayRef@E@zxing@@@zxing@@UAE@XZ 00484140 f i AGKWindows:DecoderResult.obj
 0001:000831e0       ??_E?$ArrayRef@V?$ArrayRef@E@zxing@@@zxing@@UAEPAXI@Z 004841e0 f i AGKWindows:DecoderResult.obj
 0001:000831e0       ??_G?$ArrayRef@V?$ArrayRef@E@zxing@@@zxing@@UAEPAXI@Z 004841e0 f i AGKWindows:DecoderResult.obj
 0001:00083290       ?getRawBytes@DecoderResult@zxing@@QAE?AV?$ArrayRef@E@2@XZ 00484290 f   AGKWindows:DecoderResult.obj
 0001:00083330       ?getText@DecoderResult@zxing@@QAE?AV?$Ref@VString@zxing@@@2@XZ 00484330 f   AGKWindows:DecoderResult.obj
 0001:00083360       ??0DecoderResult@zxing@@QAE@V?$ArrayRef@E@1@V?$Ref@VString@zxing@@@1@@Z 00484360 f   AGKWindows:DecoderResult.obj
 0001:00083520       ??0DecoderResult@zxing@@QAE@V?$ArrayRef@E@1@V?$Ref@VString@zxing@@@1@AAV?$ArrayRef@V?$ArrayRef@E@zxing@@@1@ABV?$basic_string@DU?$char_traits@D@std@@V?$allocator@D@2@@std@@@Z 00484520 f   AGKWindows:DecoderResult.obj
 0001:00083770       ??1DecoderResult@zxing@@UAE@XZ 00484770 f i AGKWindows:DecoderResult.obj
 0001:000838d0       ??_EDecoderResult@zxing@@UAEPAXI@Z 004848d0 f i AGKWindows:DecoderResult.obj
 0001:000838d0       ??_GDecoderResult@zxing@@UAEPAXI@Z 004848d0 f i AGKWindows:DecoderResult.obj
 0001:00083900       ?getBits@DetectorResult@zxing@@QAE?AV?$Ref@VBitMatrix@zxing@@@2@XZ 00484900 f   AGKWindows:DetectorResult.obj
 0001:00083930       ?getTransform@DetectorResult@zxing@@QAE?AV?$Ref@VPerspectiveTransform@zxing@@@2@XZ 00484930 f   AGKWindows:DetectorResult.obj
 0001:00083960       ??0DetectorResult@zxing@@QAE@V?$Ref@VBitMatrix@zxing@@@1@V?$vector@V?$Ref@VResultPoint@zxing@@@zxing@@V?$allocator@V?$Ref@VResultPoint@zxing@@@zxing@@@std@@@std@@V?$Ref@VPerspectiveTransform@zxing@@@1@@Z 00484960 f   AGKWindows:DetectorResult.obj
 0001:00083b30       ?getPoints@DetectorResult@zxing@@QAE?AV?$vector@V?$Ref@VResultPoint@zxing@@@zxing@@V?$allocator@V?$Ref@VResultPoint@zxing@@@zxing@@@std@@@std@@XZ 00484b30 f   AGKWindows:DetectorResult.obj
 0001:00083b60       ??1DetectorResult@zxing@@UAE@XZ 00484b60 f i AGKWindows:DetectorResult.obj
 0001:00083c60       ??_EDetectorResult@zxing@@UAEPAXI@Z 00484c60 f i AGKWindows:DetectorResult.obj
 0001:00083c60       ??_GDetectorResult@zxing@@UAEPAXI@Z 00484c60 f i AGKWindows:DetectorResult.obj
 0001:00083c90       ?custom_isnan@zxing@@YA_NM@Z 00484c90 f i AGKWindows:Detector.obj
 0001:00083cb0       ??1?$basic_ostream@DU?$char_traits@D@std@@@std@@UAE@XZ 00484cb0 f i AGKWindows:Detector.obj
 0001:00083cc0       ??1?$basic_ios@DU?$char_traits@D@std@@@std@@UAE@XZ 00484cc0 f i AGKWindows:Detector.obj
 0001:00083cd0       ??1?$Ref@VVersion@qrcode@zxing@@@zxing@@QAE@XZ 00484cd0 f i AGKWindows:Version.obj
 0001:00083cd0       ??1?$Ref@VFinderPatternInfo@qrcode@zxing@@@zxing@@QAE@XZ 00484cd0 f i AGKWindows:Detector.obj
 0001:00083cd0       ??1?$Ref@VBinaryBitmap@zxing@@@zxing@@QAE@XZ 00484cd0 f i AGKWindows:WindowsCore.obj
 0001:00083cd0       ??1?$Ref@VGF256Poly@zxing@@@zxing@@QAE@XZ 00484cd0 f i AGKWindows:ReedSolomonDecoder.obj
 0001:00083cd0       ??1?$Ref@VDataBlock@qrcode@zxing@@@zxing@@QAE@XZ 00484cd0 f i AGKWindows:Decoder.obj
 0001:00083cd0       ??1?$Ref@VResultPointCallback@zxing@@@zxing@@QAE@XZ 00484cd0 f i AGKWindows:WindowsCore.obj
 0001:00083cd0       ??1?$Ref@VFinderPattern@qrcode@zxing@@@zxing@@QAE@XZ 00484cd0 f i AGKWindows:Detector.obj
 0001:00083cd0       ??1?$Ref@VResult@zxing@@@zxing@@QAE@XZ 00484cd0 f i AGKWindows:WindowsCore.obj
 0001:00083cd0       ??1?$Ref@VGlobalHistogramBinarizer@zxing@@@zxing@@QAE@XZ 00484cd0 f i AGKWindows:WindowsCore.obj
 0001:00083cd0       ??1?$Ref@VLuminanceSource@zxing@@@zxing@@QAE@XZ 00484cd0 f i AGKWindows:WindowsCore.obj
 0001:00083cd0       ??1?$Ref@VGreyscaleLuminanceSource@zxing@@@zxing@@QAE@XZ 00484cd0 f i AGKWindows:WindowsCore.obj
 0001:00083cd0       ??1?$Ref@VBitSource@zxing@@@zxing@@QAE@XZ 00484cd0 f i AGKWindows:DecodedBitStreamParser.obj
 0001:00083cd0       ??1?$Ref@VString@zxing@@@zxing@@QAE@XZ 00484cd0 f i AGKWindows:WindowsCore.obj
 0001:00083cd0       ??1?$Ref@VBitMatrix@zxing@@@zxing@@QAE@XZ 00484cd0 f i AGKWindows:QRCodeReader.obj
 0001:00083cd0       ??1?$Ref@VFormatInformation@qrcode@zxing@@@zxing@@QAE@XZ 00484cd0 f i AGKWindows:Decoder.obj
 0001:00083cd0       ??1?$Ref@VDetectorResult@zxing@@@zxing@@QAE@XZ 00484cd0 f i AGKWindows:QRCodeReader.obj
 0001:00083cd0       ??1?$Ref@VBinarizer@zxing@@@zxing@@QAE@XZ 00484cd0 f i AGKWindows:WindowsCore.obj
 0001:00083cd0       ??1?$Ref@VPerspectiveTransform@zxing@@@zxing@@QAE@XZ 00484cd0 f i AGKWindows:DetectorResult.obj
 0001:00083cd0       ??1?$Ref@VAlignmentPattern@qrcode@zxing@@@zxing@@QAE@XZ 00484cd0 f i AGKWindows:Detector.obj
 0001:00083cd0       ??1?$Ref@VDecoderResult@zxing@@@zxing@@QAE@XZ 00484cd0 f i AGKWindows:QRCodeReader.obj
 0001:00083cd0       ??1?$Ref@VBitArray@zxing@@@zxing@@QAE@XZ 00484cd0 f i AGKWindows:BinaryBitmap.obj
 0001:00083cd0       ??1?$Ref@VResultPoint@zxing@@@zxing@@QAE@XZ 00484cd0 f i AGKWindows:QRCodeReader.obj
 0001:00083cd0       ??1?$Ref@VDataMask@qrcode@zxing@@@zxing@@QAE@XZ 00484cd0 f i AGKWindows:DataMask.obj
 0001:00083d20       ??_E?$basic_ios@DU?$char_traits@D@std@@@std@@UAEPAXI@Z 00484d20 f i AGKWindows:Detector.obj
 0001:00083d20       ??_Eios_base@std@@UAEPAXI@Z 00484d20 f i AGKWindows:Detector.obj
 0001:00083d20       ??_G?$basic_ios@DU?$char_traits@D@std@@@std@@UAEPAXI@Z 00484d20 f i AGKWindows:Detector.obj
 0001:00083d20       ??_Gios_base@std@@UAEPAXI@Z 00484d20 f i AGKWindows:Detector.obj
 0001:00083d50       ?_Tidy@?$basic_stringbuf@DU?$char_traits@D@std@@V?$allocator@D@2@@std@@IAEXXZ 00484d50 f i AGKWindows:Detector.obj
 0001:00083db0       ?do_tolower@?$ctype@D@std@@MBEDD@Z 00484db0 f i AGKWindows:Detector.obj
 0001:00083dd0       ?do_tolower@?$ctype@D@std@@MBEPBDPADPBD@Z 00484dd0 f i AGKWindows:Detector.obj
 0001:00083e00       ?do_toupper@?$ctype@D@std@@MBEDD@Z 00484e00 f i AGKWindows:Detector.obj
 0001:00083e20       ?do_toupper@?$ctype@D@std@@MBEPBDPADPBD@Z 00484e20 f i AGKWindows:Detector.obj
 0001:00083e50       ?do_widen@?$ctype@D@std@@MBEDD@Z 00484e50 f i AGKWindows:Detector.obj
 0001:00083e60       ?do_widen@?$ctype@D@std@@MBEPBDPBD0PAD@Z 00484e60 f i AGKWindows:Detector.obj
 0001:00083e90       ?do_narrow@?$ctype@D@std@@MBEDDD@Z 00484e90 f i AGKWindows:Detector.obj
 0001:00083ea0       ?do_narrow@?$ctype@D@std@@MBEPBDPBD0DPAD@Z 00484ea0 f i AGKWindows:Detector.obj
 0001:00083ed0       ??_G?$ctype@D@std@@MAEPAXI@Z 00484ed0 f i AGKWindows:Detector.obj
 0001:00083ed0       ??_E?$ctype@D@std@@MAEPAXI@Z 00484ed0 f i AGKWindows:Detector.obj
 0001:00083f20       ?_Init@ios_base@std@@IAEXXZ 00484f20 f i AGKWindows:Detector.obj
 0001:00083fb0       ?sizeOfBlackWhiteBlackRun@Detector@qrcode@zxing@@IAEMHHHH@Z 00484fb0 f   AGKWindows:Detector.obj
 0001:00084150       ??0Detector@qrcode@zxing@@QAE@V?$Ref@VBitMatrix@zxing@@@2@@Z 00485150 f   AGKWindows:Detector.obj
 0001:00084250       ?getImage@Detector@qrcode@zxing@@IAE?AV?$Ref@VBitMatrix@zxing@@@3@XZ 00485250 f   AGKWindows:Detector.obj
 0001:00084280       ?createTransform@Detector@qrcode@zxing@@UAE?AV?$Ref@VPerspectiveTransform@zxing@@@3@V?$Ref@VResultPoint@zxing@@@3@000H@Z 00485280 f   AGKWindows:Detector.obj
 0001:00084530       ?sampleGrid@Detector@qrcode@zxing@@KA?AV?$Ref@VBitMatrix@zxing@@@3@V43@HV?$Ref@VPerspectiveTransform@zxing@@@3@@Z 00485530 f   AGKWindows:Detector.obj
 0001:000846d0       ?sizeOfBlackWhiteBlackRunBothWays@Detector@qrcode@zxing@@IAEMHHHH@Z 004856d0 f   AGKWindows:Detector.obj
 0001:00084820       ?findAlignmentInRegion@Detector@qrcode@zxing@@IAE?AV?$Ref@VAlignmentPattern@qrcode@zxing@@@3@MHHM@Z 00485820 f   AGKWindows:Detector.obj
 0001:000849d0       ?calculateModuleSizeOneWay@Detector@qrcode@zxing@@IAEMV?$Ref@VResultPoint@zxing@@@3@0@Z 004859d0 f   AGKWindows:Detector.obj
 0001:00084ce0       ?calculateModuleSize@Detector@qrcode@zxing@@IAEMV?$Ref@VResultPoint@zxing@@@3@00@Z 00485ce0 f   AGKWindows:Detector.obj
 0001:00085170       ?computeDimension@Detector@qrcode@zxing@@KAHV?$Ref@VResultPoint@zxing@@@3@00M@Z 00486170 f   AGKWindows:Detector.obj
 0001:000854b0       ?processFinderPatternInfo@Detector@qrcode@zxing@@IAE?AV?$Ref@VDetectorResult@zxing@@@3@V?$Ref@VFinderPatternInfo@qrcode@zxing@@@3@@Z 004864b0 f   AGKWindows:Detector.obj
 0001:00086210       ?detect@Detector@qrcode@zxing@@QAE?AV?$Ref@VDetectorResult@zxing@@@3@ABVDecodeHints@3@@Z 00487210 f   AGKWindows:Detector.obj
 0001:00086480       ??1?$basic_streambuf@DU?$char_traits@D@std@@@std@@UAE@XZ 00487480 f i AGKWindows:Detector.obj
 0001:00086500       ?_Lock@?$basic_streambuf@DU?$char_traits@D@std@@@std@@UAEXXZ 00487500 f i AGKWindows:Detector.obj
 0001:00086510       ?_Unlock@?$basic_streambuf@DU?$char_traits@D@std@@@std@@UAEXXZ 00487510 f i AGKWindows:Detector.obj
 0001:00086520       ?overflow@?$basic_streambuf@DU?$char_traits@D@std@@@std@@MAEHH@Z 00487520 f i AGKWindows:Detector.obj
 0001:00086520       ?pbackfail@?$basic_streambuf@DU?$char_traits@D@std@@@std@@MAEHH@Z 00487520 f i AGKWindows:Detector.obj
 0001:00086530       ?showmanyc@?$basic_streambuf@DU?$char_traits@D@std@@@std@@MAE_JXZ 00487530 f i AGKWindows:Detector.obj
 0001:00086540       ?underflow@?$basic_streambuf@DU?$char_traits@D@std@@@std@@MAEHXZ 00487540 f i AGKWindows:Detector.obj
 0001:00086550       ?setbuf@?$basic_streambuf@DU?$char_traits@D@std@@@std@@MAEPAV12@PAD_J@Z 00487550 f i AGKWindows:Detector.obj
 0001:00086560       ?sync@?$basic_streambuf@DU?$char_traits@D@std@@@std@@MAEHXZ 00487560 f i AGKWindows:Detector.obj
 0001:00086570       ?_Gnavail@?$basic_streambuf@DU?$char_traits@D@std@@@std@@IBE_JXZ 00487570 f i AGKWindows:Detector.obj
 0001:00086590       ?uflow@?$basic_streambuf@DU?$char_traits@D@std@@@std@@MAEHXZ 00487590 f i AGKWindows:Detector.obj
 0001:000865c0       ?xsgetn@?$basic_streambuf@DU?$char_traits@D@std@@@std@@MAE_JPAD_J@Z 004875c0 f i AGKWindows:Detector.obj
 0001:00086690       ?xsputn@?$basic_streambuf@DU?$char_traits@D@std@@@std@@MAE_JPBD_J@Z 00487690 f i AGKWindows:Detector.obj
 0001:00086760       ?seekoff@?$basic_streambuf@DU?$char_traits@D@std@@@std@@MAE?AV?$fpos@H@2@_JHH@Z 00487760 f i AGKWindows:Detector.obj
 0001:00086790       ?seekpos@?$basic_streambuf@DU?$char_traits@D@std@@@std@@MAE?AV?$fpos@H@2@V32@H@Z 00487790 f i AGKWindows:Detector.obj
 0001:000867c0       ??4?$Ref@VAlignmentPattern@qrcode@zxing@@@zxing@@QAEAAV01@ABV01@@Z 004877c0 f i AGKWindows:Detector.obj
 0001:00086820       ?pbackfail@?$basic_stringbuf@DU?$char_traits@D@std@@V?$allocator@D@2@@std@@MAEHH@Z 00487820 f i AGKWindows:Detector.obj
 0001:00086870       ?underflow@?$basic_stringbuf@DU?$char_traits@D@std@@V?$allocator@D@2@@std@@MAEHXZ 00487870 f i AGKWindows:Detector.obj
 0001:000868e0       ?seekoff@?$basic_stringbuf@DU?$char_traits@D@std@@V?$allocator@D@2@@std@@MAE?AV?$fpos@H@2@_JHH@Z 004878e0 f i AGKWindows:Detector.obj
 0001:00086aa0       ?seekpos@?$basic_stringbuf@DU?$char_traits@D@std@@V?$allocator@D@2@@std@@MAE?AV?$fpos@H@2@V32@H@Z 00487aa0 f i AGKWindows:Detector.obj
 0001:00086bc0       ??_G?$basic_ostream@DU?$char_traits@D@std@@@std@@UAEPAXI@Z 00487bc0 f i AGKWindows:Detector.obj
 0001:00086bc0       ??_E?$basic_ostream@DU?$char_traits@D@std@@@std@@UAEPAXI@Z 00487bc0 f i AGKWindows:Detector.obj
 0001:00086c00       ??_E?$basic_streambuf@DU?$char_traits@D@std@@@std@@UAEPAXI@Z 00487c00 f i AGKWindows:Detector.obj
 0001:00086c00       ??_G?$basic_streambuf@DU?$char_traits@D@std@@@std@@UAEPAXI@Z 00487c00 f i AGKWindows:Detector.obj
 0001:00086c30       ??_E?$basic_stringbuf@DU?$char_traits@D@std@@V?$allocator@D@2@@std@@UAEPAXI@Z 00487c30 f i AGKWindows:Detector.obj
 0001:00086c30       ??_G?$basic_stringbuf@DU?$char_traits@D@std@@V?$allocator@D@2@@std@@UAEPAXI@Z 00487c30 f i AGKWindows:Detector.obj
 0001:00086c60       ??0?$basic_streambuf@DU?$char_traits@D@std@@@std@@IAE@XZ 00487c60 f i AGKWindows:Detector.obj
 0001:00086d50       ?_Getcat@?$ctype@D@std@@SAIPAPBVfacet@locale@2@PBV42@@Z 00487d50 f i AGKWindows:Detector.obj
 0001:00086e30       ??_GDetector@qrcode@zxing@@UAEPAXI@Z 00487e30 f i AGKWindows:Detector.obj
 0001:00086e30       ??_EDetector@qrcode@zxing@@UAEPAXI@Z 00487e30 f i AGKWindows:Detector.obj
 0001:00086e60       ?overflow@?$basic_stringbuf@DU?$char_traits@D@std@@V?$allocator@D@2@@std@@MAEHH@Z 00487e60 f i AGKWindows:Detector.obj
 0001:00087010       ??$use_facet@V?$ctype@D@std@@@std@@YAABV?$ctype@D@0@ABVlocale@0@@Z 00488010 f i AGKWindows:Detector.obj
 0001:00087150       ??_D?$basic_ostringstream@DU?$char_traits@D@std@@V?$allocator@D@2@@std@@QAEXXZ 00488150 f i AGKWindows:Detector.obj
 0001:000871e0       ??_G?$basic_ostringstream@DU?$char_traits@D@std@@V?$allocator@D@2@@std@@UAEPAXI@Z 004881e0 f i AGKWindows:Detector.obj
 0001:000871e0       ??_E?$basic_ostringstream@DU?$char_traits@D@std@@V?$allocator@D@2@@std@@UAEPAXI@Z 004881e0 f i AGKWindows:Detector.obj
 0001:00087210       ?widen@?$basic_ios@DU?$char_traits@D@std@@@std@@QBEDD@Z 00488210 f i AGKWindows:Detector.obj
 0001:000872c0       ??6?$basic_ostream@DU?$char_traits@D@std@@@std@@QAEAAV01@H@Z 004882c0 f i AGKWindows:Detector.obj
 0001:000874b0       ??0?$basic_ostringstream@DU?$char_traits@D@std@@V?$allocator@D@2@@std@@QAE@H@Z 004884b0 f i AGKWindows:Detector.obj
 0001:000875b0       ?str@?$basic_stringbuf@DU?$char_traits@D@std@@V?$allocator@D@2@@std@@QBE?AV?$basic_string@DU?$char_traits@D@std@@V?$allocator@D@2@@2@XZ 004885b0 f i AGKWindows:Detector.obj
 0001:000876e0       ?str@?$basic_ostringstream@DU?$char_traits@D@std@@V?$allocator@D@2@@std@@QBE?AV?$basic_string@DU?$char_traits@D@std@@V?$allocator@D@2@@2@XZ 004886e0 f i AGKWindows:Detector.obj
 0001:00087710       ??1FinderPatternFinder@qrcode@zxing@@QAE@XZ 00488710 f i AGKWindows:Detector.obj
 0001:00087810       ??0IllegalArgumentException@zxing@@QAE@PBD@Z 00488810 f   AGKWindows:IllegalArgumentException.obj
 0001:00087830       ??1IllegalArgumentException@zxing@@UAE@XZ 00488830 f   AGKWindows:IllegalArgumentException.obj
 0001:00087840       ?what@Exception@zxing@@UBEPBDXZ 00488840 f   AGKWindows:Exception.obj
 0001:00087850       ??0Exception@zxing@@QAE@XZ 00488850 f   AGKWindows:Exception.obj
 0001:00087880       ??1Exception@zxing@@UAE@XZ 00488880 f   AGKWindows:Exception.obj
 0001:000878c0       ??0Exception@zxing@@QAE@PBD@Z 004888c0 f   AGKWindows:Exception.obj
 0001:00087940       ??1Binarizer@zxing@@UAE@XZ 00488940 f   AGKWindows:Binarizer.obj
 0001:000879d0       ??0Binarizer@zxing@@QAE@V?$Ref@VLuminanceSource@zxing@@@1@@Z 004889d0 f   AGKWindows:Binarizer.obj
 0001:00087ad0       ?getLuminanceSource@Binarizer@zxing@@QBE?AV?$Ref@VLuminanceSource@zxing@@@2@XZ 00488ad0 f   AGKWindows:Binarizer.obj
 0001:00087b00       ??_GBinarizer@zxing@@UAEPAXI@Z 00488b00 f i AGKWindows:Binarizer.obj
 0001:00087b00       ??_EBinarizer@zxing@@UAEPAXI@Z 00488b00 f i AGKWindows:Binarizer.obj
 0001:00087ba0       ?wordsForBits@BitArray@zxing@@CAII@Z 00488ba0 f   AGKWindows:BitArray.obj
 0001:00087bb0       ?getSize@BitArray@zxing@@QAEIXZ 00488bb0 f   AGKWindows:BitArray.obj
 0001:00087bc0       ?getBitArray@BitArray@zxing@@QAEAAV?$vector@IV?$allocator@I@std@@@std@@XZ 00488bc0 f   AGKWindows:BitArray.obj
 0001:00087bd0       ?setBulk@BitArray@zxing@@QAEXII@Z 00488bd0 f   AGKWindows:BitArray.obj
 0001:00087bf0       ?setRange@BitArray@zxing@@QAEXHH@Z 00488bf0 f   AGKWindows:BitArray.obj
 0001:00087cc0       ?clear@BitArray@zxing@@QAEXXZ 00488cc0 f   AGKWindows:BitArray.obj
 0001:00087cf0       ?isRange@BitArray@zxing@@QAE_NII_N@Z 00488cf0 f   AGKWindows:BitArray.obj
 0001:00087e00       ??1BitArray@zxing@@UAE@XZ  00488e00 f   AGKWindows:BitArray.obj
 0001:00087e40       ??0BitArray@zxing@@QAE@I@Z 00488e40 f   AGKWindows:BitArray.obj
 0001:00087eb0       ?reverse@BitArray@zxing@@QAEXXZ 00488eb0 f   AGKWindows:BitArray.obj
 0001:00087f80       ?_Buy@?$vector@HV?$allocator@H@std@@@std@@IAE_NI@Z 00488f80 f i AGKWindows:GlobalHistogramBinarizer.obj
 0001:00087f80       ?_Buy@?$vector@IV?$allocator@I@std@@@std@@IAE_NI@Z 00488f80 f i AGKWindows:BitArray.obj
 0001:00087fd0       ??_GBitArray@zxing@@UAEPAXI@Z 00488fd0 f i AGKWindows:BitArray.obj
 0001:00087fd0       ??_EBitArray@zxing@@UAEPAXI@Z 00488fd0 f i AGKWindows:BitArray.obj
 0001:00088020       ?wordsForSize@?A0x3b8938d1@@YAIIIII@Z 00489020 f   AGKWindows:BitMatrix.obj
 0001:00088040       ??1BitMatrix@zxing@@UAE@XZ 00489040 f   AGKWindows:BitMatrix.obj
 0001:00088060       ?flip@BitMatrix@zxing@@QAEXII@Z 00489060 f   AGKWindows:BitMatrix.obj
 0001:00088090       ?setRegion@BitMatrix@zxing@@QAEXIIII@Z 00489090 f   AGKWindows:BitMatrix.obj
 0001:000881a0       ?getWidth@BitMatrix@zxing@@QBEIXZ 004891a0 f   AGKWindows:BitMatrix.obj
 0001:000881b0       ?getHeight@BitMatrix@zxing@@QBEIXZ 004891b0 f   AGKWindows:BitMatrix.obj
 0001:000881c0       ?getDimension@BitMatrix@zxing@@QBEIXZ 004891c0 f   AGKWindows:BitMatrix.obj
 0001:000881d0       ?getBits@BitMatrix@zxing@@QBEPAIXZ 004891d0 f   AGKWindows:BitMatrix.obj
 0001:000881e0       ?clear@BitMatrix@zxing@@QAEXXZ 004891e0 f   AGKWindows:BitMatrix.obj
 0001:00088200       ?getRow@BitMatrix@zxing@@QAE?AV?$Ref@VBitArray@zxing@@@2@HV32@@Z 00489200 f   AGKWindows:BitMatrix.obj
 0001:00088480       ??0BitMatrix@zxing@@QAE@I@Z 00489480 f   AGKWindows:BitMatrix.obj
 0001:00088530       ??0BitMatrix@zxing@@QAE@II@Z 00489530 f   AGKWindows:BitMatrix.obj
 0001:000885e0       ??6zxing@@YAAAV?$basic_ostream@DU?$char_traits@D@std@@@std@@AAV12@ABVBitMatrix@0@@Z 004895e0 f   AGKWindows:BitMatrix.obj
 0001:00088660       ?description@BitMatrix@zxing@@QAEPBDXZ 00489660 f   AGKWindows:BitMatrix.obj
 0001:00088790       ??_EBitMatrix@zxing@@UAEPAXI@Z 00489790 f i AGKWindows:BitMatrix.obj
 0001:00088790       ??_GBitMatrix@zxing@@UAEPAXI@Z 00489790 f i AGKWindows:BitMatrix.obj
 0001:000887d0       ??0LuminanceSource@zxing@@QAE@XZ 004897d0 f   AGKWindows:LuminanceSource.obj
 0001:000887e0       ??1LuminanceSource@zxing@@UAE@XZ 004897e0 f   AGKWindows:LuminanceSource.obj
 0001:000887f0       ?isCropSupported@LuminanceSource@zxing@@UBE_NXZ 004897f0 f   AGKWindows:LuminanceSource.obj
 0001:00088800       ?crop@LuminanceSource@zxing@@UAE?AV?$Ref@VLuminanceSource@zxing@@@2@HHHH@Z 00489800 f   AGKWindows:LuminanceSource.obj
 0001:00088830       ?isRotateSupported@LuminanceSource@zxing@@UBE_NXZ 00489830 f   AGKWindows:LuminanceSource.obj
 0001:00088840       ?rotateCounterClockwise@LuminanceSource@zxing@@UAE?AV?$Ref@VLuminanceSource@zxing@@@2@XZ 00489840 f   AGKWindows:LuminanceSource.obj
 0001:00088870       ??BLuminanceSource@zxing@@QAE?AV?$basic_string@DU?$char_traits@D@std@@V?$allocator@D@2@@std@@XZ 00489870 f   AGKWindows:LuminanceSource.obj
 0001:00088ad0       ??$?6U?$char_traits@D@std@@@std@@YAAAV?$basic_ostream@DU?$char_traits@D@std@@@0@AAV10@D@Z 00489ad0 f i AGKWindows:LuminanceSource.obj
 0001:00088d80       ??0GreyscaleRotatedLuminanceSource@zxing@@QAE@PAEHHHHHH@Z 00489d80 f   AGKWindows:GreyscaleRotatedLuminanceSource.obj
 0001:00088e40       ?getRow@GreyscaleRotatedLuminanceSource@zxing@@UAEPAEHPAE@Z 00489e40 f   AGKWindows:GreyscaleRotatedLuminanceSource.obj
 0001:00088ef0       ?getMatrix@GreyscaleRotatedLuminanceSource@zxing@@UAEPAEXZ 00489ef0 f   AGKWindows:GreyscaleRotatedLuminanceSource.obj
 0001:00088f30       ?isRotateSupported@GreyscaleRotatedLuminanceSource@zxing@@UBE_NXZ 00489f30 f i AGKWindows:GreyscaleRotatedLuminanceSource.obj
 0001:00088f40       _deflateResetKeep          00489f40 f   AGKWindows:deflate.obj
 0001:00088fd0       _deflateSetHeader          00489fd0 f   AGKWindows:deflate.obj
 0001:00089000       _deflatePending            0048a000 f   AGKWindows:deflate.obj
 0001:00089040       _deflatePrime              0048a040 f   AGKWindows:deflate.obj
 0001:000890d0       _deflateTune               0048a0d0 f   AGKWindows:deflate.obj
 0001:00089110       _deflateBound              0048a110 f   AGKWindows:deflate.obj
 0001:00089270       _deflateEnd                0048a270 f   AGKWindows:deflate.obj
 0001:00089350       _deflateCopy               0048a350 f   AGKWindows:deflate.obj
 0001:0008a880       _deflateSetDictionary      0048b880 f   AGKWindows:deflate.obj
 0001:0008aa00       _deflateReset              0048ba00 f   AGKWindows:deflate.obj
 0001:0008aa30       _deflate                   0048ba30 f   AGKWindows:deflate.obj
 0001:0008b2b0       _deflateInit2_             0048c2b0 f   AGKWindows:deflate.obj
 0001:0008b4f0       _deflateParams             0048c4f0 f   AGKWindows:deflate.obj
 0001:0008b5f0       _deflateInit_              0048c5f0 f   AGKWindows:deflate.obj
 0001:0008b620       _GifLastError              0048c620 f   AGKWindows:gif_err.obj
 0001:0008b630       _PrintGifError             0048c630 f   AGKWindows:gif_err.obj
 0001:0008b9e0       _BitSize                   0048c9e0 f   AGKWindows:gifalloc.obj
 0001:0008ba00       _MakeMapObject             0048ca00 f   AGKWindows:gifalloc.obj
 0001:0008ba90       _FreeMapObject             0048ca90 f   AGKWindows:gifalloc.obj
 0001:0008bab0       _UnionColorMap             0048cab0 f   AGKWindows:gifalloc.obj
 0001:0008bc90       _ApplyTranslation          0048cc90 f   AGKWindows:gifalloc.obj
 0001:0008bcd0       _MakeExtension             0048ccd0 f   AGKWindows:gifalloc.obj
 0001:0008bce0       _AddExtensionBlock         0048cce0 f   AGKWindows:gifalloc.obj
 0001:0008bd70       _FreeExtension             0048cd70 f   AGKWindows:gifalloc.obj
 0001:0008bdd0       _FreeLastSavedImage        0048cdd0 f   AGKWindows:gifalloc.obj
 0001:0008be40       _MakeSavedImage            0048ce40 f   AGKWindows:gifalloc.obj
 0001:0008bf80       _FreeSavedImages           0048cf80 f   AGKWindows:gifalloc.obj
 0001:0008c020       ?Initialize@b2WorldManifold@@QAEXPBUb2Manifold@@ABUb2Transform@@M1M@Z 0048d020 f   AGKWindows:b2Collision.obj
 0001:0008c470       ?b2GetPointStates@@YAXQAW4b2PointState@@0PBUb2Manifold@@1@Z 0048d470 f   AGKWindows:b2Collision.obj
 0001:0008c530       ?b2ClipSegmentToLine@@YAHQAUb2ClipVertex@@QBU1@ABUb2Vec2@@MH@Z 0048d530 f   AGKWindows:b2Collision.obj
 0001:0008c650       ?RayCast@b2AABB@@QBE_NPAUb2RayCastOutput@@ABUb2RayCastInput@@@Z 0048d650 f   AGKWindows:b2Collision.obj
 0001:0008c810       ?b2TestOverlap@@YA_NPBVb2Shape@@H0HABUb2Transform@@1@Z 0048d810 f   AGKWindows:b2Collision.obj
 0001:0008c8f0       _call_zopen64              0048d8f0 f   AGKWindows:ioapi.obj
 0001:0008c930       _call_zseek64              0048d930 f   AGKWindows:ioapi.obj
 0001:0008c990       _call_ztell64              0048d990 f   AGKWindows:ioapi.obj
 0001:0008c9d0       _fill_zlib_filefunc64_32_def_from_filefunc32 0048d9d0 f   AGKWindows:ioapi.obj
 0001:0008cc20       _fill_fopen_filefunc       0048dc20 f   AGKWindows:ioapi.obj
 0001:0008cc60       _fill_fopen64_filefunc     0048dc60 f   AGKWindows:ioapi.obj
 0001:0008ccb0       _get_crc_table             0048dcb0 f   AGKWindows:crc32.obj
 0001:0008d510       _crc32_combine             0048e510 f   AGKWindows:crc32.obj
 0001:0008d530       _crc32_combine64           0048e530 f   AGKWindows:crc32.obj
 0001:0008d550       _crc32                     0048e550 f   AGKWindows:crc32.obj
 0001:0008d570       ??0b2RopeJoint@@IAE@PBUb2RopeJointDef@@@Z 0048e570 f   AGKWindows:b2RopeJoint.obj
 0001:0008d5d0       ?InitVelocityConstraints@b2RopeJoint@@MAEXABUb2SolverData@@@Z 0048e5d0 f   AGKWindows:b2RopeJoint.obj
 0001:0008da00       ?GetAnchorA@b2RopeJoint@@UBE?AUb2Vec2@@XZ 0048ea00 f   AGKWindows:b2RopeJoint.obj
 0001:0008da40       ?GetAnchorB@b2RopeJoint@@UBE?AUb2Vec2@@XZ 0048ea40 f   AGKWindows:b2RopeJoint.obj
 0001:0008da80       ?GetReactionForce@b2RopeJoint@@UBE?AUb2Vec2@@M@Z 0048ea80 f   AGKWindows:b2RopeJoint.obj
 0001:0008dab0       ?GetReactionTorque@b2RopeJoint@@UBEMM@Z 0048eab0 f   AGKWindows:b2RopeJoint.obj
 0001:0008dac0       ?GetMaxLength@b2RopeJoint@@QBEMXZ 0048eac0 f   AGKWindows:b2RopeJoint.obj
 0001:0008dad0       ?GetLimitState@b2RopeJoint@@QBE?AW4b2LimitState@@XZ 0048ead0 f   AGKWindows:b2RopeJoint.obj
 0001:0008dae0       ?SolveVelocityConstraints@b2RopeJoint@@MAEXABUb2SolverData@@@Z 0048eae0 f   AGKWindows:b2RopeJoint.obj
 0001:0008dd10       ?SolvePositionConstraints@b2RopeJoint@@MAE_NABUb2SolverData@@@Z 0048ed10 f   AGKWindows:b2RopeJoint.obj
 0001:0008dfe0       ?Initialize@b2FrictionJointDef@@QAEXPAVb2Body@@0ABUb2Vec2@@@Z 0048efe0 f   AGKWindows:b2FrictionJoint.obj
 0001:0008e090       ??0b2FrictionJoint@@IAE@PBUb2FrictionJointDef@@@Z 0048f090 f   AGKWindows:b2FrictionJoint.obj
 0001:0008e0e0       ?InitVelocityConstraints@b2FrictionJoint@@MAEXABUb2SolverData@@@Z 0048f0e0 f   AGKWindows:b2FrictionJoint.obj
 0001:0008e4a0       ?SolvePositionConstraints@b2FrictionJoint@@MAE_NABUb2SolverData@@@Z 0048f4a0 f   AGKWindows:b2FrictionJoint.obj
 0001:0008e4b0       ?GetAnchorA@b2FrictionJoint@@UBE?AUb2Vec2@@XZ 0048f4b0 f   AGKWindows:b2FrictionJoint.obj
 0001:0008e4f0       ?GetAnchorB@b2FrictionJoint@@UBE?AUb2Vec2@@XZ 0048f4f0 f   AGKWindows:b2FrictionJoint.obj
 0001:0008e530       ?GetReactionForce@b2FrictionJoint@@UBE?AUb2Vec2@@M@Z 0048f530 f   AGKWindows:b2FrictionJoint.obj
 0001:0008e550       ?GetReactionTorque@b2FrictionJoint@@UBEMM@Z 0048f550 f   AGKWindows:b2FrictionJoint.obj
 0001:0008e570       ?SetMaxForce@b2FrictionJoint@@QAEXM@Z 0048f570 f   AGKWindows:b2FrictionJoint.obj
 0001:0008e580       ?GetMaxForce@b2FrictionJoint@@QBEMXZ 0048f580 f   AGKWindows:b2FrictionJoint.obj
 0001:0008e590       ?SetMaxTorque@b2FrictionJoint@@QAEXM@Z 0048f590 f   AGKWindows:b2FrictionJoint.obj
 0001:0008e5a0       ?GetMaxTorque@b2FrictionJoint@@QBEMXZ 0048f5a0 f   AGKWindows:b2FrictionJoint.obj
 0001:0008e5b0       ?SolveVelocityConstraints@b2FrictionJoint@@MAEXABUb2SolverData@@@Z 0048f5b0 f   AGKWindows:b2FrictionJoint.obj
 0001:0008e8d0       ??0b2GearJoint@@IAE@PBUb2GearJointDef@@@Z 0048f8d0 f   AGKWindows:b2GearJoint.obj
 0001:0008ebc0       ?InitVelocityConstraints@b2GearJoint@@MAEXABUb2SolverData@@@Z 0048fbc0 f   AGKWindows:b2GearJoint.obj
 0001:0008f330       ?SolveVelocityConstraints@b2GearJoint@@MAEXABUb2SolverData@@@Z 00490330 f   AGKWindows:b2GearJoint.obj
 0001:0008f660       ?SolvePositionConstraints@b2GearJoint@@MAE_NABUb2SolverData@@@Z 00490660 f   AGKWindows:b2GearJoint.obj
 0001:0008fd80       ?GetAnchorA@b2GearJoint@@UBE?AUb2Vec2@@XZ 00490d80 f   AGKWindows:b2GearJoint.obj
 0001:0008fdc0       ?GetAnchorB@b2GearJoint@@UBE?AUb2Vec2@@XZ 00490dc0 f   AGKWindows:b2GearJoint.obj
 0001:0008fe00       ?GetReactionForce@b2GearJoint@@UBE?AUb2Vec2@@M@Z 00490e00 f   AGKWindows:b2GearJoint.obj
 0001:0008fe50       ?GetReactionTorque@b2GearJoint@@UBEMM@Z 00490e50 f   AGKWindows:b2GearJoint.obj
 0001:0008fe80       ?SetRatio@b2GearJoint@@QAEXM@Z 00490e80 f   AGKWindows:b2GearJoint.obj
 0001:0008fe90       ?GetRatio@b2GearJoint@@QBEMXZ 00490e90 f   AGKWindows:b2GearJoint.obj
 0001:0008fea0       ??0b2ContactSolver@@QAE@PAUb2ContactSolverDef@@@Z 00490ea0 f   AGKWindows:b2ContactSolver.obj
 0001:00090250       ??1b2ContactSolver@@QAE@XZ 00491250 f   AGKWindows:b2ContactSolver.obj
 0001:00090270       ?WarmStart@b2ContactSolver@@QAEXXZ 00491270 f   AGKWindows:b2ContactSolver.obj
 0001:000907c0       ?StoreImpulses@b2ContactSolver@@QAEXXZ 004917c0 f   AGKWindows:b2ContactSolver.obj
 0001:00090830       ?InitializeVelocityConstraints@b2ContactSolver@@QAEXXZ 00491830 f   AGKWindows:b2ContactSolver.obj
 0001:00090e20       ?SolveVelocityConstraints@b2ContactSolver@@QAEXXZ 00491e20 f   AGKWindows:b2ContactSolver.obj
 0001:00091a90       ?SolvePositionConstraints@b2ContactSolver@@QAE_NXZ 00492a90 f   AGKWindows:b2ContactSolver.obj
 0001:00091ec0       ?SolveTOIPositionConstraints@b2ContactSolver@@QAE_NHH@Z 00492ec0 f   AGKWindows:b2ContactSolver.obj
 0001:00092320       ?Initialize@b2PositionSolverManifold@@QAEXPAUb2ContactPositionConstraint@@ABUb2Transform@@1H@Z 00493320 f i AGKWindows:b2ContactSolver.obj
 0001:000925d0       ?ShouldCollide@b2ContactFilter@@UAE_NPAVb2Fixture@@0@Z 004935d0 f   AGKWindows:b2WorldCallbacks.obj
 0001:00092620       ?Destroy@b2PolygonContact@@SAXPAVb2Contact@@PAVb2BlockAllocator@@@Z 00493620 f   AGKWindows:b2PolygonContact.obj
 0001:00092650       ??0b2PolygonContact@@QAE@PAVb2Fixture@@0@Z 00493650 f   AGKWindows:b2PolygonContact.obj
 0001:00092680       ?Evaluate@b2PolygonContact@@UAEXPAUb2Manifold@@ABUb2Transform@@1@Z 00493680 f   AGKWindows:b2PolygonContact.obj
 0001:000926b0       ?Create@b2PolygonContact@@SAPAVb2Contact@@PAVb2Fixture@@H0HPAVb2BlockAllocator@@@Z 004936b0 f   AGKWindows:b2PolygonContact.obj
 0001:00092720       ??_Gb2PolygonContact@@UAEPAXI@Z 00493720 f i AGKWindows:b2PolygonContact.obj
 0001:00092720       ??_Gb2EdgeAndCircleContact@@UAEPAXI@Z 00493720 f i AGKWindows:b2EdgeAndCircleContact.obj
 0001:00092720       ??_Eb2EdgeAndPolygonContact@@UAEPAXI@Z 00493720 f i AGKWindows:b2EdgeAndPolygonContact.obj
 0001:00092720       ??_Eb2CircleContact@@UAEPAXI@Z 00493720 f i AGKWindows:b2CircleContact.obj
 0001:00092720       ??_Gb2Contact@@MAEPAXI@Z   00493720 f i AGKWindows:b2Contact.obj
 0001:00092720       ??_Eb2ChainAndCircleContact@@UAEPAXI@Z 00493720 f i AGKWindows:b2ChainAndCircleContact.obj
 0001:00092720       ??_Eb2PolygonAndCircleContact@@UAEPAXI@Z 00493720 f i AGKWindows:b2PolygonAndCircleContact.obj
 0001:00092720       ??_Eb2EdgeAndCircleContact@@UAEPAXI@Z 00493720 f i AGKWindows:b2EdgeAndCircleContact.obj
 0001:00092720       ??_Gb2EdgeAndPolygonContact@@UAEPAXI@Z 00493720 f i AGKWindows:b2EdgeAndPolygonContact.obj
 0001:00092720       ??_Gb2ChainAndCircleContact@@UAEPAXI@Z 00493720 f i AGKWindows:b2ChainAndCircleContact.obj
 0001:00092720       ??_Gb2PolygonAndCircleContact@@UAEPAXI@Z 00493720 f i AGKWindows:b2PolygonAndCircleContact.obj
 0001:00092720       ??_Eb2Contact@@MAEPAXI@Z   00493720 f i AGKWindows:b2Contact.obj
 0001:00092720       ??_Gb2CircleContact@@UAEPAXI@Z 00493720 f i AGKWindows:b2CircleContact.obj
 0001:00092720       ??_Eb2PolygonContact@@UAEPAXI@Z 00493720 f i AGKWindows:b2PolygonContact.obj
 0001:00092720       ??_Gb2ChainAndPolygonContact@@UAEPAXI@Z 00493720 f i AGKWindows:b2ChainAndPolygonContact.obj
 0001:00092720       ??_Eb2ChainAndPolygonContact@@UAEPAXI@Z 00493720 f i AGKWindows:b2ChainAndPolygonContact.obj
 0001:00092750       ?Destroy@b2CircleContact@@SAXPAVb2Contact@@PAVb2BlockAllocator@@@Z 00493750 f   AGKWindows:b2CircleContact.obj
 0001:00092780       ??0b2CircleContact@@QAE@PAVb2Fixture@@0@Z 00493780 f   AGKWindows:b2CircleContact.obj
 0001:000927b0       ?Evaluate@b2CircleContact@@UAEXPAUb2Manifold@@ABUb2Transform@@1@Z 004937b0 f   AGKWindows:b2CircleContact.obj
 0001:000927e0       ?Create@b2CircleContact@@SAPAVb2Contact@@PAVb2Fixture@@H0HPAVb2BlockAllocator@@@Z 004937e0 f   AGKWindows:b2CircleContact.obj
 0001:00092850       ?Destroy@b2ChainAndPolygonContact@@SAXPAVb2Contact@@PAVb2BlockAllocator@@@Z 00493850 f   AGKWindows:b2ChainAndPolygonContact.obj
 0001:00092880       ??0b2ChainAndPolygonContact@@QAE@PAVb2Fixture@@H0H@Z 00493880 f   AGKWindows:b2ChainAndPolygonContact.obj
 0001:000928b0       ?Evaluate@b2ChainAndPolygonContact@@UAEXPAUb2Manifold@@ABUb2Transform@@1@Z 004938b0 f   AGKWindows:b2ChainAndPolygonContact.obj
 0001:00092940       ?Create@b2ChainAndPolygonContact@@SAPAVb2Contact@@PAVb2Fixture@@H0HPAVb2BlockAllocator@@@Z 00493940 f   AGKWindows:b2ChainAndPolygonContact.obj
 0001:000929c0       ??_Eb2Shape@@UAEPAXI@Z     004939c0 f i AGKWindows:Wrapper.obj
 0001:000929c0       ??_Gb2CircleShape@@UAEPAXI@Z 004939c0 f i AGKWindows:cSprite.obj
 0001:000929c0       ??_Gb2Shape@@UAEPAXI@Z     004939c0 f i AGKWindows:Wrapper.obj
 0001:000929c0       ??_Eb2PolygonShape@@UAEPAXI@Z 004939c0 f i AGKWindows:Wrapper.obj
 0001:000929c0       ??_Gb2PolygonShape@@UAEPAXI@Z 004939c0 f i AGKWindows:Wrapper.obj
 0001:000929c0       ??_Eb2EdgeShape@@UAEPAXI@Z 004939c0 f i AGKWindows:b2ChainAndPolygonContact.obj
 0001:000929c0       ??_Eb2CircleShape@@UAEPAXI@Z 004939c0 f i AGKWindows:cSprite.obj
 0001:000929c0       ??_Gb2EdgeShape@@UAEPAXI@Z 004939c0 f i AGKWindows:b2ChainAndPolygonContact.obj
 0001:000929f0       ?Destroy@b2ChainAndCircleContact@@SAXPAVb2Contact@@PAVb2BlockAllocator@@@Z 004939f0 f   AGKWindows:b2ChainAndCircleContact.obj
 0001:00092a20       ??0b2ChainAndCircleContact@@QAE@PAVb2Fixture@@H0H@Z 00493a20 f   AGKWindows:b2ChainAndCircleContact.obj
 0001:00092a50       ?Evaluate@b2ChainAndCircleContact@@UAEXPAUb2Manifold@@ABUb2Transform@@1@Z 00493a50 f   AGKWindows:b2ChainAndCircleContact.obj
 0001:00092ae0       ?Create@b2ChainAndCircleContact@@SAPAVb2Contact@@PAVb2Fixture@@H0HPAVb2BlockAllocator@@@Z 00493ae0 f   AGKWindows:b2ChainAndCircleContact.obj
 0001:00092b60       ?Destroy@b2PolygonAndCircleContact@@SAXPAVb2Contact@@PAVb2BlockAllocator@@@Z 00493b60 f   AGKWindows:b2PolygonAndCircleContact.obj
 0001:00092b90       ??0b2PolygonAndCircleContact@@QAE@PAVb2Fixture@@0@Z 00493b90 f   AGKWindows:b2PolygonAndCircleContact.obj
 0001:00092bc0       ?Evaluate@b2PolygonAndCircleContact@@UAEXPAUb2Manifold@@ABUb2Transform@@1@Z 00493bc0 f   AGKWindows:b2PolygonAndCircleContact.obj
 0001:00092bf0       ?Create@b2PolygonAndCircleContact@@SAPAVb2Contact@@PAVb2Fixture@@H0HPAVb2BlockAllocator@@@Z 00493bf0 f   AGKWindows:b2PolygonAndCircleContact.obj
 0001:00092c60       ?Destroy@b2EdgeAndPolygonContact@@SAXPAVb2Contact@@PAVb2BlockAllocator@@@Z 00493c60 f   AGKWindows:b2EdgeAndPolygonContact.obj
 0001:00092c90       ??0b2EdgeAndPolygonContact@@QAE@PAVb2Fixture@@0@Z 00493c90 f   AGKWindows:b2EdgeAndPolygonContact.obj
 0001:00092cc0       ?Evaluate@b2EdgeAndPolygonContact@@UAEXPAUb2Manifold@@ABUb2Transform@@1@Z 00493cc0 f   AGKWindows:b2EdgeAndPolygonContact.obj
 0001:00092cf0       ?Create@b2EdgeAndPolygonContact@@SAPAVb2Contact@@PAVb2Fixture@@H0HPAVb2BlockAllocator@@@Z 00493cf0 f   AGKWindows:b2EdgeAndPolygonContact.obj
 0001:00092d60       ?Destroy@b2EdgeAndCircleContact@@SAXPAVb2Contact@@PAVb2BlockAllocator@@@Z 00493d60 f   AGKWindows:b2EdgeAndCircleContact.obj
 0001:00092d90       ??0b2EdgeAndCircleContact@@QAE@PAVb2Fixture@@0@Z 00493d90 f   AGKWindows:b2EdgeAndCircleContact.obj
 0001:00092dc0       ?Evaluate@b2EdgeAndCircleContact@@UAEXPAUb2Manifold@@ABUb2Transform@@1@Z 00493dc0 f   AGKWindows:b2EdgeAndCircleContact.obj
 0001:00092df0       ?Create@b2EdgeAndCircleContact@@SAPAVb2Contact@@PAVb2Fixture@@H0HPAVb2BlockAllocator@@@Z 00493df0 f   AGKWindows:b2EdgeAndCircleContact.obj
 0001:00092e60       _zlibVersion               00493e60 f   AGKWindows:zutil.obj
 0001:00092e70       _zlibCompileFlags          00493e70 f   AGKWindows:zutil.obj
 0001:00092e80       _zError                    00493e80 f   AGKWindows:zutil.obj
 0001:00092ea0       _zcalloc                   00493ea0 f   AGKWindows:zutil.obj
 0001:00092ec0       _zcfree                    00493ec0 f   AGKWindows:zutil.obj
 0001:00092ee0       _inflate_fast              00493ee0 f   AGKWindows:inffast.obj
 0001:000932f0       _inflate_table             004942f0 f   AGKWindows:inftrees.obj
 0001:00093730       _adler32                   00494730 f   AGKWindows:adler32.obj
 0001:00093a60       _adler32_combine           00494a60 f   AGKWindows:adler32.obj
 0001:00093a80       _adler32_combine64         00494a80 f   AGKWindows:adler32.obj
 0001:00093aa0       ??0ReedSolomonException@zxing@@QAE@PBD@Z 00494aa0 f   AGKWindows:ReedSolomonException.obj
 0001:00093ac0       ??1ReedSolomonException@zxing@@UAE@XZ 00494ac0 f   AGKWindows:ReedSolomonException.obj
 0001:00093ad0       ?addOrSubtract@GF256@zxing@@SAHHH@Z 00494ad0 f   AGKWindows:GF256.obj
 0001:00093ae0       ?exp@GF256@zxing@@QAEHH@Z  00494ae0 f   AGKWindows:GF256.obj
 0001:00093af0       ?log@GF256@zxing@@QAEHH@Z  00494af0 f   AGKWindows:GF256.obj
 0001:00093b40       ?inverse@GF256@zxing@@QAEHH@Z 00494b40 f   AGKWindows:GF256.obj
 0001:00093ba0       ?multiply@GF256@zxing@@QAEHHH@Z 00494ba0 f   AGKWindows:GF256.obj
 0001:00093be0       ?getZero@GF256@zxing@@QAE?AV?$Ref@VGF256Poly@zxing@@@2@XZ 00494be0 f   AGKWindows:GF256.obj
 0001:00093c10       ?getOne@GF256@zxing@@QAE?AV?$Ref@VGF256Poly@zxing@@@2@XZ 00494c10 f   AGKWindows:GF256.obj
 0001:00093c40       ??6zxing@@YAAAV?$basic_ostream@DU?$char_traits@D@std@@@std@@AAV12@ABVGF256@0@@Z 00494c40 f   AGKWindows:GF256.obj
 0001:00093f20       ??0GF256@zxing@@AAE@H@Z    00494f20 f   AGKWindows:GF256.obj
 0001:00094060       ?buildMonomial@GF256@zxing@@QAE?AV?$Ref@VGF256Poly@zxing@@@2@HH@Z 00495060 f   AGKWindows:GF256.obj
 0001:00094240       ??1GF256@zxing@@QAE@XZ     00495240 f i AGKWindows:GF256.obj
 0001:00094350       ??1GF256Poly@zxing@@UAE@XZ 00495350 f   AGKWindows:GF256Poly.obj
 0001:00094400       ?getDegree@GF256Poly@zxing@@QAEHXZ 00495400 f   AGKWindows:GF256Poly.obj
 0001:00094410       ?isZero@GF256Poly@zxing@@QAE_NXZ 00495410 f   AGKWindows:GF256Poly.obj
 0001:00094420       ?getCoefficient@GF256Poly@zxing@@QAEHH@Z 00495420 f   AGKWindows:GF256Poly.obj
 0001:00094440       ?evaluateAt@GF256Poly@zxing@@QAEHH@Z 00495440 f   AGKWindows:GF256Poly.obj
 0001:000944e0       ??6zxing@@YAAAV?$basic_ostream@DU?$char_traits@D@std@@@std@@AAV12@ABVGF256Poly@0@@Z 004954e0 f   AGKWindows:GF256Poly.obj
 0001:000945b0       ?fixCoefficients@GF256Poly@zxing@@AAEXXZ 004955b0 f   AGKWindows:GF256Poly.obj
 0001:000947e0       ??0GF256Poly@zxing@@QAE@AAVGF256@1@V?$ArrayRef@H@1@@Z 004957e0 f   AGKWindows:GF256Poly.obj
 0001:00094910       ?addOrSubtract@GF256Poly@zxing@@QAE?AV?$Ref@VGF256Poly@zxing@@@2@V32@@Z 00495910 f   AGKWindows:GF256Poly.obj
 0001:00094d90       ?multiply@GF256Poly@zxing@@QAE?AV?$Ref@VGF256Poly@zxing@@@2@V32@@Z 00495d90 f   AGKWindows:GF256Poly.obj
 0001:00095120       ?multiply@GF256Poly@zxing@@QAE?AV?$Ref@VGF256Poly@zxing@@@2@H@Z 00496120 f   AGKWindows:GF256Poly.obj
 0001:000953d0       ?multiplyByMonomial@GF256Poly@zxing@@QAE?AV?$Ref@VGF256Poly@zxing@@@2@HH@Z 004963d0 f   AGKWindows:GF256Poly.obj
 0001:00095630       ?description@GF256Poly@zxing@@QBEPBDXZ 00496630 f   AGKWindows:GF256Poly.obj
 0001:00095760       ??4?$ArrayRef@H@zxing@@QAEAAV01@ABV01@@Z 00496760 f i AGKWindows:GF256Poly.obj
 0001:000957c0       ??_EGF256Poly@zxing@@UAEPAXI@Z 004967c0 f i AGKWindows:GF256Poly.obj
 0001:000957c0       ??_GGF256Poly@zxing@@UAEPAXI@Z 004967c0 f i AGKWindows:GF256Poly.obj
 0001:000957f0       ??$_Ucopy@PAI@?$vector@IV?$allocator@I@std@@@std@@IAEPAIPAI00@Z 004967f0 f i AGKWindows:BitArray.obj
 0001:000957f0       ??$_Ucopy@PAH@?$vector@HV?$allocator@H@std@@@std@@IAEPAHPAH00@Z 004967f0 f i AGKWindows:GF256Poly.obj
 0001:00095820       ??4?$vector@HV?$allocator@H@std@@@std@@QAEAAV01@ABV01@@Z 00496820 f i AGKWindows:GF256Poly.obj
 0001:00095820       ??4?$vector@IV?$allocator@I@std@@@std@@QAEAAV01@ABV01@@Z 00496820 f i AGKWindows:BitArray.obj
 0001:00095950       ??0ReaderException@zxing@@QAE@XZ 00496950 f   AGKWindows:ReaderException.obj
 0001:00095970       ??0ReaderException@zxing@@QAE@PBD@Z 00496970 f   AGKWindows:ReaderException.obj
 0001:00095990       ??1ReaderException@zxing@@UAE@XZ 00496990 f   AGKWindows:ReaderException.obj
 0001:000959a0       ?toAlphaNumericChar@DecodedBitStreamParser@qrcode@zxing@@CADI@Z 004969a0 f   AGKWindows:DecodedBitStreamParser.obj
 0001:000959f0       ?parseECIValue@?A0x78bb4c6f@@YAHVBitSource@zxing@@@Z 004969f0 f   AGKWindows:DecodedBitStreamParser.obj
 0001:00095ac0       ?append@DecodedBitStreamParser@qrcode@zxing@@CAXAAV?$basic_string@DU?$char_traits@D@std@@V?$allocator@D@2@@std@@PBEIPBD@Z 00496ac0 f   AGKWindows:DecodedBitStreamParser.obj
 0001:00095ae0       ?decodeHanziSegment@DecodedBitStreamParser@qrcode@zxing@@CAXV?$Ref@VBitSource@zxing@@@3@AAV?$basic_string@DU?$char_traits@D@std@@V?$allocator@D@2@@std@@H@Z 00496ae0 f   AGKWindows:DecodedBitStreamParser.obj
 0001:00095c60       ?decodeKanjiSegment@DecodedBitStreamParser@qrcode@zxing@@CAXV?$Ref@VBitSource@zxing@@@3@AAV?$basic_string@DU?$char_traits@D@std@@V?$allocator@D@2@@std@@H@Z 00496c60 f   AGKWindows:DecodedBitStreamParser.obj
 0001:00095d80       ?append@DecodedBitStreamParser@qrcode@zxing@@CAXAAV?$basic_string@DU?$char_traits@D@std@@V?$allocator@D@2@@std@@ABV45@PBD@Z 00496d80 f   AGKWindows:DecodedBitStreamParser.obj
 0001:00095da0       ?decodeNumericSegment@DecodedBitStreamParser@qrcode@zxing@@CAXV?$Ref@VBitSource@zxing@@@3@AAV?$basic_string@DU?$char_traits@D@std@@V?$allocator@D@2@@std@@H@Z 00496da0 f   AGKWindows:DecodedBitStreamParser.obj
 0001:00096110       ?decodeAlphanumericSegment@DecodedBitStreamParser@qrcode@zxing@@CAXV?$Ref@VBitSource@zxing@@@3@AAV?$basic_string@DU?$char_traits@D@std@@V?$allocator@D@2@@std@@H_N@Z 00497110 f   AGKWindows:DecodedBitStreamParser.obj
 0001:000966b0       ?decodeByteSegment@DecodedBitStreamParser@qrcode@zxing@@CAXV?$Ref@VBitSource@zxing@@@3@AAV?$basic_string@DU?$char_traits@D@std@@V?$allocator@D@2@@std@@HPAVCharacterSetECI@common@3@AAV?$ArrayRef@V?$ArrayRef@E@zxing@@@3@ABV?$map@IV?$basic_string@DU?$char_traits@D@std@@V?$allocator@D@2@@std@@U?$less@I@2@V?$allocator@U?$pair@$$CBIV?$basic_string@DU?$char_traits@D@std@@V?$allocator@D@2@@std@@@std@@@2@@6@@Z 004976b0 f   AGKWindows:DecodedBitStreamParser.obj
 0001:00096940       ?decode@DecodedBitStreamParser@qrcode@zxing@@SA?AV?$Ref@VDecoderResult@zxing@@@3@V?$ArrayRef@E@3@PAVVersion@23@ABVErrorCorrectionLevel@23@ABV?$map@IV?$basic_string@DU?$char_traits@D@std@@V?$allocator@D@2@@std@@U?$less@I@2@V?$allocator@U?$pair@$$CBIV?$basic_string@DU?$char_traits@D@std@@V?$allocator@D@2@@std@@@std@@@2@@std@@@Z 00497940 f   AGKWindows:DecodedBitStreamParser.obj
 0001:00097080       ??1BitSource@zxing@@UAE@XZ 00498080 f i AGKWindows:DecodedBitStreamParser.obj
 0001:00097130       ??0?$Ref@VBitSource@zxing@@@zxing@@QAE@ABV01@@Z 00498130 f i AGKWindows:DecodedBitStreamParser.obj
 0001:00097130       ??0?$Ref@VBitArray@zxing@@@zxing@@QAE@ABV01@@Z 00498130 f i AGKWindows:BinaryBitmap.obj
 0001:00097130       ??0?$Ref@VResultPoint@zxing@@@zxing@@QAE@ABV01@@Z 00498130 f i AGKWindows:QRCodeReader.obj
 0001:00097130       ??0?$Ref@VGF256Poly@zxing@@@zxing@@QAE@ABV01@@Z 00498130 f i AGKWindows:ReedSolomonDecoder.obj
 0001:00097130       ??0?$Ref@VBitMatrix@zxing@@@zxing@@QAE@ABV01@@Z 00498130 f i AGKWindows:GlobalHistogramBinarizer.obj
 0001:000971a0       ?allocate@?$allocator@V?$ArrayRef@E@zxing@@@std@@QAEPAV?$ArrayRef@E@zxing@@I@Z 004981a0 f i AGKWindows:DecodedBitStreamParser.obj
 0001:00097200       ??0BitSource@zxing@@QAE@AAV?$ArrayRef@E@1@@Z 00498200 f i AGKWindows:DecodedBitStreamParser.obj
 0001:000972d0       ??_EBitSource@zxing@@UAEPAXI@Z 004982d0 f i AGKWindows:DecodedBitStreamParser.obj
 0001:000972d0       ??_GBitSource@zxing@@UAEPAXI@Z 004982d0 f i AGKWindows:DecodedBitStreamParser.obj
 0001:00097300       ??0BitSource@zxing@@QAE@ABV01@@Z 00498300 f i AGKWindows:DecodedBitStreamParser.obj
 0001:000973e0       ??$_Uninit_fill_n@PAV?$ArrayRef@E@zxing@@IV12@V?$allocator@V?$ArrayRef@E@zxing@@@std@@V12@@std@@YAXPAV?$ArrayRef@E@zxing@@IPBV12@AAV?$allocator@V?$ArrayRef@E@zxing@@@0@0U_Nonscalar_ptr_iterator_tag@0@@Z 004983e0 f i AGKWindows:DecodedBitStreamParser.obj
 0001:000974d0       ??$_Uninit_move@PAV?$ArrayRef@E@zxing@@PAV12@V?$allocator@V?$ArrayRef@E@zxing@@@std@@V12@@std@@YAPAV?$ArrayRef@E@zxing@@PAV12@00AAV?$allocator@V?$ArrayRef@E@zxing@@@0@0U_Nonscalar_ptr_iterator_tag@0@@Z 004984d0 f i AGKWindows:DecodedBitStreamParser.obj
 0001:000975d0       ?reserve@?$vector@V?$ArrayRef@E@zxing@@V?$allocator@V?$ArrayRef@E@zxing@@@std@@@std@@QAEXI@Z 004985d0 f i AGKWindows:DecodedBitStreamParser.obj
 0001:00097700       ??1?$vector@V?$ArrayRef@E@zxing@@V?$allocator@V?$ArrayRef@E@zxing@@@std@@@std@@QAE@XZ 00498700 f i AGKWindows:DecodedBitStreamParser.obj
 0001:00097700       ?_Tidy@?$vector@V?$ArrayRef@E@zxing@@V?$allocator@V?$ArrayRef@E@zxing@@@std@@@std@@IAEXXZ 00498700 f i AGKWindows:DecodedBitStreamParser.obj
 0001:00097740       ?_Construct_n@?$vector@V?$ArrayRef@E@zxing@@V?$allocator@V?$ArrayRef@E@zxing@@@std@@@std@@QAEXIPBV?$ArrayRef@E@zxing@@@Z 00498740 f i AGKWindows:DecodedBitStreamParser.obj
 0001:00097800       ??0FormatException@zxing@@QAE@ABV01@@Z 00498800 f i AGKWindows:DecodedBitStreamParser.obj
 0001:00097880       ??_GFormatException@zxing@@UAEPAXI@Z 00498880 f i AGKWindows:DecodedBitStreamParser.obj
 0001:00097880       ??_EFormatException@zxing@@UAEPAXI@Z 00498880 f i AGKWindows:DecodedBitStreamParser.obj
 0001:000978b0       ?_Reserve@?$vector@V?$ArrayRef@E@zxing@@V?$allocator@V?$ArrayRef@E@zxing@@@std@@@std@@IAEXI@Z 004988b0 f i AGKWindows:DecodedBitStreamParser.obj
 0001:00097930       ?push_back@?$vector@V?$ArrayRef@E@zxing@@V?$allocator@V?$ArrayRef@E@zxing@@@std@@@std@@QAEXABV?$ArrayRef@E@zxing@@@Z 00498930 f i AGKWindows:DecodedBitStreamParser.obj
 0001:000979f0       ??1?$Array@V?$ArrayRef@E@zxing@@@zxing@@UAE@XZ 004989f0 f i AGKWindows:DecodedBitStreamParser.obj
 0001:00097a80       ??_E?$Array@V?$ArrayRef@E@zxing@@@zxing@@UAEPAXI@Z 00498a80 f i AGKWindows:DecodedBitStreamParser.obj
 0001:00097a80       ??_G?$Array@V?$ArrayRef@E@zxing@@@zxing@@UAEPAXI@Z 00498a80 f i AGKWindows:DecodedBitStreamParser.obj
 0001:00097ab0       ??0?$ArrayRef@V?$ArrayRef@E@zxing@@@zxing@@QAE@I@Z 00498ab0 f i AGKWindows:DecodedBitStreamParser.obj
 0001:00097ba0       ?getNumDataCodewords@DataBlock@qrcode@zxing@@QAEHXZ 00498ba0 f   AGKWindows:DataBlock.obj
 0001:00097bb0       ??0DataBlock@qrcode@zxing@@AAE@HV?$ArrayRef@E@2@@Z 00498bb0 f   AGKWindows:DataBlock.obj
 0001:00097cd0       ?getCodewords@DataBlock@qrcode@zxing@@QAE?AV?$ArrayRef@E@3@XZ 00498cd0 f   AGKWindows:DataBlock.obj
 0001:00097d70       ?getDataBlocks@DataBlock@qrcode@zxing@@SA?AV?$vector@V?$Ref@VDataBlock@qrcode@zxing@@@zxing@@V?$allocator@V?$Ref@VDataBlock@qrcode@zxing@@@zxing@@@std@@@std@@V?$ArrayRef@E@3@PAVVersion@23@AAVErrorCorrectionLevel@23@@Z 00498d70 f   AGKWindows:DataBlock.obj
 0001:00098230       ??1DataBlock@qrcode@zxing@@UAE@XZ 00499230 f i AGKWindows:DataBlock.obj
 0001:000982e0       ??_GDataBlock@qrcode@zxing@@UAEPAXI@Z 004992e0 f i AGKWindows:DataBlock.obj
 0001:000982e0       ??_EDataBlock@qrcode@zxing@@UAEPAXI@Z 004992e0 f i AGKWindows:DataBlock.obj
 0001:00098310       ??$_Uninit_copy@V?$_Vector_const_iterator@V?$_Vector_val@PAVECB@qrcode@zxing@@V?$allocator@PAVECB@qrcode@zxing@@@std@@@std@@@std@@PAPAVECB@qrcode@zxing@@V?$allocator@PAVECB@qrcode@zxing@@@2@@std@@YAPAPAVECB@qrcode@zxing@@V?$_Vector_const_iterator@V?$_Vector_val@PAVECB@qrcode@zxing@@V?$allocator@PAVECB@qrcode@zxing@@@std@@@std@@@0@0PAPAV123@AAV?$allocator@PAVECB@qrcode@zxing@@@0@U_Nonscalar_ptr_iterator_tag@0@@Z 00499310 f i AGKWindows:DataBlock.obj
 0001:00098340       ??1?$vector@HV?$allocator@H@std@@@std@@QAE@XZ 00499340 f i AGKWindows:GlobalHistogramBinarizer.obj
 0001:00098340       ??1?$vector@PAVECB@qrcode@zxing@@V?$allocator@PAVECB@qrcode@zxing@@@std@@@std@@QAE@XZ 00499340 f i AGKWindows:DataBlock.obj
 0001:00098340       ??1?$vector@IV?$allocator@I@std@@@std@@QAE@XZ 00499340 f i AGKWindows:BitArray.obj
 0001:00098340       ?_Tidy@?$vector@PAVECB@qrcode@zxing@@V?$allocator@PAVECB@qrcode@zxing@@@std@@@std@@IAEXXZ 00499340 f i AGKWindows:DataBlock.obj
 0001:00098340       ??1?$vector@MV?$allocator@M@std@@@std@@QAE@XZ 00499340 f i AGKWindows:GridSampler.obj
 0001:00098370       ??0?$vector@PAVECB@qrcode@zxing@@V?$allocator@PAVECB@qrcode@zxing@@@std@@@std@@QAE@ABV01@@Z 00499370 f i AGKWindows:DataBlock.obj
 0001:00098440       ?reserve@?$vector@V?$Ref@VGF256Poly@zxing@@@zxing@@V?$allocator@V?$Ref@VGF256Poly@zxing@@@zxing@@@std@@@std@@QAEXI@Z 00499440 f i AGKWindows:ReedSolomonDecoder.obj
 0001:00098440       ?reserve@?$vector@V?$Ref@VResultPoint@zxing@@@zxing@@V?$allocator@V?$Ref@VResultPoint@zxing@@@zxing@@@std@@@std@@QAEXI@Z 00499440 f i AGKWindows:Detector.obj
 0001:00098440       ?reserve@?$vector@V?$Ref@VVersion@qrcode@zxing@@@zxing@@V?$allocator@V?$Ref@VVersion@qrcode@zxing@@@zxing@@@std@@@std@@QAEXI@Z 00499440 f i AGKWindows:Version.obj
 0001:00098440       ?reserve@?$vector@V?$Ref@VDataBlock@qrcode@zxing@@@zxing@@V?$allocator@V?$Ref@VDataBlock@qrcode@zxing@@@zxing@@@std@@@std@@QAEXI@Z 00499440 f i AGKWindows:DataBlock.obj
 0001:00098440       ?reserve@?$vector@V?$Ref@VFinderPattern@qrcode@zxing@@@zxing@@V?$allocator@V?$Ref@VFinderPattern@qrcode@zxing@@@zxing@@@std@@@std@@QAEXI@Z 00499440 f i AGKWindows:FinderPatternFinder.obj
 0001:00098440       ?reserve@?$vector@V?$Ref@VDataMask@qrcode@zxing@@@zxing@@V?$allocator@V?$Ref@VDataMask@qrcode@zxing@@@zxing@@@std@@@std@@QAEXI@Z 00499440 f i AGKWindows:DataMask.obj
 0001:00098530       ?_Reserve@?$vector@V?$Ref@VDataMask@qrcode@zxing@@@zxing@@V?$allocator@V?$Ref@VDataMask@qrcode@zxing@@@zxing@@@std@@@std@@IAEXI@Z 00499530 f i AGKWindows:DataMask.obj
 0001:00098530       ?_Reserve@?$vector@V?$Ref@VFinderPattern@qrcode@zxing@@@zxing@@V?$allocator@V?$Ref@VFinderPattern@qrcode@zxing@@@zxing@@@std@@@std@@IAEXI@Z 00499530 f i AGKWindows:FinderPatternFinder.obj
 0001:00098530       ?_Reserve@?$vector@V?$Ref@VVersion@qrcode@zxing@@@zxing@@V?$allocator@V?$Ref@VVersion@qrcode@zxing@@@zxing@@@std@@@std@@IAEXI@Z 00499530 f i AGKWindows:Version.obj
 0001:00098530       ?_Reserve@?$vector@V?$Ref@VDataBlock@qrcode@zxing@@@zxing@@V?$allocator@V?$Ref@VDataBlock@qrcode@zxing@@@zxing@@@std@@@std@@IAEXI@Z 00499530 f i AGKWindows:DataBlock.obj
 0001:00098530       ?_Reserve@?$vector@V?$Ref@VGF256Poly@zxing@@@zxing@@V?$allocator@V?$Ref@VGF256Poly@zxing@@@zxing@@@std@@@std@@IAEXI@Z 00499530 f i AGKWindows:ReedSolomonDecoder.obj
 0001:00098530       ?_Reserve@?$vector@V?$Ref@VResultPoint@zxing@@@zxing@@V?$allocator@V?$Ref@VResultPoint@zxing@@@zxing@@@std@@@std@@IAEXI@Z 00499530 f i AGKWindows:Detector.obj
 0001:00098590       ?copyBit@BitMatrixParser@qrcode@zxing@@AAEHIIH@Z 00499590 f   AGKWindows:BitMatrixParser.obj
 0001:000985d0       ?readVersion@BitMatrixParser@qrcode@zxing@@QAEPAVVersion@23@XZ 004995d0 f   AGKWindows:BitMatrixParser.obj
 0001:00098750       ??0BitMatrixParser@qrcode@zxing@@QAE@V?$Ref@VBitMatrix@zxing@@@2@@Z 00499750 f   AGKWindows:BitMatrixParser.obj
 0001:000988a0       ?readFormatInformation@BitMatrixParser@qrcode@zxing@@QAE?AV?$Ref@VFormatInformation@qrcode@zxing@@@3@XZ 004998a0 f   AGKWindows:BitMatrixParser.obj
 0001:00098cf0       ?readCodewords@BitMatrixParser@qrcode@zxing@@QAE?AV?$ArrayRef@E@3@XZ 00499cf0 f   AGKWindows:BitMatrixParser.obj
 0001:00098fc0       ??_GBitMatrixParser@qrcode@zxing@@UAEPAXI@Z 00499fc0 f i AGKWindows:BitMatrixParser.obj
 0001:00098fc0       ??_EBitMatrixParser@qrcode@zxing@@UAEPAXI@Z 00499fc0 f i AGKWindows:BitMatrixParser.obj
 0001:00098ff0       ??0FormatInformation@qrcode@zxing@@AAE@H@Z 00499ff0 f   AGKWindows:FormatInformation.obj
 0001:00099060       ?getErrorCorrectionLevel@FormatInformation@qrcode@zxing@@QAEAAVErrorCorrectionLevel@23@XZ 0049a060 f   AGKWindows:FormatInformation.obj
 0001:00099070       ?getDataMask@FormatInformation@qrcode@zxing@@QAEEXZ 0049a070 f   AGKWindows:FormatInformation.obj
 0001:00099080       ?numBitsDiffering@FormatInformation@qrcode@zxing@@SAHII@Z 0049a080 f   AGKWindows:FormatInformation.obj
 0001:00099100       ??8qrcode@zxing@@YA_NABVFormatInformation@01@0@Z 0049a100 f   AGKWindows:FormatInformation.obj
 0001:00099130       ?doDecodeFormatInformation@FormatInformation@qrcode@zxing@@SA?AV?$Ref@VFormatInformation@qrcode@zxing@@@3@HH@Z 0049a130 f   AGKWindows:FormatInformation.obj
 0001:000993c0       ?decodeFormatInformation@FormatInformation@qrcode@zxing@@SA?AV?$Ref@VFormatInformation@qrcode@zxing@@@3@HH@Z 0049a3c0 f   AGKWindows:FormatInformation.obj
 0001:00099540       ??6qrcode@zxing@@YAAAV?$basic_ostream@DU?$char_traits@D@std@@@std@@AAV23@ABVFormatInformation@01@@Z 0049a540 f   AGKWindows:FormatInformation.obj
 0001:00099570       ??6?$basic_ostream@DU?$char_traits@D@std@@@std@@QAEAAV01@PBX@Z 0049a570 f i AGKWindows:FormatInformation.obj
 0001:00099760       ??0PerspectiveTransform@zxing@@AAE@MMMMMMMMM@Z 0049a760 f   AGKWindows:PerspectiveTransform.obj
 0001:000997b0       ?transformPoints@PerspectiveTransform@zxing@@QAEXAAV?$vector@MV?$allocator@M@std@@@std@@@Z 0049a7b0 f   AGKWindows:PerspectiveTransform.obj
 0001:00099840       ?squareToQuadrilateral@PerspectiveTransform@zxing@@SA?AV?$Ref@VPerspectiveTransform@zxing@@@2@MMMMMMMM@Z 0049a840 f   AGKWindows:PerspectiveTransform.obj
 0001:00099b90       ?buildAdjoint@PerspectiveTransform@zxing@@QAE?AV?$Ref@VPerspectiveTransform@zxing@@@2@XZ 0049ab90 f   AGKWindows:PerspectiveTransform.obj
 0001:00099cb0       ?times@PerspectiveTransform@zxing@@QAE?AV?$Ref@VPerspectiveTransform@zxing@@@2@V32@@Z 0049acb0 f   AGKWindows:PerspectiveTransform.obj
 0001:00099ee0       ?quadrilateralToSquare@PerspectiveTransform@zxing@@SA?AV?$Ref@VPerspectiveTransform@zxing@@@2@MMMMMMMM@Z 0049aee0 f   AGKWindows:PerspectiveTransform.obj
 0001:00099fd0       ?quadrilateralToQuadrilateral@PerspectiveTransform@zxing@@SA?AV?$Ref@VPerspectiveTransform@zxing@@@2@MMMMMMMMMMMMMMMM@Z 0049afd0 f   AGKWindows:PerspectiveTransform.obj
 0001:0009a180       ??6zxing@@YAAAV?$basic_ostream@DU?$char_traits@D@std@@@std@@AAV12@ABVPerspectiveTransform@0@@Z 0049b180 f   AGKWindows:PerspectiveTransform.obj
 0001:0009a290       ??6?$basic_ostream@DU?$char_traits@D@std@@@std@@QAEAAV01@M@Z 0049b290 f i AGKWindows:PerspectiveTransform.obj
 0001:0009a480       ??0GridSampler@zxing@@AAE@XZ 0049b480 f   AGKWindows:GridSampler.obj
 0001:0009a490       ?getInstance@GridSampler@zxing@@SAAAV12@XZ 0049b490 f   AGKWindows:GridSampler.obj
 0001:0009a4a0       ?checkAndNudgePoints@GridSampler@zxing@@SAXV?$Ref@VBitMatrix@zxing@@@2@AAV?$vector@MV?$allocator@M@std@@@std@@@Z 0049b4a0 f   AGKWindows:GridSampler.obj
 0001:0009a790       ?sampleGrid@GridSampler@zxing@@QAE?AV?$Ref@VBitMatrix@zxing@@@2@V32@HV?$Ref@VPerspectiveTransform@zxing@@@2@@Z 0049b790 f   AGKWindows:GridSampler.obj
 0001:0009aab0       ?sampleGrid@GridSampler@zxing@@QAE?AV?$Ref@VBitMatrix@zxing@@@2@V32@HHV?$Ref@VPerspectiveTransform@zxing@@@2@@Z 0049bab0 f   AGKWindows:GridSampler.obj
 0001:0009add0       ?sampleGrid@GridSampler@zxing@@QAE?AV?$Ref@VBitMatrix@zxing@@@2@V32@HMMMMMMMMMMMMMMMM@Z 0049bdd0 f   AGKWindows:GridSampler.obj
 0001:0009aff0       ?allocate@?$allocator@I@std@@QAEPAII@Z 0049bff0 f i AGKWindows:BitArray.obj
 0001:0009aff0       ?allocate@?$allocator@V?$Ref@VFinderPattern@qrcode@zxing@@@zxing@@@std@@QAEPAV?$Ref@VFinderPattern@qrcode@zxing@@@zxing@@I@Z 0049bff0 f i AGKWindows:FinderPatternFinder.obj
 0001:0009aff0       ?allocate@?$allocator@V?$Ref@VDataMask@qrcode@zxing@@@zxing@@@std@@QAEPAV?$Ref@VDataMask@qrcode@zxing@@@zxing@@I@Z 0049bff0 f i AGKWindows:DataMask.obj
 0001:0009aff0       ?allocate@?$allocator@PAVECBlocks@qrcode@zxing@@@std@@QAEPAPAVECBlocks@qrcode@zxing@@I@Z 0049bff0 f i AGKWindows:Version.obj
 0001:0009aff0       ?allocate@?$allocator@V?$Ref@VGF256Poly@zxing@@@zxing@@@std@@QAEPAV?$Ref@VGF256Poly@zxing@@@zxing@@I@Z 0049bff0 f i AGKWindows:ReedSolomonDecoder.obj
 0001:0009aff0       ?allocate@?$allocator@V?$Ref@VDataBlock@qrcode@zxing@@@zxing@@@std@@QAEPAV?$Ref@VDataBlock@qrcode@zxing@@@zxing@@I@Z 0049bff0 f i AGKWindows:DataBlock.obj
 0001:0009aff0       ?allocate@?$allocator@V?$Ref@VVersion@qrcode@zxing@@@zxing@@@std@@QAEPAV?$Ref@VVersion@qrcode@zxing@@@zxing@@I@Z 0049bff0 f i AGKWindows:Version.obj
 0001:0009aff0       ?allocate@?$allocator@PAVAlignmentPattern@qrcode@zxing@@@std@@QAEPAPAVAlignmentPattern@qrcode@zxing@@I@Z 0049bff0 f i AGKWindows:AlignmentPatternFinder.obj
 0001:0009aff0       ?allocate@?$allocator@PAVECB@qrcode@zxing@@@std@@QAEPAPAVECB@qrcode@zxing@@I@Z 0049bff0 f i AGKWindows:DataBlock.obj
 0001:0009aff0       ?allocate@?$allocator@V?$Ref@VResultPoint@zxing@@@zxing@@@std@@QAEPAV?$Ref@VResultPoint@zxing@@@zxing@@I@Z 0049bff0 f i AGKWindows:QRCodeReader.obj
 0001:0009aff0       ?allocate@?$allocator@H@std@@QAEPAHI@Z 0049bff0 f i AGKWindows:GlobalHistogramBinarizer.obj
 0001:0009aff0       ?allocate@?$allocator@M@std@@QAEPAMI@Z 0049bff0 f i AGKWindows:GridSampler.obj
 0001:0009b050       ?_Construct_n@?$vector@MV?$allocator@M@std@@@std@@QAEXIPBM@Z 0049c050 f i AGKWindows:GridSampler.obj
 0001:0009b0c0       ?centerFromEnd@AlignmentPatternFinder@qrcode@zxing@@CAMAAV?$vector@HV?$allocator@H@std@@@std@@H@Z 0049c0c0 f   AGKWindows:AlignmentPatternFinder.obj
 0001:0009b0f0       ?foundPatternCross@AlignmentPatternFinder@qrcode@zxing@@AAE_NAAV?$vector@HV?$allocator@H@std@@@std@@@Z 0049c0f0 f   AGKWindows:AlignmentPatternFinder.obj
 0001:0009b150       ??0AlignmentPatternFinder@qrcode@zxing@@QAE@V?$Ref@VBitMatrix@zxing@@@2@IIIIMABV?$Ref@VResultPointCallback@zxing@@@2@@Z 0049c150 f   AGKWindows:AlignmentPatternFinder.obj
 0001:0009b2e0       ??1AlignmentPatternFinder@qrcode@zxing@@UAE@XZ 0049c2e0 f   AGKWindows:AlignmentPatternFinder.obj
 0001:0009b470       ?crossCheckVertical@AlignmentPatternFinder@qrcode@zxing@@AAEMIIHH@Z 0049c470 f   AGKWindows:AlignmentPatternFinder.obj
 0001:0009b650       ?handlePossibleCenter@AlignmentPatternFinder@qrcode@zxing@@AAE?AV?$Ref@VAlignmentPattern@qrcode@zxing@@@3@AAV?$vector@HV?$allocator@H@std@@@std@@II@Z 0049c650 f   AGKWindows:AlignmentPatternFinder.obj
 0001:0009b9a0       ?find@AlignmentPatternFinder@qrcode@zxing@@QAE?AV?$Ref@VAlignmentPattern@qrcode@zxing@@@3@XZ 0049c9a0 f   AGKWindows:AlignmentPatternFinder.obj
 0001:0009bdb0       ??_GAlignmentPatternFinder@qrcode@zxing@@UAEPAXI@Z 0049cdb0 f i AGKWindows:AlignmentPatternFinder.obj
 0001:0009bdb0       ??_EAlignmentPatternFinder@qrcode@zxing@@UAEPAXI@Z 0049cdb0 f i AGKWindows:AlignmentPatternFinder.obj
 0001:0009bde0       ?centerFromEnd@FinderPatternFinder@qrcode@zxing@@KAMPAHH@Z 0049cde0 f   AGKWindows:FinderPatternFinder.obj
 0001:0009be10       ?foundPatternCross@FinderPatternFinder@qrcode@zxing@@KA_NPAH@Z 0049ce10 f   AGKWindows:FinderPatternFinder.obj
 0001:0009bf20       ?crossCheckVertical@FinderPatternFinder@qrcode@zxing@@IAEMIIHH@Z 0049cf20 f   AGKWindows:FinderPatternFinder.obj
 0001:0009c1a0       ?crossCheckHorizontal@FinderPatternFinder@qrcode@zxing@@IAEMIIHH@Z 0049d1a0 f   AGKWindows:FinderPatternFinder.obj
 0001:0009c3d0       ?distance@FinderPatternFinder@qrcode@zxing@@SAMV?$Ref@VResultPoint@zxing@@@3@0@Z 0049d3d0 f   AGKWindows:FinderPatternFinder.obj
 0001:0009c510       ?findRowSkip@FinderPatternFinder@qrcode@zxing@@IAEHXZ 0049d510 f   AGKWindows:FinderPatternFinder.obj
 0001:0009c730       ?haveMultiplyConfirmedCenters@FinderPatternFinder@qrcode@zxing@@IAE_NXZ 0049d730 f   AGKWindows:FinderPatternFinder.obj
 0001:0009c900       ??0FinderPatternFinder@qrcode@zxing@@QAE@V?$Ref@VBitMatrix@zxing@@@2@ABV?$Ref@VResultPointCallback@zxing@@@2@@Z 0049d900 f   AGKWindows:FinderPatternFinder.obj
 0001:0009ca50       ?handlePossibleCenter@FinderPatternFinder@qrcode@zxing@@IAE_NPAHII@Z 0049da50 f   AGKWindows:FinderPatternFinder.obj
 0001:0009ce10       ?selectBestPatterns@FinderPatternFinder@qrcode@zxing@@IAE?AV?$vector@V?$Ref@VFinderPattern@qrcode@zxing@@@zxing@@V?$allocator@V?$Ref@VFinderPattern@qrcode@zxing@@@zxing@@@std@@@std@@XZ 0049de10 f   AGKWindows:FinderPatternFinder.obj
 0001:0009d210       ?orderBestPatterns@FinderPatternFinder@qrcode@zxing@@KA?AV?$vector@V?$Ref@VFinderPattern@qrcode@zxing@@@zxing@@V?$allocator@V?$Ref@VFinderPattern@qrcode@zxing@@@zxing@@@std@@@std@@V45@@Z 0049e210 f   AGKWindows:FinderPatternFinder.obj
 0001:0009d850       ?find@FinderPatternFinder@qrcode@zxing@@QAE?AV?$Ref@VFinderPatternInfo@qrcode@zxing@@@3@ABVDecodeHints@3@@Z 0049e850 f   AGKWindows:FinderPatternFinder.obj
 0001:0009dc70       ??RFurthestFromAverageComparator@qrcode@zxing@@QAE_NV?$Ref@VFinderPattern@qrcode@zxing@@@2@0@Z 0049ec70 f i AGKWindows:FinderPatternFinder.obj
 0001:0009dda0       ??RCenterComparator@qrcode@zxing@@QAE_NV?$Ref@VFinderPattern@qrcode@zxing@@@2@0@Z 0049eda0 f i AGKWindows:FinderPatternFinder.obj
 0001:0009df70       ??$swap@V?$Ref@VFinderPattern@qrcode@zxing@@@zxing@@@std@@YAXAAV?$Ref@VFinderPattern@qrcode@zxing@@@zxing@@0@Z 0049ef70 f i AGKWindows:FinderPatternFinder.obj
 0001:0009e090       ??$_Push_heap@PAV?$Ref@VFinderPattern@qrcode@zxing@@@zxing@@HV12@VFurthestFromAverageComparator@qrcode@2@@std@@YAXPAV?$Ref@VFinderPattern@qrcode@zxing@@@zxing@@HH$$QAV12@VFurthestFromAverageComparator@qrcode@2@@Z 0049f090 f i AGKWindows:FinderPatternFinder.obj
 0001:0009e290       ??$_Move_backward@PAV?$Ref@VFinderPattern@qrcode@zxing@@@zxing@@PAV12@@std@@YAPAV?$Ref@VFinderPattern@qrcode@zxing@@@zxing@@PAV12@00U_Nonscalar_ptr_iterator_tag@0@@Z 0049f290 f i AGKWindows:FinderPatternFinder.obj
 0001:0009e300       ??$_Push_heap@PAV?$Ref@VFinderPattern@qrcode@zxing@@@zxing@@HV12@VCenterComparator@qrcode@2@@std@@YAXPAV?$Ref@VFinderPattern@qrcode@zxing@@@zxing@@HH$$QAV12@VCenterComparator@qrcode@2@@Z 0049f300 f i AGKWindows:FinderPatternFinder.obj
 0001:0009e500       ??$_Cons_val@V?$allocator@V?$Ref@VFinderPattern@qrcode@zxing@@@zxing@@@std@@V?$Ref@VFinderPattern@qrcode@zxing@@@zxing@@AAV34@@std@@YAXAAV?$allocator@V?$Ref@VFinderPattern@qrcode@zxing@@@zxing@@@0@PAV?$Ref@VFinderPattern@qrcode@zxing@@@zxing@@AAV23@@Z 0049f500 f i AGKWindows:FinderPatternFinder.obj
 0001:0009e500       ??$_Cons_val@V?$allocator@V?$Ref@VVersion@qrcode@zxing@@@zxing@@@std@@V?$Ref@VVersion@qrcode@zxing@@@zxing@@V34@@std@@YAXAAV?$allocator@V?$Ref@VVersion@qrcode@zxing@@@zxing@@@0@PAV?$Ref@VVersion@qrcode@zxing@@@zxing@@$$QAV23@@Z 0049f500 f i AGKWindows:Version.obj
 0001:0009e500       ??$_Cons_val@V?$allocator@V?$Ref@VDataMask@qrcode@zxing@@@zxing@@@std@@V?$Ref@VDataMask@qrcode@zxing@@@zxing@@V34@@std@@YAXAAV?$allocator@V?$Ref@VDataMask@qrcode@zxing@@@zxing@@@0@PAV?$Ref@VDataMask@qrcode@zxing@@@zxing@@$$QAV23@@Z 0049f500 f i AGKWindows:DataMask.obj
 0001:0009e5a0       ??$_Med3@PAV?$Ref@VFinderPattern@qrcode@zxing@@@zxing@@VFurthestFromAverageComparator@qrcode@2@@std@@YAXPAV?$Ref@VFinderPattern@qrcode@zxing@@@zxing@@00VFurthestFromAverageComparator@qrcode@2@@Z 0049f5a0 f i AGKWindows:FinderPatternFinder.obj
 0001:0009e870       ??$_Adjust_heap@PAV?$Ref@VFinderPattern@qrcode@zxing@@@zxing@@HV12@VFurthestFromAverageComparator@qrcode@2@@std@@YAXPAV?$Ref@VFinderPattern@qrcode@zxing@@@zxing@@HH$$QAV12@VFurthestFromAverageComparator@qrcode@2@@Z 0049f870 f i AGKWindows:FinderPatternFinder.obj
 0001:0009ea90       ??$_Med3@PAV?$Ref@VFinderPattern@qrcode@zxing@@@zxing@@VCenterComparator@qrcode@2@@std@@YAXPAV?$Ref@VFinderPattern@qrcode@zxing@@@zxing@@00VCenterComparator@qrcode@2@@Z 0049fa90 f i AGKWindows:FinderPatternFinder.obj
 0001:0009ed60       ??$_Adjust_heap@PAV?$Ref@VFinderPattern@qrcode@zxing@@@zxing@@HV12@VCenterComparator@qrcode@2@@std@@YAXPAV?$Ref@VFinderPattern@qrcode@zxing@@@zxing@@HH$$QAV12@VCenterComparator@qrcode@2@@Z 0049fd60 f i AGKWindows:FinderPatternFinder.obj
 0001:0009ef80       ??$_Cons_val@V?$allocator@V?$Ref@VFinderPattern@qrcode@zxing@@@zxing@@@std@@V?$Ref@VFinderPattern@qrcode@zxing@@@zxing@@ABV34@@std@@YAXAAV?$allocator@V?$Ref@VFinderPattern@qrcode@zxing@@@zxing@@@0@PAV?$Ref@VFinderPattern@qrcode@zxing@@@zxing@@ABV23@@Z 0049ff80 f i AGKWindows:FinderPatternFinder.obj
 0001:0009f020       ??$_Median@PAV?$Ref@VFinderPattern@qrcode@zxing@@@zxing@@VFurthestFromAverageComparator@qrcode@2@@std@@YAXPAV?$Ref@VFinderPattern@qrcode@zxing@@@zxing@@00VFurthestFromAverageComparator@qrcode@2@@Z 004a0020 f i AGKWindows:FinderPatternFinder.obj
 0001:0009f0d0       ??$_Make_heap@PAV?$Ref@VFinderPattern@qrcode@zxing@@@zxing@@HV12@VFurthestFromAverageComparator@qrcode@2@@std@@YAXPAV?$Ref@VFinderPattern@qrcode@zxing@@@zxing@@0VFurthestFromAverageComparator@qrcode@2@PAH0@Z 004a00d0 f i AGKWindows:FinderPatternFinder.obj
 0001:0009f1b0       ??$_Insertion_sort1@PAV?$Ref@VFinderPattern@qrcode@zxing@@@zxing@@VFurthestFromAverageComparator@qrcode@2@V12@@std@@YAXPAV?$Ref@VFinderPattern@qrcode@zxing@@@zxing@@0VFurthestFromAverageComparator@qrcode@2@0@Z 004a01b0 f i AGKWindows:FinderPatternFinder.obj
 0001:0009f550       ??$_Median@PAV?$Ref@VFinderPattern@qrcode@zxing@@@zxing@@VCenterComparator@qrcode@2@@std@@YAXPAV?$Ref@VFinderPattern@qrcode@zxing@@@zxing@@00VCenterComparator@qrcode@2@@Z 004a0550 f i AGKWindows:FinderPatternFinder.obj
 0001:0009f600       ??$_Make_heap@PAV?$Ref@VFinderPattern@qrcode@zxing@@@zxing@@HV12@VCenterComparator@qrcode@2@@std@@YAXPAV?$Ref@VFinderPattern@qrcode@zxing@@@zxing@@0VCenterComparator@qrcode@2@PAH0@Z 004a0600 f i AGKWindows:FinderPatternFinder.obj
 0001:0009f6e0       ??$_Insertion_sort1@PAV?$Ref@VFinderPattern@qrcode@zxing@@@zxing@@VCenterComparator@qrcode@2@V12@@std@@YAXPAV?$Ref@VFinderPattern@qrcode@zxing@@@zxing@@0VCenterComparator@qrcode@2@0@Z 004a06e0 f i AGKWindows:FinderPatternFinder.obj
 0001:0009fa80       ??$_Pop_heap_0@PAV?$Ref@VFinderPattern@qrcode@zxing@@@zxing@@V12@VFurthestFromAverageComparator@qrcode@2@@std@@YAXPAV?$Ref@VFinderPattern@qrcode@zxing@@@zxing@@0VFurthestFromAverageComparator@qrcode@2@0@Z 004a0a80 f i AGKWindows:FinderPatternFinder.obj
 0001:0009fb90       ??$_Pop_heap_0@PAV?$Ref@VFinderPattern@qrcode@zxing@@@zxing@@V12@VCenterComparator@qrcode@2@@std@@YAXPAV?$Ref@VFinderPattern@qrcode@zxing@@@zxing@@0VCenterComparator@qrcode@2@0@Z 004a0b90 f i AGKWindows:FinderPatternFinder.obj
 0001:0009fca0       ??$_Unguarded_partition@PAV?$Ref@VFinderPattern@qrcode@zxing@@@zxing@@VFurthestFromAverageComparator@qrcode@2@@std@@YA?AU?$pair@PAV?$Ref@VFinderPattern@qrcode@zxing@@@zxing@@PAV12@@0@PAV?$Ref@VFinderPattern@qrcode@zxing@@@zxing@@0VFurthestFromAverageComparator@qrcode@3@@Z 004a0ca0 f i AGKWindows:FinderPatternFinder.obj
 0001:000a0510       ??$_Unguarded_partition@PAV?$Ref@VFinderPattern@qrcode@zxing@@@zxing@@VCenterComparator@qrcode@2@@std@@YA?AU?$pair@PAV?$Ref@VFinderPattern@qrcode@zxing@@@zxing@@PAV12@@0@PAV?$Ref@VFinderPattern@qrcode@zxing@@@zxing@@0VCenterComparator@qrcode@3@@Z 004a1510 f i AGKWindows:FinderPatternFinder.obj
 0001:000a0d80       ??$_Uninit_copy@V?$_Vector_const_iterator@V?$_Vector_val@V?$Ref@VFinderPattern@qrcode@zxing@@@zxing@@V?$allocator@V?$Ref@VFinderPattern@qrcode@zxing@@@zxing@@@std@@@std@@@std@@PAV?$Ref@VFinderPattern@qrcode@zxing@@@zxing@@V?$allocator@V?$Ref@VFinderPattern@qrcode@zxing@@@zxing@@@2@@std@@YAPAV?$Ref@VFinderPattern@qrcode@zxing@@@zxing@@V?$_Vector_const_iterator@V?$_Vector_val@V?$Ref@VFinderPattern@qrcode@zxing@@@zxing@@V?$allocator@V?$Ref@VFinderPattern@qrcode@zxing@@@zxing@@@std@@@std@@@0@0PAV12@AAV?$allocator@V?$Ref@VFinderPattern@qrcode@zxing@@@zxing@@@0@U_Nonscalar_ptr_iterator_tag@0@@Z 004a1d80 f i AGKWindows:FinderPatternFinder.obj
 0001:000a0d80       ??$_Uninit_copy@V?$_Vector_const_iterator@V?$_Vector_val@V?$Ref@VResultPoint@zxing@@@zxing@@V?$allocator@V?$Ref@VResultPoint@zxing@@@zxing@@@std@@@std@@@std@@PAV?$Ref@VResultPoint@zxing@@@zxing@@V?$allocator@V?$Ref@VResultPoint@zxing@@@zxing@@@2@@std@@YAPAV?$Ref@VResultPoint@zxing@@@zxing@@V?$_Vector_const_iterator@V?$_Vector_val@V?$Ref@VResultPoint@zxing@@@zxing@@V?$allocator@V?$Ref@VResultPoint@zxing@@@zxing@@@std@@@std@@@0@0PAV12@AAV?$allocator@V?$Ref@VResultPoint@zxing@@@zxing@@@0@U_Nonscalar_ptr_iterator_tag@0@@Z 004a1d80 f i AGKWindows:QRCodeReader.obj
 0001:000a0e80       ??$_Sort_heap@PAV?$Ref@VFinderPattern@qrcode@zxing@@@zxing@@VFurthestFromAverageComparator@qrcode@2@@std@@YAXPAV?$Ref@VFinderPattern@qrcode@zxing@@@zxing@@0VFurthestFromAverageComparator@qrcode@2@@Z 004a1e80 f i AGKWindows:FinderPatternFinder.obj
 0001:000a0ed0       ??$_Sort_heap@PAV?$Ref@VFinderPattern@qrcode@zxing@@@zxing@@VCenterComparator@qrcode@2@@std@@YAXPAV?$Ref@VFinderPattern@qrcode@zxing@@@zxing@@0VCenterComparator@qrcode@2@@Z 004a1ed0 f i AGKWindows:FinderPatternFinder.obj
 0001:000a0f20       ??$_Sort@PAV?$Ref@VFinderPattern@qrcode@zxing@@@zxing@@HVFurthestFromAverageComparator@qrcode@2@@std@@YAXPAV?$Ref@VFinderPattern@qrcode@zxing@@@zxing@@0HVFurthestFromAverageComparator@qrcode@2@@Z 004a1f20 f i AGKWindows:FinderPatternFinder.obj
 0001:000a1010       ??$_Sort@PAV?$Ref@VFinderPattern@qrcode@zxing@@@zxing@@HVCenterComparator@qrcode@2@@std@@YAXPAV?$Ref@VFinderPattern@qrcode@zxing@@@zxing@@0HVCenterComparator@qrcode@2@@Z 004a2010 f i AGKWindows:FinderPatternFinder.obj
 0001:000a1100       ?push_back@?$vector@V?$Ref@VFinderPattern@qrcode@zxing@@@zxing@@V?$allocator@V?$Ref@VFinderPattern@qrcode@zxing@@@zxing@@@std@@@std@@QAEXABV?$Ref@VFinderPattern@qrcode@zxing@@@zxing@@@Z 004a2100 f i AGKWindows:FinderPatternFinder.obj
 0001:000a1180       ??0ECB@qrcode@zxing@@QAE@HH@Z 004a2180 f   AGKWindows:Version.obj
 0001:000a11a0       ?getCount@ECB@qrcode@zxing@@QAEHXZ 004a21a0 f   AGKWindows:Version.obj
 0001:000a11b0       ?getDataCodewords@ECB@qrcode@zxing@@QAEHXZ 004a21b0 f   AGKWindows:Version.obj
 0001:000a11c0       ?getECCodewords@ECBlocks@qrcode@zxing@@QAEHXZ 004a21c0 f   AGKWindows:Version.obj
 0001:000a11d0       ?getECBlocks@ECBlocks@qrcode@zxing@@QAEAAV?$vector@PAVECB@qrcode@zxing@@V?$allocator@PAVECB@qrcode@zxing@@@std@@@std@@XZ 004a21d0 f   AGKWindows:Version.obj
 0001:000a11e0       ?getVersionNumber@Version@qrcode@zxing@@QAEHXZ 004a21e0 f   AGKWindows:Version.obj
 0001:000a11f0       ?getAlignmentPatternCenters@Version@qrcode@zxing@@QAEAAV?$vector@HV?$allocator@H@std@@@std@@XZ 004a21f0 f   AGKWindows:Version.obj
 0001:000a1200       ?getTotalCodewords@Version@qrcode@zxing@@QAEHXZ 004a2200 f   AGKWindows:Version.obj
 0001:000a1210       ?getDimensionForVersion@Version@qrcode@zxing@@QAEHXZ 004a2210 f   AGKWindows:Version.obj
 0001:000a1220       ?getECBlocksForLevel@Version@qrcode@zxing@@QAEAAVECBlocks@23@AAVErrorCorrectionLevel@23@@Z 004a2220 f   AGKWindows:Version.obj
 0001:000a1240       ?getVersionForNumber@Version@qrcode@zxing@@SAPAV123@H@Z 004a2240 f   AGKWindows:Version.obj
 0001:000a12a0       ?decodeVersionInformation@Version@qrcode@zxing@@SAPAV123@I@Z 004a22a0 f   AGKWindows:Version.obj
 0001:000a13b0       ?getProvisionalVersionForDimension@Version@qrcode@zxing@@SAPAV123@H@Z 004a23b0 f   AGKWindows:Version.obj
 0001:000a1430       ?buildFunctionPattern@Version@qrcode@zxing@@QAE?AV?$Ref@VBitMatrix@zxing@@@3@XZ 004a2430 f   AGKWindows:Version.obj
 0001:000a1610       ??1ECBlocks@qrcode@zxing@@QAE@XZ 004a2610 f   AGKWindows:Version.obj
 0001:000a1670       ??0ECBlocks@qrcode@zxing@@QAE@HPAVECB@12@@Z 004a2670 f   AGKWindows:Version.obj
 0001:000a16a0       ??0ECBlocks@qrcode@zxing@@QAE@HPAVECB@12@0@Z 004a26a0 f   AGKWindows:Version.obj
 0001:000a1720       ??1Version@qrcode@zxing@@UAE@XZ 004a2720 f   AGKWindows:Version.obj
 0001:000a17b0       ??0Version@qrcode@zxing@@AAE@HPAV?$vector@HV?$allocator@H@std@@@std@@PAVECBlocks@12@111@Z 004a27b0 f   AGKWindows:Version.obj
 0001:000a1900       ?buildVersions@Version@qrcode@zxing@@SAHXZ 004a2900 f   AGKWindows:Version.obj
 0001:000a7cd0       ??0?$Ref@VGF256Poly@zxing@@@zxing@@QAE@PAVGF256Poly@1@@Z 004a8cd0 f i AGKWindows:ReedSolomonDecoder.obj
 0001:000a7cd0       ??0?$Ref@VVersion@qrcode@zxing@@@zxing@@QAE@PAVVersion@qrcode@1@@Z 004a8cd0 f i AGKWindows:Version.obj
 0001:000a7d30       ?reserve@?$vector@PAVECBlocks@qrcode@zxing@@V?$allocator@PAVECBlocks@qrcode@zxing@@@std@@@std@@QAEXI@Z 004a8d30 f i AGKWindows:Version.obj
 0001:000a7d30       ?reserve@?$vector@HV?$allocator@H@std@@@std@@QAEXI@Z 004a8d30 f i AGKWindows:Version.obj
 0001:000a7d30       ?reserve@?$vector@PAVAlignmentPattern@qrcode@zxing@@V?$allocator@PAVAlignmentPattern@qrcode@zxing@@@std@@@std@@QAEXI@Z 004a8d30 f i AGKWindows:AlignmentPatternFinder.obj
 0001:000a7d30       ?reserve@?$vector@PAVECB@qrcode@zxing@@V?$allocator@PAVECB@qrcode@zxing@@@std@@@std@@QAEXI@Z 004a8d30 f i AGKWindows:Version.obj
 0001:000a7db0       ?_Reserve@?$vector@PAVECBlocks@qrcode@zxing@@V?$allocator@PAVECBlocks@qrcode@zxing@@@std@@@std@@IAEXI@Z 004a8db0 f i AGKWindows:Version.obj
 0001:000a7db0       ?_Reserve@?$vector@PAVECB@qrcode@zxing@@V?$allocator@PAVECB@qrcode@zxing@@@std@@@std@@IAEXI@Z 004a8db0 f i AGKWindows:Version.obj
 0001:000a7db0       ?_Reserve@?$vector@HV?$allocator@H@std@@@std@@IAEXI@Z 004a8db0 f i AGKWindows:Version.obj
 0001:000a7e10       ??$_Destroy_range@V?$allocator@V?$Ref@VDataBlock@qrcode@zxing@@@zxing@@@std@@@std@@YAXPAV?$Ref@VDataBlock@qrcode@zxing@@@zxing@@0AAV?$allocator@V?$Ref@VDataBlock@qrcode@zxing@@@zxing@@@0@U_Nonscalar_ptr_iterator_tag@0@@Z 004a8e10 f i AGKWindows:Decoder.obj
 0001:000a7e10       ??$_Destroy_range@V?$allocator@V?$Ref@VGF256Poly@zxing@@@zxing@@@std@@@std@@YAXPAV?$Ref@VGF256Poly@zxing@@@zxing@@0AAV?$allocator@V?$Ref@VGF256Poly@zxing@@@zxing@@@0@U_Nonscalar_ptr_iterator_tag@0@@Z 004a8e10 f i AGKWindows:ReedSolomonDecoder.obj
 0001:000a7e10       ??$_Destroy_range@V?$allocator@V?$Ref@VDataMask@qrcode@zxing@@@zxing@@@std@@@std@@YAXPAV?$Ref@VDataMask@qrcode@zxing@@@zxing@@0AAV?$allocator@V?$Ref@VDataMask@qrcode@zxing@@@zxing@@@0@U_Nonscalar_ptr_iterator_tag@0@@Z 004a8e10 f i AGKWindows:DataMask.obj
 0001:000a7e10       ??$_Destroy_range@V?$allocator@V?$Ref@VResultPoint@zxing@@@zxing@@@std@@@std@@YAXPAV?$Ref@VResultPoint@zxing@@@zxing@@0AAV?$allocator@V?$Ref@VResultPoint@zxing@@@zxing@@@0@U_Nonscalar_ptr_iterator_tag@0@@Z 004a8e10 f i AGKWindows:QRCodeReader.obj
 0001:000a7e10       ??$_Destroy_range@V?$allocator@V?$Ref@VVersion@qrcode@zxing@@@zxing@@@std@@@std@@YAXPAV?$Ref@VVersion@qrcode@zxing@@@zxing@@0AAV?$allocator@V?$Ref@VVersion@qrcode@zxing@@@zxing@@@0@U_Nonscalar_ptr_iterator_tag@0@@Z 004a8e10 f i AGKWindows:Version.obj
 0001:000a7e10       ??$_Destroy_range@V?$allocator@V?$Ref@VFinderPattern@qrcode@zxing@@@zxing@@@std@@@std@@YAXPAV?$Ref@VFinderPattern@qrcode@zxing@@@zxing@@0AAV?$allocator@V?$Ref@VFinderPattern@qrcode@zxing@@@zxing@@@0@U_Nonscalar_ptr_iterator_tag@0@@Z 004a8e10 f i AGKWindows:Detector.obj
 0001:000a7e70       ?push_back@?$vector@PAVECB@qrcode@zxing@@V?$allocator@PAVECB@qrcode@zxing@@@std@@@std@@QAEXABQAVECB@qrcode@zxing@@@Z 004a8e70 f i AGKWindows:Version.obj
 0001:000a7ee0       ?resize@?$vector@HV?$allocator@H@std@@@std@@QAEXI@Z 004a8ee0 f i AGKWindows:Version.obj
 0001:000a7ee0       ?resize@?$vector@PAVECBlocks@qrcode@zxing@@V?$allocator@PAVECBlocks@qrcode@zxing@@@std@@@std@@QAEXI@Z 004a8ee0 f i AGKWindows:Version.obj
 0001:000a7f70       ??_EVersion@qrcode@zxing@@UAEPAXI@Z 004a8f70 f i AGKWindows:Version.obj
 0001:000a7f70       ??_GVersion@qrcode@zxing@@UAEPAXI@Z 004a8f70 f i AGKWindows:Version.obj
 0001:000a7fa0       ?push_back@?$vector@V?$Ref@VDataMask@qrcode@zxing@@@zxing@@V?$allocator@V?$Ref@VDataMask@qrcode@zxing@@@zxing@@@std@@@std@@QAEX$$QAV?$Ref@VDataMask@qrcode@zxing@@@zxing@@@Z 004a8fa0 f i AGKWindows:DataMask.obj
 0001:000a7fa0       ?push_back@?$vector@V?$Ref@VVersion@qrcode@zxing@@@zxing@@V?$allocator@V?$Ref@VVersion@qrcode@zxing@@@zxing@@@std@@@std@@QAEX$$QAV?$Ref@VVersion@qrcode@zxing@@@zxing@@@Z 004a8fa0 f i AGKWindows:Version.obj
 0001:000a8020       ?getBottomLeft@FinderPatternInfo@qrcode@zxing@@QAE?AV?$Ref@VFinderPattern@qrcode@zxing@@@3@XZ 004a9020 f   AGKWindows:FinderPatternInfo.obj
 0001:000a8050       ?getTopLeft@FinderPatternInfo@qrcode@zxing@@QAE?AV?$Ref@VFinderPattern@qrcode@zxing@@@3@XZ 004a9050 f   AGKWindows:FinderPatternInfo.obj
 0001:000a8080       ?getTopRight@FinderPatternInfo@qrcode@zxing@@QAE?AV?$Ref@VFinderPattern@qrcode@zxing@@@3@XZ 004a9080 f   AGKWindows:FinderPatternInfo.obj
 0001:000a80b0       ??0FinderPatternInfo@qrcode@zxing@@QAE@V?$vector@V?$Ref@VFinderPattern@qrcode@zxing@@@zxing@@V?$allocator@V?$Ref@VFinderPattern@qrcode@zxing@@@zxing@@@std@@@std@@@Z 004a90b0 f   AGKWindows:FinderPatternInfo.obj
 0001:000a8230       ??1FinderPatternInfo@qrcode@zxing@@UAE@XZ 004a9230 f i AGKWindows:FinderPatternInfo.obj
 0001:000a8340       ??_EFinderPatternInfo@qrcode@zxing@@UAEPAXI@Z 004a9340 f i AGKWindows:FinderPatternInfo.obj
 0001:000a8340       ??_GFinderPatternInfo@qrcode@zxing@@UAEPAXI@Z 004a9340 f i AGKWindows:FinderPatternInfo.obj
 0001:000a8fa0       __tr_tally                 004a9fa0 f   AGKWindows:trees.obj
 0001:000a9660       __tr_init                  004aa660 f   AGKWindows:trees.obj
 0001:000a9a20       __tr_stored_block          004aaa20 f   AGKWindows:trees.obj
 0001:000a9ad0       __tr_flush_bits            004aaad0 f   AGKWindows:trees.obj
 0001:000a9ae0       __tr_align                 004aaae0 f   AGKWindows:trees.obj
 0001:000a9be0       __tr_flush_block           004aabe0 f   AGKWindows:trees.obj
 0001:000a9de0       ?b2CollideCircles@@YAXPAUb2Manifold@@PBVb2CircleShape@@ABUb2Transform@@12@Z 004aade0 f   AGKWindows:b2CollideCircle.obj
 0001:000a9ed0       ?b2CollidePolygonAndCircle@@YAXPAUb2Manifold@@PBVb2PolygonShape@@ABUb2Transform@@PBVb2CircleShape@@2@Z 004aaed0 f   AGKWindows:b2CollideCircle.obj
 0001:000aa310       ?Set@b2EdgeShape@@QAEXABUb2Vec2@@0@Z 004ab310 f   AGKWindows:b2EdgeShape.obj
 0001:000aa340       ?GetChildCount@b2EdgeShape@@UBEHXZ 004ab340 f   AGKWindows:b2EdgeShape.obj
 0001:000aa350       ?TestPoint@b2EdgeShape@@UBE_NABUb2Transform@@ABUb2Vec2@@@Z 004ab350 f   AGKWindows:b2EdgeShape.obj
 0001:000aa360       ?RayCast@b2EdgeShape@@UBE_NPAUb2RayCastOutput@@ABUb2RayCastInput@@ABUb2Transform@@H@Z 004ab360 f   AGKWindows:b2EdgeShape.obj
 0001:000aa5f0       ?ComputeMass@b2EdgeShape@@UBEXPAUb2MassData@@M@Z 004ab5f0 f   AGKWindows:b2EdgeShape.obj
 0001:000aa640       ?ComputeAABB@b2EdgeShape@@UBEXPAUb2AABB@@ABUb2Transform@@H@Z 004ab640 f   AGKWindows:b2EdgeShape.obj
 0001:000aa750       ?Clone@b2EdgeShape@@UBEPAVb2Shape@@PAVb2BlockAllocator@@@Z 004ab750 f   AGKWindows:b2EdgeShape.obj
 0001:000aa7e0       ?b2MulT@@YA?AUb2Transform@@ABU1@0@Z 004ab7e0 f i AGKWindows:b2CollideEdge.obj
 0001:000aa870       ?b2CollideEdgeAndCircle@@YAXPAUb2Manifold@@PBVb2EdgeShape@@ABUb2Transform@@PBVb2CircleShape@@2@Z 004ab870 f   AGKWindows:b2CollideEdge.obj
 0001:000aace0       ?ComputeEdgeSeparation@b2EPCollider@@QAE?AUb2EPAxis@@XZ 004abce0 f   AGKWindows:b2CollideEdge.obj
 0001:000aaec0       ?ComputePolygonSeparation@b2EPCollider@@QAE?AUb2EPAxis@@XZ 004abec0 f   AGKWindows:b2CollideEdge.obj
 0001:000ab090       ?Collide@b2EPCollider@@QAEXPAUb2Manifold@@PBVb2EdgeShape@@ABUb2Transform@@PBVb2PolygonShape@@2@Z 004ac090 f   AGKWindows:b2CollideEdge.obj
 0001:000ac0b0       ?b2CollideEdgeAndPolygon@@YAXPAUb2Manifold@@PBVb2EdgeShape@@ABUb2Transform@@PBVb2PolygonShape@@2@Z 004ad0b0 f   AGKWindows:b2CollideEdge.obj
 0001:000ac100       ??1b2ChainShape@@UAE@XZ    004ad100 f   AGKWindows:b2ChainShape.obj
 0001:000ac170       ?CreateLoop@b2ChainShape@@QAEXPBUb2Vec2@@H@Z 004ad170 f   AGKWindows:b2ChainShape.obj
 0001:000ac1e0       ?CreateChain@b2ChainShape@@QAEXPBUb2Vec2@@H@Z 004ad1e0 f   AGKWindows:b2ChainShape.obj
 0001:000ac220       ?SetPrevVertex@b2ChainShape@@QAEXABUb2Vec2@@@Z 004ad220 f   AGKWindows:b2ChainShape.obj
 0001:000ac240       ?SetNextVertex@b2ChainShape@@QAEXABUb2Vec2@@@Z 004ad240 f   AGKWindows:b2ChainShape.obj
 0001:000ac260       ?GetChildCount@b2ChainShape@@UBEHXZ 004ad260 f   AGKWindows:b2ChainShape.obj
 0001:000ac270       ?GetChildEdge@b2ChainShape@@QBEXPAVb2EdgeShape@@H@Z 004ad270 f   AGKWindows:b2ChainShape.obj
 0001:000ac320       ?TestPoint@b2ChainShape@@UBE_NABUb2Transform@@ABUb2Vec2@@@Z 004ad320 f   AGKWindows:b2ChainShape.obj
 0001:000ac330       ?RayCast@b2ChainShape@@UBE_NPAUb2RayCastOutput@@ABUb2RayCastInput@@ABUb2Transform@@H@Z 004ad330 f   AGKWindows:b2ChainShape.obj
 0001:000ac3d0       ?ComputeMass@b2ChainShape@@UBEXPAUb2MassData@@M@Z 004ad3d0 f   AGKWindows:b2ChainShape.obj
 0001:000ac3f0       ?Clone@b2ChainShape@@UBEPAVb2Shape@@PAVb2BlockAllocator@@@Z 004ad3f0 f   AGKWindows:b2ChainShape.obj
 0001:000ac490       ?ComputeAABB@b2ChainShape@@UBEXPAUb2AABB@@ABUb2Transform@@H@Z 004ad490 f   AGKWindows:b2ChainShape.obj
 0001:000ac5a0       ??_Gb2ChainShape@@UAEPAXI@Z 004ad5a0 f i AGKWindows:b2ChainShape.obj
 0001:000ac5a0       ??_Eb2ChainShape@@UAEPAXI@Z 004ad5a0 f i AGKWindows:b2ChainShape.obj
 0001:000ac9d0       _gzwrite                   004ad9d0 f   AGKWindows:gzwrite.obj
 0001:000acad0       _gzputc                    004adad0 f   AGKWindows:gzwrite.obj
 0001:000acb80       _gzputs                    004adb80 f   AGKWindows:gzwrite.obj
 0001:000acbc0       _gzprintf                  004adbc0 f   AGKWindows:gzwrite.obj
 0001:000acc90       _gzflush                   004adc90 f   AGKWindows:gzwrite.obj
 0001:000acd10       _gzsetparams               004add10 f   AGKWindows:gzwrite.obj
 0001:000acdb0       _gzclose_w                 004addb0 f   AGKWindows:gzwrite.obj
 0001:000ace60       _gzflags                   004ade60 f   AGKWindows:gzwrite.obj
 0001:000ace70       ??0FormatException@zxing@@QAE@XZ 004ade70 f   AGKWindows:FormatException.obj
 0001:000ace90       ??0FormatException@zxing@@QAE@PBD@Z 004ade90 f   AGKWindows:FormatException.obj
 0001:000aceb0       ??1FormatException@zxing@@UAE@XZ 004adeb0 f   AGKWindows:FormatException.obj
 0001:000acec0       ?available@BitSource@zxing@@QAEHXZ 004adec0 f   AGKWindows:BitSource.obj
 0001:000acee0       ?readBits@BitSource@zxing@@QAEHH@Z 004adee0 f   AGKWindows:BitSource.obj
 0001:000ad030       ?compare@?$char_traits@D@std@@SAHPBD0I@Z 004ae030 f i AGKWindows:CharacterSetECI.obj
 0001:000ad0b0       ??0CharacterSetECI@common@zxing@@AAE@HPBD@Z 004ae0b0 f   AGKWindows:CharacterSetECI.obj
 0001:000ad0d0       ?getEncodingName@CharacterSetECI@common@zxing@@QAEPBDXZ 004ae0d0 f   AGKWindows:CharacterSetECI.obj
 0001:000ad0e0       ?getCharacterSetECIByValue@CharacterSetECI@common@zxing@@SAPAV123@H@Z 004ae0e0 f   AGKWindows:CharacterSetECI.obj
 0001:000ad1b0       ?getCharacterSetECIByName@CharacterSetECI@common@zxing@@SAPAV123@ABV?$basic_string@DU?$char_traits@D@std@@V?$allocator@D@2@@std@@@Z 004ae1b0 f   AGKWindows:CharacterSetECI.obj
 0001:000ad1d0       ?addCharacterSet@CharacterSetECI@common@zxing@@CAXHPBD@Z 004ae1d0 f   AGKWindows:CharacterSetECI.obj
 0001:000ad2c0       ?addCharacterSet@CharacterSetECI@common@zxing@@CAXHPBQBD@Z 004ae2c0 f   AGKWindows:CharacterSetECI.obj
 0001:000ad3d0       ?init_tables@CharacterSetECI@common@zxing@@CA_NXZ 004ae3d0 f   AGKWindows:CharacterSetECI.obj
 0001:000ad510       ?_Max@?$_Tree_val@V?$_Tmap_traits@HPAVCharacterSetECI@common@zxing@@U?$less@H@std@@V?$allocator@U?$pair@$$CBHPAVCharacterSetECI@common@zxing@@@std@@@5@$0A@@std@@@std@@SAPAU_Node@?$_Tree_nod@V?$_Tmap_traits@HPAVCharacterSetECI@common@zxing@@U?$less@H@std@@V?$allocator@U?$pair@$$CBHPAVCharacterSetECI@common@zxing@@@std@@@5@$0A@@std@@@2@PAU342@@Z 004ae510 f i AGKWindows:CharacterSetECI.obj
 0001:000ad530       ?_Min@?$_Tree_val@V?$_Tmap_traits@HPAVCharacterSetECI@common@zxing@@U?$less@H@std@@V?$allocator@U?$pair@$$CBHPAVCharacterSetECI@common@zxing@@@std@@@5@$0A@@std@@@std@@SAPAU_Node@?$_Tree_nod@V?$_Tmap_traits@HPAVCharacterSetECI@common@zxing@@U?$less@H@std@@V?$allocator@U?$pair@$$CBHPAVCharacterSetECI@common@zxing@@@std@@@5@$0A@@std@@@2@PAU342@@Z 004ae530 f i AGKWindows:CharacterSetECI.obj
 0001:000ad550       ?_Min@?$_Tree_val@V?$_Tmap_traits@V?$basic_string@DU?$char_traits@D@std@@V?$allocator@D@2@@std@@PAVCharacterSetECI@common@zxing@@U?$less@V?$basic_string@DU?$char_traits@D@std@@V?$allocator@D@2@@std@@@2@V?$allocator@U?$pair@$$CBV?$basic_string@DU?$char_traits@D@std@@V?$allocator@D@2@@std@@PAVCharacterSetECI@common@zxing@@@std@@@2@$0A@@std@@@std@@SAPAU_Node@?$_Tree_nod@V?$_Tmap_traits@V?$basic_string@DU?$char_traits@D@std@@V?$allocator@D@2@@std@@PAVCharacterSetECI@common@zxing@@U?$less@V?$basic_string@DU?$char_traits@D@std@@V?$allocator@D@2@@std@@@2@V?$allocator@U?$pair@$$CBV?$basic_string@DU?$char_traits@D@std@@V?$allocator@D@2@@std@@PAVCharacterSetECI@common@zxing@@@std@@@2@$0A@@std@@@2@PAU342@@Z 004ae550 f i AGKWindows:CharacterSetECI.obj
 0001:000ad550       ?_Min@?$_Tree_val@V?$_Tmap_traits@IV?$basic_string@DU?$char_traits@D@std@@V?$allocator@D@2@@std@@U?$less@I@2@V?$allocator@U?$pair@$$CBIV?$basic_string@DU?$char_traits@D@std@@V?$allocator@D@2@@std@@@std@@@2@$0A@@std@@@std@@SAPAU_Node@?$_Tree_nod@V?$_Tmap_traits@IV?$basic_string@DU?$char_traits@D@std@@V?$allocator@D@2@@std@@U?$less@I@2@V?$allocator@U?$pair@$$CBIV?$basic_string@DU?$char_traits@D@std@@V?$allocator@D@2@@std@@@std@@@2@$0A@@std@@@2@PAU342@@Z 004ae550 f i AGKWindows:Decoder.obj
 0001:000ad570       ??E?$_Tree_unchecked_const_iterator@V?$_Tree_val@V?$_Tmap_traits@HPAVCharacterSetECI@common@zxing@@U?$less@H@std@@V?$allocator@U?$pair@$$CBHPAVCharacterSetECI@common@zxing@@@std@@@5@$0A@@std@@@std@@U_Iterator_base0@2@@std@@QAEAAV01@XZ 004ae570 f i AGKWindows:CharacterSetECI.obj
 0001:000ad5c0       ??F?$_Tree_unchecked_const_iterator@V?$_Tree_val@V?$_Tmap_traits@HPAVCharacterSetECI@common@zxing@@U?$less@H@std@@V?$allocator@U?$pair@$$CBHPAVCharacterSetECI@common@zxing@@@std@@@5@$0A@@std@@@std@@U_Iterator_base0@2@@std@@QAEAAV01@XZ 004ae5c0 f i AGKWindows:CharacterSetECI.obj
 0001:000ad620       ??F?$_Tree_unchecked_const_iterator@V?$_Tree_val@V?$_Tmap_traits@V?$basic_string@DU?$char_traits@D@std@@V?$allocator@D@2@@std@@PAVCharacterSetECI@common@zxing@@U?$less@V?$basic_string@DU?$char_traits@D@std@@V?$allocator@D@2@@std@@@2@V?$allocator@U?$pair@$$CBV?$basic_string@DU?$char_traits@D@std@@V?$allocator@D@2@@std@@PAVCharacterSetECI@common@zxing@@@std@@@2@$0A@@std@@@std@@U_Iterator_base0@2@@std@@QAEAAV01@XZ 004ae620 f i AGKWindows:CharacterSetECI.obj
 0001:000ad680       ?compare@?$basic_string@DU?$char_traits@D@std@@V?$allocator@D@2@@std@@QBEHIIPBDI@Z 004ae680 f i AGKWindows:CharacterSetECI.obj
 0001:000ad6f0       ??1?$_Tree_val@V?$_Tmap_traits@V?$basic_string@DU?$char_traits@D@std@@V?$allocator@D@2@@std@@PAVCharacterSetECI@common@zxing@@U?$less@V?$basic_string@DU?$char_traits@D@std@@V?$allocator@D@2@@std@@@2@V?$allocator@U?$pair@$$CBV?$basic_string@DU?$char_traits@D@std@@V?$allocator@D@2@@std@@PAVCharacterSetECI@common@zxing@@@std@@@2@$0A@@std@@@std@@QAE@XZ 004ae6f0 f i AGKWindows:CharacterSetECI.obj
 0001:000ad6f0       ??1?$_Tree_val@V?$_Tmap_traits@HPAVCharacterSetECI@common@zxing@@U?$less@H@std@@V?$allocator@U?$pair@$$CBHPAVCharacterSetECI@common@zxing@@@std@@@5@$0A@@std@@@std@@QAE@XZ 004ae6f0 f i AGKWindows:CharacterSetECI.obj
 0001:000ad6f0       ??1?$_Tree_val@V?$_Tmap_traits@IV?$basic_string@DU?$char_traits@D@std@@V?$allocator@D@2@@std@@U?$less@I@2@V?$allocator@U?$pair@$$CBIV?$basic_string@DU?$char_traits@D@std@@V?$allocator@D@2@@std@@@std@@@2@$0A@@std@@@std@@QAE@XZ 004ae6f0 f i AGKWindows:Decoder.obj
 0001:000ad700       ?_Lrotate@?$_Tree@V?$_Tmap_traits@HPAVCharacterSetECI@common@zxing@@U?$less@H@std@@V?$allocator@U?$pair@$$CBHPAVCharacterSetECI@common@zxing@@@std@@@5@$0A@@std@@@std@@IAEXPAU_Node@?$_Tree_nod@V?$_Tmap_traits@HPAVCharacterSetECI@common@zxing@@U?$less@H@std@@V?$allocator@U?$pair@$$CBHPAVCharacterSetECI@common@zxing@@@std@@@5@$0A@@std@@@2@@Z 004ae700 f i AGKWindows:CharacterSetECI.obj
 0001:000ad760       ?_Rrotate@?$_Tree@V?$_Tmap_traits@HPAVCharacterSetECI@common@zxing@@U?$less@H@std@@V?$allocator@U?$pair@$$CBHPAVCharacterSetECI@common@zxing@@@std@@@5@$0A@@std@@@std@@IAEXPAU_Node@?$_Tree_nod@V?$_Tmap_traits@HPAVCharacterSetECI@common@zxing@@U?$less@H@std@@V?$allocator@U?$pair@$$CBHPAVCharacterSetECI@common@zxing@@@std@@@5@$0A@@std@@@2@@Z 004ae760 f i AGKWindows:CharacterSetECI.obj
 0001:000ad7c0       ?_Lrotate@?$_Tree@V?$_Tmap_traits@IV?$basic_string@DU?$char_traits@D@std@@V?$allocator@D@2@@std@@U?$less@I@2@V?$allocator@U?$pair@$$CBIV?$basic_string@DU?$char_traits@D@std@@V?$allocator@D@2@@std@@@std@@@2@$0A@@std@@@std@@IAEXPAU_Node@?$_Tree_nod@V?$_Tmap_traits@IV?$basic_string@DU?$char_traits@D@std@@V?$allocator@D@2@@std@@U?$less@I@2@V?$allocator@U?$pair@$$CBIV?$basic_string@DU?$char_traits@D@std@@V?$allocator@D@2@@std@@@std@@@2@$0A@@std@@@2@@Z 004ae7c0 f i AGKWindows:Decoder.obj
 0001:000ad7c0       ?_Lrotate@?$_Tree@V?$_Tmap_traits@V?$basic_string@DU?$char_traits@D@std@@V?$allocator@D@2@@std@@PAVCharacterSetECI@common@zxing@@U?$less@V?$basic_string@DU?$char_traits@D@std@@V?$allocator@D@2@@std@@@2@V?$allocator@U?$pair@$$CBV?$basic_string@DU?$char_traits@D@std@@V?$allocator@D@2@@std@@PAVCharacterSetECI@common@zxing@@@std@@@2@$0A@@std@@@std@@IAEXPAU_Node@?$_Tree_nod@V?$_Tmap_traits@V?$basic_string@DU?$char_traits@D@std@@V?$allocator@D@2@@std@@PAVCharacterSetECI@common@zxing@@U?$less@V?$basic_string@DU?$char_traits@D@std@@V?$allocator@D@2@@std@@@2@V?$allocator@U?$pair@$$CBV?$basic_string@DU?$char_traits@D@std@@V?$allocator@D@2@@std@@PAVCharacterSetECI@common@zxing@@@std@@@2@$0A@@std@@@2@@Z 004ae7c0 f i AGKWindows:CharacterSetECI.obj
 0001:000ad820       ?_Rrotate@?$_Tree@V?$_Tmap_traits@V?$basic_string@DU?$char_traits@D@std@@V?$allocator@D@2@@std@@PAVCharacterSetECI@common@zxing@@U?$less@V?$basic_string@DU?$char_traits@D@std@@V?$allocator@D@2@@std@@@2@V?$allocator@U?$pair@$$CBV?$basic_string@DU?$char_traits@D@std@@V?$allocator@D@2@@std@@PAVCharacterSetECI@common@zxing@@@std@@@2@$0A@@std@@@std@@IAEXPAU_Node@?$_Tree_nod@V?$_Tmap_traits@V?$basic_string@DU?$char_traits@D@std@@V?$allocator@D@2@@std@@PAVCharacterSetECI@common@zxing@@U?$less@V?$basic_string@DU?$char_traits@D@std@@V?$allocator@D@2@@std@@@2@V?$allocator@U?$pair@$$CBV?$basic_string@DU?$char_traits@D@std@@V?$allocator@D@2@@std@@PAVCharacterSetECI@common@zxing@@@std@@@2@$0A@@std@@@2@@Z 004ae820 f i AGKWindows:CharacterSetECI.obj
 0001:000ad820       ?_Rrotate@?$_Tree@V?$_Tmap_traits@IV?$basic_string@DU?$char_traits@D@std@@V?$allocator@D@2@@std@@U?$less@I@2@V?$allocator@U?$pair@$$CBIV?$basic_string@DU?$char_traits@D@std@@V?$allocator@D@2@@std@@@std@@@2@$0A@@std@@@std@@IAEXPAU_Node@?$_Tree_nod@V?$_Tmap_traits@IV?$basic_string@DU?$char_traits@D@std@@V?$allocator@D@2@@std@@U?$less@I@2@V?$allocator@U?$pair@$$CBIV?$basic_string@DU?$char_traits@D@std@@V?$allocator@D@2@@std@@@std@@@2@$0A@@std@@@2@@Z 004ae820 f i AGKWindows:Decoder.obj
 0001:000ad880       ?_Insert@?$_Tree@V?$_Tmap_traits@HPAVCharacterSetECI@common@zxing@@U?$less@H@std@@V?$allocator@U?$pair@$$CBHPAVCharacterSetECI@common@zxing@@@std@@@5@$0A@@std@@@std@@IAE?AV?$_Tree_iterator@V?$_Tree_val@V?$_Tmap_traits@HPAVCharacterSetECI@common@zxing@@U?$less@H@std@@V?$allocator@U?$pair@$$CBHPAVCharacterSetECI@common@zxing@@@std@@@5@$0A@@std@@@std@@@2@_NPAU_Node@?$_Tree_nod@V?$_Tmap_traits@HPAVCharacterSetECI@common@zxing@@U?$less@H@std@@V?$allocator@U?$pair@$$CBHPAVCharacterSetECI@common@zxing@@@std@@@5@$0A@@std@@@2@1@Z 004ae880 f i AGKWindows:CharacterSetECI.obj
 0001:000adab0       ??R?$less@V?$basic_string@DU?$char_traits@D@std@@V?$allocator@D@2@@std@@@std@@QBE_NABV?$basic_string@DU?$char_traits@D@std@@V?$allocator@D@2@@1@0@Z 004aeab0 f i AGKWindows:CharacterSetECI.obj
 0001:000adae0       ?_Lbound@?$_Tree@V?$_Tmap_traits@V?$basic_string@DU?$char_traits@D@std@@V?$allocator@D@2@@std@@PAVCharacterSetECI@common@zxing@@U?$less@V?$basic_string@DU?$char_traits@D@std@@V?$allocator@D@2@@std@@@2@V?$allocator@U?$pair@$$CBV?$basic_string@DU?$char_traits@D@std@@V?$allocator@D@2@@std@@PAVCharacterSetECI@common@zxing@@@std@@@2@$0A@@std@@@std@@IAEPAU_Node@?$_Tree_nod@V?$_Tmap_traits@V?$basic_string@DU?$char_traits@D@std@@V?$allocator@D@2@@std@@PAVCharacterSetECI@common@zxing@@U?$less@V?$basic_string@DU?$char_traits@D@std@@V?$allocator@D@2@@std@@@2@V?$allocator@U?$pair@$$CBV?$basic_string@DU?$char_traits@D@std@@V?$allocator@D@2@@std@@PAVCharacterSetECI@common@zxing@@@std@@@2@$0A@@std@@@2@ABV?$basic_string@DU?$char_traits@D@std@@V?$allocator@D@2@@2@@Z 004aeae0 f i AGKWindows:CharacterSetECI.obj
 0001:000adb70       ?erase@?$_Tree@V?$_Tmap_traits@HPAVCharacterSetECI@common@zxing@@U?$less@H@std@@V?$allocator@U?$pair@$$CBHPAVCharacterSetECI@common@zxing@@@std@@@5@$0A@@std@@@std@@QAE?AV?$_Tree_iterator@V?$_Tree_val@V?$_Tmap_traits@HPAVCharacterSetECI@common@zxing@@U?$less@H@std@@V?$allocator@U?$pair@$$CBHPAVCharacterSetECI@common@zxing@@@std@@@5@$0A@@std@@@std@@@2@V?$_Tree_const_iterator@V?$_Tree_val@V?$_Tmap_traits@HPAVCharacterSetECI@common@zxing@@U?$less@H@std@@V?$allocator@U?$pair@$$CBHPAVCharacterSetECI@common@zxing@@@std@@@5@$0A@@std@@@std@@@2@@Z 004aeb70 f i AGKWindows:CharacterSetECI.obj
 0001:000addc0       ?_Erase@?$_Tree@V?$_Tmap_traits@HPAVCharacterSetECI@common@zxing@@U?$less@H@std@@V?$allocator@U?$pair@$$CBHPAVCharacterSetECI@common@zxing@@@std@@@5@$0A@@std@@@std@@IAEXPAU_Node@?$_Tree_nod@V?$_Tmap_traits@HPAVCharacterSetECI@common@zxing@@U?$less@H@std@@V?$allocator@U?$pair@$$CBHPAVCharacterSetECI@common@zxing@@@std@@@5@$0A@@std@@@2@@Z 004aedc0 f i AGKWindows:CharacterSetECI.obj
 0001:000ade00       ?_Linsert@?$_Tree@V?$_Tmap_traits@HPAVCharacterSetECI@common@zxing@@U?$less@H@std@@V?$allocator@U?$pair@$$CBHPAVCharacterSetECI@common@zxing@@@std@@@5@$0A@@std@@@std@@QAE?AU?$pair@V?$_Tree_iterator@V?$_Tree_val@V?$_Tmap_traits@HPAVCharacterSetECI@common@zxing@@U?$less@H@std@@V?$allocator@U?$pair@$$CBHPAVCharacterSetECI@common@zxing@@@std@@@5@$0A@@std@@@std@@@std@@_N@2@PAU_Node@?$_Tree_nod@V?$_Tmap_traits@HPAVCharacterSetECI@common@zxing@@U?$less@H@std@@V?$allocator@U?$pair@$$CBHPAVCharacterSetECI@common@zxing@@@std@@@5@$0A@@std@@@2@_N@Z 004aee00 f i AGKWindows:CharacterSetECI.obj
 0001:000adee0       ??1?$pair@$$CBV?$basic_string@DU?$char_traits@D@std@@V?$allocator@D@2@@std@@PAVCharacterSetECI@common@zxing@@@std@@QAE@XZ 004aeee0 f i AGKWindows:CharacterSetECI.obj
 0001:000adee0       ??1?$pair@V?$basic_string@DU?$char_traits@D@std@@V?$allocator@D@2@@std@@PAVCharacterSetECI@common@zxing@@@std@@QAE@XZ 004aeee0 f i AGKWindows:CharacterSetECI.obj
 0001:000adf10       ?clear@?$_Tree@V?$_Tmap_traits@HPAVCharacterSetECI@common@zxing@@U?$less@H@std@@V?$allocator@U?$pair@$$CBHPAVCharacterSetECI@common@zxing@@@std@@@5@$0A@@std@@@std@@QAEXXZ 004aef10 f i AGKWindows:CharacterSetECI.obj
 0001:000adf60       ?_Insert@?$_Tree@V?$_Tmap_traits@HPAVCharacterSetECI@common@zxing@@U?$less@H@std@@V?$allocator@U?$pair@$$CBHPAVCharacterSetECI@common@zxing@@@std@@@5@$0A@@std@@@std@@QAE?AV?$_Tree_iterator@V?$_Tree_val@V?$_Tmap_traits@HPAVCharacterSetECI@common@zxing@@U?$less@H@std@@V?$allocator@U?$pair@$$CBHPAVCharacterSetECI@common@zxing@@@std@@@5@$0A@@std@@@std@@@2@V?$_Tree_const_iterator@V?$_Tree_val@V?$_Tmap_traits@HPAVCharacterSetECI@common@zxing@@U?$less@H@std@@V?$allocator@U?$pair@$$CBHPAVCharacterSetECI@common@zxing@@@std@@@5@$0A@@std@@@std@@@2@PAU_Node@?$_Tree_nod@V?$_Tmap_traits@HPAVCharacterSetECI@common@zxing@@U?$less@H@std@@V?$allocator@U?$pair@$$CBHPAVCharacterSetECI@common@zxing@@@std@@@5@$0A@@std@@@2@@Z 004aef60 f i AGKWindows:CharacterSetECI.obj
 0001:000ae0c0       ?erase@?$_Tree@V?$_Tmap_traits@HPAVCharacterSetECI@common@zxing@@U?$less@H@std@@V?$allocator@U?$pair@$$CBHPAVCharacterSetECI@common@zxing@@@std@@@5@$0A@@std@@@std@@QAE?AV?$_Tree_iterator@V?$_Tree_val@V?$_Tmap_traits@HPAVCharacterSetECI@common@zxing@@U?$less@H@std@@V?$allocator@U?$pair@$$CBHPAVCharacterSetECI@common@zxing@@@std@@@5@$0A@@std@@@std@@@2@V?$_Tree_const_iterator@V?$_Tree_val@V?$_Tmap_traits@HPAVCharacterSetECI@common@zxing@@U?$less@H@std@@V?$allocator@U?$pair@$$CBHPAVCharacterSetECI@common@zxing@@@std@@@5@$0A@@std@@@std@@@2@0@Z 004af0c0 f i AGKWindows:CharacterSetECI.obj
 0001:000ae160       ??$_Buynode@U?$pair@$$CBHPAVCharacterSetECI@common@zxing@@@std@@@?$_Tree_val@V?$_Tmap_traits@HPAVCharacterSetECI@common@zxing@@U?$less@H@std@@V?$allocator@U?$pair@$$CBHPAVCharacterSetECI@common@zxing@@@std@@@5@$0A@@std@@@std@@QAEPAU_Node@?$_Tree_nod@V?$_Tmap_traits@HPAVCharacterSetECI@common@zxing@@U?$less@H@std@@V?$allocator@U?$pair@$$CBHPAVCharacterSetECI@common@zxing@@@std@@@5@$0A@@std@@@1@$$QAU?$pair@$$CBHPAVCharacterSetECI@common@zxing@@@1@@Z 004af160 f i AGKWindows:CharacterSetECI.obj
 0001:000ae1d0       ??A?$map@HPAVCharacterSetECI@common@zxing@@U?$less@H@std@@V?$allocator@U?$pair@$$CBHPAVCharacterSetECI@common@zxing@@@std@@@5@@std@@QAEAAPAVCharacterSetECI@common@zxing@@ABH@Z 004af1d0 f i AGKWindows:CharacterSetECI.obj
 0001:000ae250       ?_Insert@?$_Tree@V?$_Tmap_traits@V?$basic_string@DU?$char_traits@D@std@@V?$allocator@D@2@@std@@PAVCharacterSetECI@common@zxing@@U?$less@V?$basic_string@DU?$char_traits@D@std@@V?$allocator@D@2@@std@@@2@V?$allocator@U?$pair@$$CBV?$basic_string@DU?$char_traits@D@std@@V?$allocator@D@2@@std@@PAVCharacterSetECI@common@zxing@@@std@@@2@$0A@@std@@@std@@IAE?AV?$_Tree_iterator@V?$_Tree_val@V?$_Tmap_traits@V?$basic_string@DU?$char_traits@D@std@@V?$allocator@D@2@@std@@PAVCharacterSetECI@common@zxing@@U?$less@V?$basic_string@DU?$char_traits@D@std@@V?$allocator@D@2@@std@@@2@V?$allocator@U?$pair@$$CBV?$basic_string@DU?$char_traits@D@std@@V?$allocator@D@2@@std@@PAVCharacterSetECI@common@zxing@@@std@@@2@$0A@@std@@@std@@@2@_NPAU_Node@?$_Tree_nod@V?$_Tmap_traits@V?$basic_string@DU?$char_traits@D@std@@V?$allocator@D@2@@std@@PAVCharacterSetECI@common@zxing@@U?$less@V?$basic_string@DU?$char_traits@D@std@@V?$allocator@D@2@@std@@@2@V?$allocator@U?$pair@$$CBV?$basic_string@DU?$char_traits@D@std@@V?$allocator@D@2@@std@@PAVCharacterSetECI@common@zxing@@@std@@@2@$0A@@std@@@2@1@Z 004af250 f i AGKWindows:CharacterSetECI.obj
 0001:000ae4a0       ?erase@?$_Tree@V?$_Tmap_traits@V?$basic_string@DU?$char_traits@D@std@@V?$allocator@D@2@@std@@PAVCharacterSetECI@common@zxing@@U?$less@V?$basic_string@DU?$char_traits@D@std@@V?$allocator@D@2@@std@@@2@V?$allocator@U?$pair@$$CBV?$basic_string@DU?$char_traits@D@std@@V?$allocator@D@2@@std@@PAVCharacterSetECI@common@zxing@@@std@@@2@$0A@@std@@@std@@QAE?AV?$_Tree_iterator@V?$_Tree_val@V?$_Tmap_traits@V?$basic_string@DU?$char_traits@D@std@@V?$allocator@D@2@@std@@PAVCharacterSetECI@common@zxing@@U?$less@V?$basic_string@DU?$char_traits@D@std@@V?$allocator@D@2@@std@@@2@V?$allocator@U?$pair@$$CBV?$basic_string@DU?$char_traits@D@std@@V?$allocator@D@2@@std@@PAVCharacterSetECI@common@zxing@@@std@@@2@$0A@@std@@@std@@@2@V?$_Tree_const_iterator@V?$_Tree_val@V?$_Tmap_traits@V?$basic_string@DU?$char_traits@D@std@@V?$allocator@D@2@@std@@PAVCharacterSetECI@common@zxing@@U?$less@V?$basic_string@DU?$char_traits@D@std@@V?$allocator@D@2@@std@@@2@V?$allocator@U?$pair@$$CBV?$basic_string@DU?$char_traits@D@std@@V?$allocator@D@2@@std@@PAVCharacterSetECI@common@zxing@@@std@@@2@$0A@@std@@@std@@@2@@Z 004af4a0 f i AGKWindows:CharacterSetECI.obj
 0001:000ae720       ?_Erase@?$_Tree@V?$_Tmap_traits@V?$basic_string@DU?$char_traits@D@std@@V?$allocator@D@2@@std@@PAVCharacterSetECI@common@zxing@@U?$less@V?$basic_string@DU?$char_traits@D@std@@V?$allocator@D@2@@std@@@2@V?$allocator@U?$pair@$$CBV?$basic_string@DU?$char_traits@D@std@@V?$allocator@D@2@@std@@PAVCharacterSetECI@common@zxing@@@std@@@2@$0A@@std@@@std@@IAEXPAU_Node@?$_Tree_nod@V?$_Tmap_traits@V?$basic_string@DU?$char_traits@D@std@@V?$allocator@D@2@@std@@PAVCharacterSetECI@common@zxing@@U?$less@V?$basic_string@DU?$char_traits@D@std@@V?$allocator@D@2@@std@@@2@V?$allocator@U?$pair@$$CBV?$basic_string@DU?$char_traits@D@std@@V?$allocator@D@2@@std@@PAVCharacterSetECI@common@zxing@@@std@@@2@$0A@@std@@@2@@Z 004af720 f i AGKWindows:CharacterSetECI.obj
 0001:000ae780       ?_Linsert@?$_Tree@V?$_Tmap_traits@V?$basic_string@DU?$char_traits@D@std@@V?$allocator@D@2@@std@@PAVCharacterSetECI@common@zxing@@U?$less@V?$basic_string@DU?$char_traits@D@std@@V?$allocator@D@2@@std@@@2@V?$allocator@U?$pair@$$CBV?$basic_string@DU?$char_traits@D@std@@V?$allocator@D@2@@std@@PAVCharacterSetECI@common@zxing@@@std@@@2@$0A@@std@@@std@@QAE?AU?$pair@V?$_Tree_iterator@V?$_Tree_val@V?$_Tmap_traits@V?$basic_string@DU?$char_traits@D@std@@V?$allocator@D@2@@std@@PAVCharacterSetECI@common@zxing@@U?$less@V?$basic_string@DU?$char_traits@D@std@@V?$allocator@D@2@@std@@@2@V?$allocator@U?$pair@$$CBV?$basic_string@DU?$char_traits@D@std@@V?$allocator@D@2@@std@@PAVCharacterSetECI@common@zxing@@@std@@@2@$0A@@std@@@std@@@std@@_N@2@PAU_Node@?$_Tree_nod@V?$_Tmap_traits@V?$basic_string@DU?$char_traits@D@std@@V?$allocator@D@2@@std@@PAVCharacterSetECI@common@zxing@@U?$less@V?$basic_string@DU?$char_traits@D@std@@V?$allocator@D@2@@std@@@2@V?$allocator@U?$pair@$$CBV?$basic_string@DU?$char_traits@D@std@@V?$allocator@D@2@@std@@PAVCharacterSetECI@common@zxing@@@std@@@2@$0A@@std@@@2@_N@Z 004af780 f i AGKWindows:CharacterSetECI.obj
 0001:000ae940       ?_Insert@?$_Tree@V?$_Tmap_traits@V?$basic_string@DU?$char_traits@D@std@@V?$allocator@D@2@@std@@PAVCharacterSetECI@common@zxing@@U?$less@V?$basic_string@DU?$char_traits@D@std@@V?$allocator@D@2@@std@@@2@V?$allocator@U?$pair@$$CBV?$basic_string@DU?$char_traits@D@std@@V?$allocator@D@2@@std@@PAVCharacterSetECI@common@zxing@@@std@@@2@$0A@@std@@@std@@QAE?AV?$_Tree_iterator@V?$_Tree_val@V?$_Tmap_traits@V?$basic_string@DU?$char_traits@D@std@@V?$allocator@D@2@@std@@PAVCharacterSetECI@common@zxing@@U?$less@V?$basic_string@DU?$char_traits@D@std@@V?$allocator@D@2@@std@@@2@V?$allocator@U?$pair@$$CBV?$basic_string@DU?$char_traits@D@std@@V?$allocator@D@2@@std@@PAVCharacterSetECI@common@zxing@@@std@@@2@$0A@@std@@@std@@@2@V?$_Tree_const_iterator@V?$_Tree_val@V?$_Tmap_traits@V?$basic_string@DU?$char_traits@D@std@@V?$allocator@D@2@@std@@PAVCharacterSetECI@common@zxing@@U?$less@V?$basic_string@DU?$char_traits@D@std@@V?$allocator@D@2@@std@@@2@V?$allocator@U?$pair@$$CBV?$basic_string@DU?$char_traits@D@std@@V?$allocator@D@2@@std@@PAVCharacterSetECI@common@zxing@@@std@@@2@$0A@@std@@@std@@@2@PAU_Node@?$_Tree_nod@V?$_Tmap_traits@V?$basic_string@DU?$char_traits@D@std@@V?$allocator@D@2@@std@@PAVCharacterSetECI@common@zxing@@U?$less@V?$basic_string@DU?$char_traits@D@std@@V?$allocator@D@2@@std@@@2@V?$allocator@U?$pair@$$CBV?$basic_string@DU?$char_traits@D@std@@V?$allocator@D@2@@std@@PAVCharacterSetECI@common@zxing@@@std@@@2@$0A@@std@@@2@@Z 004af940 f i AGKWindows:CharacterSetECI.obj
 0001:000aeb00       ??$_Buynode@U?$pair@$$CBV?$basic_string@DU?$char_traits@D@std@@V?$allocator@D@2@@std@@PAVCharacterSetECI@common@zxing@@@std@@@?$_Tree_val@V?$_Tmap_traits@V?$basic_string@DU?$char_traits@D@std@@V?$allocator@D@2@@std@@PAVCharacterSetECI@common@zxing@@U?$less@V?$basic_string@DU?$char_traits@D@std@@V?$allocator@D@2@@std@@@2@V?$allocator@U?$pair@$$CBV?$basic_string@DU?$char_traits@D@std@@V?$allocator@D@2@@std@@PAVCharacterSetECI@common@zxing@@@std@@@2@$0A@@std@@@std@@QAEPAU_Node@?$_Tree_nod@V?$_Tmap_traits@V?$basic_string@DU?$char_traits@D@std@@V?$allocator@D@2@@std@@PAVCharacterSetECI@common@zxing@@U?$less@V?$basic_string@DU?$char_traits@D@std@@V?$allocator@D@2@@std@@@2@V?$allocator@U?$pair@$$CBV?$basic_string@DU?$char_traits@D@std@@V?$allocator@D@2@@std@@PAVCharacterSetECI@common@zxing@@@std@@@2@$0A@@std@@@1@$$QAU?$pair@$$CBV?$basic_string@DU?$char_traits@D@std@@V?$allocator@D@2@@std@@PAVCharacterSetECI@common@zxing@@@1@@Z 004afb00 f i AGKWindows:CharacterSetECI.obj
 0001:000aebe0       ?erase@?$_Tree@V?$_Tmap_traits@V?$basic_string@DU?$char_traits@D@std@@V?$allocator@D@2@@std@@PAVCharacterSetECI@common@zxing@@U?$less@V?$basic_string@DU?$char_traits@D@std@@V?$allocator@D@2@@std@@@2@V?$allocator@U?$pair@$$CBV?$basic_string@DU?$char_traits@D@std@@V?$allocator@D@2@@std@@PAVCharacterSetECI@common@zxing@@@std@@@2@$0A@@std@@@std@@QAE?AV?$_Tree_iterator@V?$_Tree_val@V?$_Tmap_traits@V?$basic_string@DU?$char_traits@D@std@@V?$allocator@D@2@@std@@PAVCharacterSetECI@common@zxing@@U?$less@V?$basic_string@DU?$char_traits@D@std@@V?$allocator@D@2@@std@@@2@V?$allocator@U?$pair@$$CBV?$basic_string@DU?$char_traits@D@std@@V?$allocator@D@2@@std@@PAVCharacterSetECI@common@zxing@@@std@@@2@$0A@@std@@@std@@@2@V?$_Tree_const_iterator@V?$_Tree_val@V?$_Tmap_traits@V?$basic_string@DU?$char_traits@D@std@@V?$allocator@D@2@@std@@PAVCharacterSetECI@common@zxing@@U?$less@V?$basic_string@DU?$char_traits@D@std@@V?$allocator@D@2@@std@@@2@V?$allocator@U?$pair@$$CBV?$basic_string@DU?$char_traits@D@std@@V?$allocator@D@2@@std@@PAVCharacterSetECI@common@zxing@@@std@@@2@$0A@@std@@@std@@@2@0@Z 004afbe0 f i AGKWindows:CharacterSetECI.obj
 0001:000aeca0       ??A?$map@V?$basic_string@DU?$char_traits@D@std@@V?$allocator@D@2@@std@@PAVCharacterSetECI@common@zxing@@U?$less@V?$basic_string@DU?$char_traits@D@std@@V?$allocator@D@2@@std@@@2@V?$allocator@U?$pair@$$CBV?$basic_string@DU?$char_traits@D@std@@V?$allocator@D@2@@std@@PAVCharacterSetECI@common@zxing@@@std@@@2@@std@@QAEAAPAVCharacterSetECI@common@zxing@@ABV?$basic_string@DU?$char_traits@D@std@@V?$allocator@D@2@@1@@Z 004afca0 f i AGKWindows:CharacterSetECI.obj
 0001:000aed80       ??$_Buynode@U?$pair@V?$basic_string@DU?$char_traits@D@std@@V?$allocator@D@2@@std@@PAVCharacterSetECI@common@zxing@@@std@@@?$_Tree_val@V?$_Tmap_traits@V?$basic_string@DU?$char_traits@D@std@@V?$allocator@D@2@@std@@PAVCharacterSetECI@common@zxing@@U?$less@V?$basic_string@DU?$char_traits@D@std@@V?$allocator@D@2@@std@@@2@V?$allocator@U?$pair@$$CBV?$basic_string@DU?$char_traits@D@std@@V?$allocator@D@2@@std@@PAVCharacterSetECI@common@zxing@@@std@@@2@$0A@@std@@@std@@QAEPAU_Node@?$_Tree_nod@V?$_Tmap_traits@V?$basic_string@DU?$char_traits@D@std@@V?$allocator@D@2@@std@@PAVCharacterSetECI@common@zxing@@U?$less@V?$basic_string@DU?$char_traits@D@std@@V?$allocator@D@2@@std@@@2@V?$allocator@U?$pair@$$CBV?$basic_string@DU?$char_traits@D@std@@V?$allocator@D@2@@std@@PAVCharacterSetECI@common@zxing@@@std@@@2@$0A@@std@@@1@$$QAU?$pair@V?$basic_string@DU?$char_traits@D@std@@V?$allocator@D@2@@std@@PAVCharacterSetECI@common@zxing@@@1@@Z 004afd80 f i AGKWindows:CharacterSetECI.obj
 0001:000aee60       ??A?$map@V?$basic_string@DU?$char_traits@D@std@@V?$allocator@D@2@@std@@PAVCharacterSetECI@common@zxing@@U?$less@V?$basic_string@DU?$char_traits@D@std@@V?$allocator@D@2@@std@@@2@V?$allocator@U?$pair@$$CBV?$basic_string@DU?$char_traits@D@std@@V?$allocator@D@2@@std@@PAVCharacterSetECI@common@zxing@@@std@@@2@@std@@QAEAAPAVCharacterSetECI@common@zxing@@$$QAV?$basic_string@DU?$char_traits@D@std@@V?$allocator@D@2@@1@@Z 004afe60 f i AGKWindows:CharacterSetECI.obj
 0001:000aef40       ?find@?$_Tree@V?$_Tmap_traits@IV?$basic_string@DU?$char_traits@D@std@@V?$allocator@D@2@@std@@U?$less@I@2@V?$allocator@U?$pair@$$CBIV?$basic_string@DU?$char_traits@D@std@@V?$allocator@D@2@@std@@@std@@@2@$0A@@std@@@std@@QBE?AV?$_Tree_const_iterator@V?$_Tree_val@V?$_Tmap_traits@IV?$basic_string@DU?$char_traits@D@std@@V?$allocator@D@2@@std@@U?$less@I@2@V?$allocator@U?$pair@$$CBIV?$basic_string@DU?$char_traits@D@std@@V?$allocator@D@2@@std@@@std@@@2@$0A@@std@@@std@@@2@ABI@Z 004aff40 f i AGKWindows:StringUtils.obj
 0001:000aefb0       ?guessEncoding@StringUtils@common@zxing@@SA?AV?$basic_string@DU?$char_traits@D@std@@V?$allocator@D@2@@std@@PAEHABV?$map@IV?$basic_string@DU?$char_traits@D@std@@V?$allocator@D@2@@std@@U?$less@I@2@V?$allocator@U?$pair@$$CBIV?$basic_string@DU?$char_traits@D@std@@V?$allocator@D@2@@std@@@std@@@2@@5@@Z 004affb0 f   AGKWindows:StringUtils.obj
 0001:000af210       ?ordinal@ErrorCorrectionLevel@qrcode@zxing@@QBEHXZ 004b0210 f   AGKWindows:ErrorCorrectionLevel.obj
 0001:000af220       ?bits@ErrorCorrectionLevel@qrcode@zxing@@QBEHXZ 004b0220 f   AGKWindows:ErrorCorrectionLevel.obj
 0001:000af230       ?name@ErrorCorrectionLevel@qrcode@zxing@@QBEABV?$basic_string@DU?$char_traits@D@std@@V?$allocator@D@2@@std@@XZ 004b0230 f   AGKWindows:ErrorCorrectionLevel.obj
 0001:000af240       ??BErrorCorrectionLevel@qrcode@zxing@@QBEABV?$basic_string@DU?$char_traits@D@std@@V?$allocator@D@2@@std@@XZ 004b0240 f   AGKWindows:ErrorCorrectionLevel.obj
 0001:000af250       ?forBits@ErrorCorrectionLevel@qrcode@zxing@@SAAAV123@H@Z 004b0250 f   AGKWindows:ErrorCorrectionLevel.obj
 0001:000af2a0       ??0ErrorCorrectionLevel@qrcode@zxing@@AAE@HHPBD@Z 004b02a0 f   AGKWindows:ErrorCorrectionLevel.obj
 0001:000af2f0       ?getCharacterCountBits@Mode@qrcode@zxing@@QAEHPAVVersion@23@@Z 004b02f0 f   AGKWindows:Mode.obj
 0001:000af320       ??0Mode@qrcode@zxing@@AAE@HHHHPBD@Z 004b0320 f   AGKWindows:Mode.obj
 0001:000af380       ?forBits@Mode@qrcode@zxing@@SAAAV123@H@Z 004b0380 f   AGKWindows:Mode.obj
 0001:000af4c0       ??0DataMask@qrcode@zxing@@QAE@XZ 004b04c0 f   AGKWindows:DataMask.obj
 0001:000af4d0       ??1DataMask@qrcode@zxing@@UAE@XZ 004b04d0 f   AGKWindows:DataMask.obj
 0001:000af4e0       ?unmaskBitMatrix@DataMask@qrcode@zxing@@QAEXAAVBitMatrix@3@I@Z 004b04e0 f   AGKWindows:DataMask.obj
 0001:000af520       ?forReference@DataMask@qrcode@zxing@@SAAAV123@H@Z 004b0520 f   AGKWindows:DataMask.obj
 0001:000af570       ?buildDataMasks@DataMask@qrcode@zxing@@SAHXZ 004b0570 f   AGKWindows:DataMask.obj
 0001:000af9a0       ?isMasked@DataMask000@qrcode@zxing@@UAE_NII@Z 004b09a0 f i AGKWindows:DataMask.obj
 0001:000af9c0       ?isMasked@DataMask001@qrcode@zxing@@UAE_NII@Z 004b09c0 f i AGKWindows:DataMask.obj
 0001:000af9d0       ?isMasked@DataMask010@qrcode@zxing@@UAE_NII@Z 004b09d0 f i AGKWindows:DataMask.obj
 0001:000af9f0       ?isMasked@DataMask011@qrcode@zxing@@UAE_NII@Z 004b09f0 f i AGKWindows:DataMask.obj
 0001:000afa10       ?isMasked@DataMask100@qrcode@zxing@@UAE_NII@Z 004b0a10 f i AGKWindows:DataMask.obj
 0001:000afa30       ?isMasked@DataMask101@qrcode@zxing@@UAE_NII@Z 004b0a30 f i AGKWindows:DataMask.obj
 0001:000afa60       ?isMasked@DataMask110@qrcode@zxing@@UAE_NII@Z 004b0a60 f i AGKWindows:DataMask.obj
 0001:000afa80       ?isMasked@DataMask111@qrcode@zxing@@UAE_NII@Z 004b0a80 f i AGKWindows:DataMask.obj
 0001:000afab0       ??$_Uninit_move@PAV?$Ref@VDataMask@qrcode@zxing@@@zxing@@PAV12@V?$allocator@V?$Ref@VDataMask@qrcode@zxing@@@zxing@@@std@@V12@@std@@YAPAV?$Ref@VDataMask@qrcode@zxing@@@zxing@@PAV12@00AAV?$allocator@V?$Ref@VDataMask@qrcode@zxing@@@zxing@@@0@0U_Nonscalar_ptr_iterator_tag@0@@Z 004b0ab0 f i AGKWindows:DataMask.obj
 0001:000afab0       ??$_Uninit_move@PAV?$Ref@VVersion@qrcode@zxing@@@zxing@@PAV12@V?$allocator@V?$Ref@VVersion@qrcode@zxing@@@zxing@@@std@@V12@@std@@YAPAV?$Ref@VVersion@qrcode@zxing@@@zxing@@PAV12@00AAV?$allocator@V?$Ref@VVersion@qrcode@zxing@@@zxing@@@0@0U_Nonscalar_ptr_iterator_tag@0@@Z 004b0ab0 f i AGKWindows:Version.obj
 0001:000afab0       ??$_Uninit_move@PAV?$Ref@VGF256Poly@zxing@@@zxing@@PAV12@V?$allocator@V?$Ref@VGF256Poly@zxing@@@zxing@@@std@@V12@@std@@YAPAV?$Ref@VGF256Poly@zxing@@@zxing@@PAV12@00AAV?$allocator@V?$Ref@VGF256Poly@zxing@@@zxing@@@0@0U_Nonscalar_ptr_iterator_tag@0@@Z 004b0ab0 f i AGKWindows:ReedSolomonDecoder.obj
 0001:000afab0       ??$_Uninit_move@PAV?$Ref@VFinderPattern@qrcode@zxing@@@zxing@@PAV12@V?$allocator@V?$Ref@VFinderPattern@qrcode@zxing@@@zxing@@@std@@V12@@std@@YAPAV?$Ref@VFinderPattern@qrcode@zxing@@@zxing@@PAV12@00AAV?$allocator@V?$Ref@VFinderPattern@qrcode@zxing@@@zxing@@@0@0U_Nonscalar_ptr_iterator_tag@0@@Z 004b0ab0 f i AGKWindows:FinderPatternFinder.obj
 0001:000afab0       ??$_Uninit_move@PAV?$Ref@VResultPoint@zxing@@@zxing@@PAV12@V?$allocator@V?$Ref@VResultPoint@zxing@@@zxing@@@std@@V12@@std@@YAPAV?$Ref@VResultPoint@zxing@@@zxing@@PAV12@00AAV?$allocator@V?$Ref@VResultPoint@zxing@@@zxing@@@0@0U_Nonscalar_ptr_iterator_tag@0@@Z 004b0ab0 f i AGKWindows:Detector.obj
 0001:000afab0       ??$_Uninit_move@PAV?$Ref@VDataBlock@qrcode@zxing@@@zxing@@PAV12@V?$allocator@V?$Ref@VDataBlock@qrcode@zxing@@@zxing@@@std@@V12@@std@@YAPAV?$Ref@VDataBlock@qrcode@zxing@@@zxing@@PAV12@00AAV?$allocator@V?$Ref@VDataBlock@qrcode@zxing@@@zxing@@@0@0U_Nonscalar_ptr_iterator_tag@0@@Z 004b0ab0 f i AGKWindows:DataBlock.obj
 0001:000afba0       ??0AlignmentPattern@qrcode@zxing@@QAE@MMM@Z 004b0ba0 f   AGKWindows:AlignmentPattern.obj
 0001:000afbd0       ?aboutEquals@AlignmentPattern@qrcode@zxing@@QBE_NMMM@Z 004b0bd0 f   AGKWindows:AlignmentPattern.obj
 0001:000afc90       ?combineEstimate@AlignmentPattern@qrcode@zxing@@QBE?AV?$Ref@VAlignmentPattern@qrcode@zxing@@@3@MMM@Z 004b0c90 f   AGKWindows:AlignmentPattern.obj
 0001:000afd60       ??0FinderPattern@qrcode@zxing@@QAE@MMM@Z 004b0d60 f   AGKWindows:FinderPattern.obj
 0001:000afda0       ??0FinderPattern@qrcode@zxing@@QAE@MMMH@Z 004b0da0 f   AGKWindows:FinderPattern.obj
 0001:000afde0       ?getCount@FinderPattern@qrcode@zxing@@QBEHXZ 004b0de0 f   AGKWindows:FinderPattern.obj
 0001:000afdf0       ?getEstimatedModuleSize@FinderPattern@qrcode@zxing@@QBEMXZ 004b0df0 f   AGKWindows:FinderPattern.obj
 0001:000afe00       ?incrementCount@FinderPattern@qrcode@zxing@@QAEXXZ 004b0e00 f   AGKWindows:FinderPattern.obj
 0001:000afe10       ?aboutEquals@FinderPattern@qrcode@zxing@@QBE_NMMM@Z 004b0e10 f   AGKWindows:FinderPattern.obj
 0001:000afed0       ?combineEstimate@FinderPattern@qrcode@zxing@@QBE?AV?$Ref@VFinderPattern@qrcode@zxing@@@3@MMM@Z 004b0ed0 f   AGKWindows:FinderPattern.obj
 0001:000affd0       ??_EFinderPattern@qrcode@zxing@@UAEPAXI@Z 004b0fd0 f i AGKWindows:FinderPattern.obj
 0001:000affd0       ??_GFinderPattern@qrcode@zxing@@UAEPAXI@Z 004b0fd0 f i AGKWindows:FinderPattern.obj
 0001:000affd0       ??_EAlignmentPattern@qrcode@zxing@@UAEPAXI@Z 004b0fd0 f i AGKWindows:AlignmentPattern.obj
 0001:000affd0       ??_GAlignmentPattern@qrcode@zxing@@UAEPAXI@Z 004b0fd0 f i AGKWindows:AlignmentPattern.obj
 0001:000b0000       _gzbuffer                  004b1000 f   AGKWindows:gzlib.obj
 0001:000b0040       _gztell64                  004b1040 f   AGKWindows:gzlib.obj
 0001:000b0090       _gztell                    004b1090 f   AGKWindows:gzlib.obj
 0001:000b00f0       _gzoffset64                004b10f0 f   AGKWindows:gzlib.obj
 0001:000b0140       _gzoffset                  004b1140 f   AGKWindows:gzlib.obj
 0001:000b01c0       _gzeof                     004b11c0 f   AGKWindows:gzlib.obj
 0001:000b01f0       _gzerror                   004b11f0 f   AGKWindows:gzlib.obj
 0001:000b0230       _gz_error                  004b1230 f   AGKWindows:gzlib.obj
 0001:000b05e0       _gzopen                    004b15e0 f   AGKWindows:gzlib.obj
 0001:000b0600       _gzopen64                  004b1600 f   AGKWindows:gzlib.obj
 0001:000b0620       _gzdopen                   004b1620 f   AGKWindows:gzlib.obj
 0001:000b0670       _gzrewind                  004b1670 f   AGKWindows:gzlib.obj
 0001:000b06c0       _gzseek64                  004b16c0 f   AGKWindows:gzlib.obj
 0001:000b0850       _gzseek                    004b1850 f   AGKWindows:gzlib.obj
 0001:000b0890       _gzclearerr                004b1890 f   AGKWindows:gzlib.obj
 0001:000b08e0       ??0ECI@common@zxing@@IAE@H@Z 004b18e0 f   AGKWindows:ECI.obj
 0001:000b08f0       ?getValue@ECI@common@zxing@@QBEHXZ 004b18f0 f   AGKWindows:ECI.obj
 0001:000b0900       ?getECIByValue@ECI@common@zxing@@SAPAV123@H@Z 004b1900 f   AGKWindows:ECI.obj
 0001:000b09d0       ??0ResultPoint@zxing@@QAE@XZ 004b19d0 f   AGKWindows:ResultPoint.obj
 0001:000b09f0       ??0ResultPoint@zxing@@QAE@MM@Z 004b19f0 f   AGKWindows:ResultPoint.obj
 0001:000b0a20       ??1ResultPoint@zxing@@UAE@XZ 004b1a20 f   AGKWindows:ResultPoint.obj
 0001:000b0a30       ?getX@ResultPoint@zxing@@UBEMXZ 004b1a30 f   AGKWindows:ResultPoint.obj
 0001:000b0a40       ?getY@ResultPoint@zxing@@UBEMXZ 004b1a40 f   AGKWindows:ResultPoint.obj
 0001:000b0a50       ?distance@ResultPoint@zxing@@SAMMMMM@Z 004b1a50 f   AGKWindows:ResultPoint.obj
 0001:000b0a80       ?equals@ResultPoint@zxing@@QAE_NV?$Ref@VResultPoint@zxing@@@2@@Z 004b1a80 f   AGKWindows:ResultPoint.obj
 0001:000b0b50       ?distance@ResultPoint@zxing@@SAMV?$Ref@VResultPoint@zxing@@@2@0@Z 004b1b50 f   AGKWindows:ResultPoint.obj
 0001:000b0c90       ?crossProductZ@ResultPoint@zxing@@CAMV?$Ref@VResultPoint@zxing@@@2@00@Z 004b1c90 f   AGKWindows:ResultPoint.obj
 0001:000b0e10       ?orderBestPatterns@ResultPoint@zxing@@SAXAAV?$vector@V?$Ref@VResultPoint@zxing@@@zxing@@V?$allocator@V?$Ref@VResultPoint@zxing@@@zxing@@@std@@@std@@@Z 004b1e10 f   AGKWindows:ResultPoint.obj
 0001:000b139e       ??1out_of_range@std@@UAE@XZ 004b239e f i libcpmt:xthrow.obj
 0001:000b139e       ??1length_error@std@@UAE@XZ 004b239e f i libcpmt:xthrow.obj
 0001:000b13a3       ??0logic_error@std@@QAE@ABV01@@Z 004b23a3 f i libcpmt:xthrow.obj
 0001:000b13c0       ?_Xlength_error@std@@YAXPBD@Z 004b23c0 f   libcpmt:xthrow.obj
 0001:000b13f0       ??0length_error@std@@QAE@ABV01@@Z 004b23f0 f i libcpmt:xthrow.obj
 0001:000b140d       ?_Xout_of_range@std@@YAXPBD@Z 004b240d f   libcpmt:xthrow.obj
 0001:000b143d       ??0out_of_range@std@@QAE@ABV01@@Z 004b243d f i libcpmt:xthrow.obj
 0001:000b145a       ??_Glength_error@std@@UAEPAXI@Z 004b245a f i libcpmt:xthrow.obj
 0001:000b145a       ??_Glogic_error@std@@UAEPAXI@Z 004b245a f i libcpmt:xthrow.obj
 0001:000b145a       ??_Elogic_error@std@@UAEPAXI@Z 004b245a f i libcpmt:xthrow.obj
 0001:000b145a       ??_Elength_error@std@@UAEPAXI@Z 004b245a f i libcpmt:xthrow.obj
 0001:000b145a       ??_Gout_of_range@std@@UAEPAXI@Z 004b245a f i libcpmt:xthrow.obj
 0001:000b145a       ??_Eout_of_range@std@@UAEPAXI@Z 004b245a f i libcpmt:xthrow.obj
 0001:000b147b       ??_U@YAPAXI@Z              004b247b f   libcpmt:newaop.obj
 0001:000b1486       ??8error_condition@std@@QBE_NABV01@@Z 004b2486 f i libcpmt:syserror.obj
 0001:000b14a7       ?equivalent@error_category@std@@UBE_NHABVerror_condition@2@@Z 004b24a7 f i libcpmt:syserror.obj
 0001:000b14c8       ?equivalent@error_category@std@@UBE_NABVerror_code@2@H@Z 004b24c8 f i libcpmt:syserror.obj
 0001:000b14e7       ?name@_Generic_error_category@std@@UBEPBDXZ 004b24e7 f i libcpmt:syserror.obj
 0001:000b14e7       ?name@_Iostream_error_category@std@@UBEPBDXZ 004b24e7 f i libcpmt:syserror.obj
 0001:000b14eb       ?name@_System_error_category@std@@UBEPBDXZ 004b24eb f i libcpmt:syserror.obj
 0001:000b14ef       ?default_error_condition@error_category@std@@UBE?AVerror_condition@2@H@Z 004b24ef f i libcpmt:syserror.obj
 0001:000b14ef       ?default_error_condition@_System_error_category@std@@UBE?AVerror_condition@2@H@Z 004b24ef f i libcpmt:syserror.obj
 0001:000b1503       ?iostream_category@std@@YAABVerror_category@1@XZ 004b2503 f   libcpmt:syserror.obj
 0001:000b1509       ??_E_Iostream_error_category@std@@UAEPAXI@Z 004b2509 f i libcpmt:syserror.obj
 0001:000b1509       ??_E_System_error_category@std@@UAEPAXI@Z 004b2509 f i libcpmt:syserror.obj
 0001:000b1509       ??_Gerror_category@std@@UAEPAXI@Z 004b2509 f i libcpmt:syserror.obj
 0001:000b1509       ??_G_System_error_category@std@@UAEPAXI@Z 004b2509 f i libcpmt:syserror.obj
 0001:000b1509       ??_G_Generic_error_category@std@@UAEPAXI@Z 004b2509 f i libcpmt:syserror.obj
 0001:000b1509       ??_Eerror_category@std@@UAEPAXI@Z 004b2509 f i libcpmt:syserror.obj
 0001:000b1509       ??_E_Generic_error_category@std@@UAEPAXI@Z 004b2509 f i libcpmt:syserror.obj
 0001:000b1509       ??_G_Iostream_error_category@std@@UAEPAXI@Z 004b2509 f i libcpmt:syserror.obj
 0001:000b152b       ?message@_Generic_error_category@std@@UBE?AV?$basic_string@DU?$char_traits@D@std@@V?$allocator@D@2@@2@H@Z 004b252b f i libcpmt:syserror.obj
 0001:000b154e       ?message@_Iostream_error_category@std@@UBE?AV?$basic_string@DU?$char_traits@D@std@@V?$allocator@D@2@@2@H@Z 004b254e f i libcpmt:syserror.obj
 0001:000b157e       ?uncaught_exception@std@@YA_NXZ 004b257e f   libcpmt:uncaught.obj
 0001:000b1583       __Getcvt                   004b2583 f   libcpmt:xwctomb.obj
 0001:000b1599       ??0_Init_locks@std@@QAE@XZ 004b2599 f   libcpmt:xlock.obj
 0001:000b15ca       ??1_Init_locks@std@@QAE@XZ 004b25ca f   libcpmt:xlock.obj
 0001:000b15f3       ??0_Lockit@std@@QAE@H@Z    004b25f3 f   libcpmt:xlock.obj
 0001:000b161b       ??1_Lockit@std@@QAE@XZ     004b261b f   libcpmt:xlock.obj
 0001:000b1632       ??1_Fac_node@std@@QAE@XZ   004b2632 f i libcpmt:locale0.obj
 0001:000b1647       ?_Facet_Register@facet@locale@std@@CAXPAV123@@Z 004b2647 f   libcpmt:locale0.obj
 0001:000b1671       __Deletegloballocale       004b2671 f   libcpmt:locale0.obj
 0001:000b16be       ?_Getgloballocale@locale@std@@CAPAV_Locimp@12@XZ 004b26be f   libcpmt:locale0.obj
 0001:000b16c4       ?_Setgloballocale@locale@std@@CAXPAX@Z 004b26c4 f   libcpmt:locale0.obj
 0001:000b16ee       ?_Locimp_dtor@_Locimp@locale@std@@CAXPAV123@@Z 004b26ee f   libcpmt:locale0.obj
 0001:000b174e       ??1_Fac_tidy_reg_t@std@@QAE@XZ 004b274e f i libcpmt:locale0.obj
 0001:000b179c       ?_Locinfo_dtor@_Locinfo@std@@SAXPAV12@@Z 004b279c f   libcpmt:locale0.obj
 0001:000b17b7       ??4?$_Yarn@D@std@@QAEAAV01@PBD@Z 004b27b7 f i libcpmt:locale0.obj
 0001:000b180f       ?_Locinfo_ctor@_Locinfo@std@@SAXPAV12@PBD@Z 004b280f f   libcpmt:locale0.obj
 0001:000b185c       ??0_Locimp@locale@std@@AAE@_N@Z 004b285c f i libcpmt:locale0.obj
 0001:000b189b       ??1_Locimp@locale@std@@MAE@XZ 004b289b f i libcpmt:locale0.obj
 0001:000b18de       ??_E_Locimp@locale@std@@MAEPAXI@Z 004b28de f i libcpmt:locale0.obj
 0001:000b18de       ??_G_Locimp@locale@std@@MAEPAXI@Z 004b28de f i libcpmt:locale0.obj
 0001:000b18ff       ?_Init@locale@std@@CAPAV_Locimp@12@XZ 004b28ff f   libcpmt:locale0.obj
 0001:000b198e       __Tolower                  004b298e f   libcpmt:_tolower.obj
 0001:000b1a9b       __Getctype                 004b2a9b f   libcpmt:_tolower.obj
 0001:000b1afb       ?_Callfns@ios_base@std@@AAEXW4event@12@@Z 004b2afb f i libcpmt:ios.obj
 0001:000b1b22       ?_Tidy@ios_base@std@@AAEXXZ 004b2b22 f i libcpmt:ios.obj
 0001:000b1b66       ?_Ios_base_dtor@ios_base@std@@CAXPAV12@@Z 004b2b66 f   libcpmt:ios.obj
 0001:000b1ba4       __Toupper                  004b2ba4 f   libcpmt:_toupper.obj
 0001:000b1cb6       ??0_Mutex@std@@QAE@XZ      004b2cb6 f   libcpmt:xmutex.obj
 0001:000b1cd0       ??1_Mutex@std@@QAE@XZ      004b2cd0 f   libcpmt:xmutex.obj
 0001:000b1ce7       ?_Lock@_Mutex@std@@QAEXXZ  004b2ce7 f   libcpmt:xmutex.obj
 0001:000b1cf0       ?_Unlock@_Mutex@std@@QAEXXZ 004b2cf0 f   libcpmt:xmutex.obj
 0001:000b1d4c       __Mtxinit                  004b2d4c f   libcpmt:xmtx.obj
 0001:000b1d5c       __Mtxdst                   004b2d5c f   libcpmt:xmtx.obj
 0001:000b1d6c       __Mtxlock                  004b2d6c f   libcpmt:xmtx.obj
 0001:000b1d7c       __Mtxunlock                004b2d7c f   libcpmt:xmtx.obj
 0001:000b1d8c       ?_Atexit@@YAXP6AXXZ@Z      004b2d8c f   libcpmt:iosptrs.obj
 0001:000b1dbe       ??1_Init_atexit@@QAE@XZ    004b2dbe f i libcpmt:iosptrs.obj
 0001:000b1de9       @__security_check_cookie@4 004b2de9 f   LIBCMT:secchk.obj
 0001:000b1df8       ??0exception@std@@QAE@XZ   004b2df8 f   LIBCMT:stdexcpt.obj
 0001:000b1e09       ??0exception@std@@QAE@ABQBDH@Z 004b2e09 f   LIBCMT:stdexcpt.obj
 0001:000b1e26       ?what@exception@std@@UBEPBDXZ 004b2e26 f   LIBCMT:stdexcpt.obj
 0001:000b1e33       ?_Copy_str@exception@std@@AAEXPBD@Z 004b2e33 f   LIBCMT:stdexcpt.obj
 0001:000b1e73       ?_Tidy@exception@std@@AAEXXZ 004b2e73 f   LIBCMT:stdexcpt.obj
 0001:000b1e91       ??0exception@std@@QAE@ABQBD@Z 004b2e91 f   LIBCMT:stdexcpt.obj
 0001:000b1eb8       ??4exception@std@@QAEAAV01@ABV01@@Z 004b2eb8 f   LIBCMT:stdexcpt.obj
 0001:000b1eed       ??1exception@std@@UAE@XZ   004b2eed f   LIBCMT:stdexcpt.obj
 0001:000b1eed       ??1bad_cast@std@@UAE@XZ    004b2eed f   LIBCMT:stdexcpt.obj
 0001:000b1ef8       ??0bad_cast@std@@QAE@PBD@Z 004b2ef8 f   LIBCMT:stdexcpt.obj
 0001:000b1f16       ??_Gbad_cast@std@@UAEPAXI@Z 004b2f16 f i LIBCMT:stdexcpt.obj
 0001:000b1f16       ??_Eexception@std@@UAEPAXI@Z 004b2f16 f i LIBCMT:stdexcpt.obj
 0001:000b1f16       ??_Ebad_cast@std@@UAEPAXI@Z 004b2f16 f i LIBCMT:stdexcpt.obj
 0001:000b1f16       ??_Gexception@std@@UAEPAXI@Z 004b2f16 f i LIBCMT:stdexcpt.obj
 0001:000b1f3d       ??0exception@std@@QAE@ABV01@@Z 004b2f3d f   LIBCMT:stdexcpt.obj
 0001:000b1f62       ??0bad_cast@std@@QAE@ABV01@@Z 004b2f62 f   LIBCMT:stdexcpt.obj
 0001:000b1f80       _memmove                   004b2f80 f   LIBCMT:memmove.obj
 0001:000b22e1       ??3@YAXPAX@Z               004b32e1 f   LIBCMT:delete.obj
 0001:000b22ec       ??1type_info@@UAE@XZ       004b32ec f   LIBCMT:typinfo.obj
 0001:000b22fc       ??_Etype_info@@UAEPAXI@Z   004b32fc f i LIBCMT:typinfo.obj
 0001:000b22fc       ??_Gtype_info@@UAEPAXI@Z   004b32fc f i LIBCMT:typinfo.obj
 0001:000b231d       ??8type_info@@QBE_NABV0@@Z 004b331d f   LIBCMT:typinfo.obj
 0001:000b233d       ??2@YAPAXI@Z               004b333d f   LIBCMT:new.obj
 0001:000b23bd       _sprintf                   004b33bd f   LIBCMT:sprintf.obj
 0001:000b2441       _sprintf_s                 004b3441 f   LIBCMT:sprintf.obj
 0001:000b245f       __validdrive               004b345f f   LIBCMT:getcwd.obj
 0001:000b24b9       __getdcwd_nolock           004b34b9 f   LIBCMT:getcwd.obj
 0001:000b25dd       __getcwd                   004b35dd f   LIBCMT:getcwd.obj
 0001:000b2626       ?__ArrayUnwind@@YGXPAXIHP6EX0@Z@Z 004b3626 f   LIBCMT:ehvecdtr.obj
 0001:000b2684       ??_M@YGXPAXIHP6EX0@Z@Z     004b3684 f   LIBCMT:ehvecdtr.obj
 0001:000b279d       ___onexitinit              004b379d f   LIBCMT:onexit.obj
 0001:000b27ce       __onexit                   004b37ce f   LIBCMT:onexit.obj
 0001:000b280a       _atexit                    004b380a f   LIBCMT:onexit.obj
 0001:000b2821       ??_L@YGXPAXIHP6EX0@Z1@Z    004b3821 f   LIBCMT:ehvecctr.obj
 0001:000b2886       ??0_LocaleUpdate@@QAE@PAUlocaleinfo_struct@@@Z 004b3886 f i LIBCMT:atof.obj
 0001:000b290d       __atof_l                   004b390d f   LIBCMT:atof.obj
 0001:000b29b8       _atof                      004b39b8 f   LIBCMT:atof.obj
 0001:000b2b61       _WinMainCRTStartup         004b3b61 f   LIBCMT:wincrt0.obj
 0001:000b2b6b       __cfltcvt_init             004b3b6b f   LIBCMT:_fpinit_.obj
 0001:000b2bcb       __fpmath                   004b3bcb f   LIBCMT:_fpinit_.obj
 0001:000b2bf0       _cos                       004b3bf0 f   LIBCMT:_cos_.obj
 0001:000b2c30       __CIcos                    004b3c30 f   LIBCMT:_cos_.obj
 0001:000b2c6b       __CIcos_default            004b3c6b f   LIBCMT:_cos_.obj
 0001:000b2c7f       __cos_default              004b3c7f     LIBCMT:_cos_.obj
 0001:000b2d20       _sin                       004b3d20 f   LIBCMT:_sin_.obj
 0001:000b2d60       __CIsin                    004b3d60 f   LIBCMT:_sin_.obj
 0001:000b2d9b       __CIsin_default            004b3d9b f   LIBCMT:_sin_.obj
 0001:000b2daf       __sin_default              004b3daf     LIBCMT:_sin_.obj
 0001:000b2e49       ?_JumpToContinuation@@YGXPAXPAUEHRegistrationNode@@@Z 004b3e49 f   LIBCMT:_trnsctrl_.obj
 0001:000b2e7b       ?_CallMemberFunction1@@YGXPAX00@Z 004b3e7b f   LIBCMT:_trnsctrl_.obj
 0001:000b2e7b       ?_CallMemberFunction0@@YGXPAX0@Z 004b3e7b f   LIBCMT:_trnsctrl_.obj
 0001:000b2e7b       ?_CallMemberFunction2@@YGXPAX00H@Z 004b3e7b f   LIBCMT:_trnsctrl_.obj
 0001:000b2e82       ?_UnwindNestedFrames@@YGXPAUEHRegistrationNode@@PAUEHExceptionRecord@@@Z 004b3e82 f   LIBCMT:_trnsctrl_.obj
 0001:000b2ed6       ___CxxFrameHandler3        004b3ed6 f   LIBCMT:_trnsctrl_.obj
 0001:000b2f3f       ?_CallSETranslator@@YAHPAUEHExceptionRecord@@PAUEHRegistrationNode@@PAX2PBU_s_FuncInfo@@H1@Z 004b3f3f f   LIBCMT:_trnsctrl_.obj
 0001:000b30b5       ?_GetRangeOfTrysToCheck@@YAPBU_s_TryBlockMapEntry@@PBU_s_FuncInfo@@HHPAI1@Z 004b40b5 f   LIBCMT:_trnsctrl_.obj
 0001:000b3128       __CreateFrameInfo          004b4128 f   LIBCMT:_trnsctrl_.obj
 0001:000b3154       __IsExceptionObjectToBeDestroyed 004b4154 f   LIBCMT:_trnsctrl_.obj
 0001:000b317b       __FindAndUnlinkFrame       004b417b f   LIBCMT:_trnsctrl_.obj
 0001:000b31cd       ?_CallCatchBlock2@@YAPAXPAUEHRegistrationNode@@PBU_s_FuncInfo@@PAXHK@Z 004b41cd f   LIBCMT:_trnsctrl_.obj
 0001:000b322d       __purecall                 004b422d f   LIBCMT:purevirt.obj
 0001:000b3482       _strtol                    004b4482 f   LIBCMT:strtol.obj
 0001:000b34b0       _memset                    004b44b0 f   LIBCMT:memset.obj
 0001:000b3530       __allmul                   004b4530 f   LIBCMT:llmul.obj
 0001:000b3570       __alldiv                   004b4570 f   LIBCMT:lldiv.obj
 0001:000b361a       ??_V@YAXPAX@Z              004b461a f   LIBCMT:delete2.obj
 0001:000b3630       __ftol2_sse                004b4630 f   LIBCMT:ftol2.obj
 0001:000b3639       __ftol2_pentium4           004b4639 f   LIBCMT:ftol2.obj
 0001:000b364c       __ftol2_sse_excpt          004b464c f   LIBCMT:ftol2.obj
 0001:000b3666       __ftol2                    004b4666 f   LIBCMT:ftol2.obj
 0001:000b36db       __CxxThrowException@8      004b46db f   LIBCMT:throw.obj
 0001:000b3730       _strcspn                   004b4730 f   LIBCMT:strcspn.obj
 0001:000b3776       _strncmp                   004b4776 f   LIBCMT:strncmp.obj
 0001:000b3840       _memcpy                    004b4840 f   LIBCMT:memcpy.obj
 0001:000b3ba1       _malloc                    004b4ba1 f   LIBCMT:malloc.obj
 0001:000b3c35       _free                      004b4c35 f   LIBCMT:free.obj
 0001:000b3c6f       _memcpy_s                  004b4c6f f   LIBCMT:memcpy_s.obj
 0001:000b3ce4       _wmemset                   004b4ce4 f i LIBCMT:wmemcpy_s.obj
 0001:000b3d10       _wmemcpy_s                 004b4d10 f   LIBCMT:wmemcpy_s.obj
 0001:000b3d88       __wcsicmp_l                004b4d88 f   LIBCMT:wcsicmp.obj
 0001:000b3e8b       __wcsicmp                  004b4e8b f   LIBCMT:wcsicmp.obj
 0001:000b3f16       _wcsspn                    004b4f16 f   LIBCMT:wcsspn.obj
 0001:000b3f5d       _wcscspn                   004b4f5d f   LIBCMT:wcscspn.obj
 0001:000b3fb0       _acos                      004b4fb0 f   LIBCMT:_acos_.obj
 0001:000b3ff0       __CIacos                   004b4ff0 f   LIBCMT:_acos_.obj
 0001:000b402b       __CIacos_default           004b502b f   LIBCMT:_acos_.obj
 0001:000b403f       __acos_default             004b503f     LIBCMT:_acos_.obj
 0001:000b4100       _asin                      004b5100 f   LIBCMT:_asin_.obj
 0001:000b4140       __CIasin                   004b5140 f   LIBCMT:_asin_.obj
 0001:000b417b       __CIasin_default           004b517b f   LIBCMT:_asin_.obj
 0001:000b418f       __asin_default             004b518f     LIBCMT:_asin_.obj
 0001:000b4250       _atan                      004b5250 f   LIBCMT:_atan_.obj
 0001:000b4290       __CIatan                   004b5290 f   LIBCMT:_atan_.obj
 0001:000b42cb       __CIatan_default           004b52cb f   LIBCMT:_atan_.obj
 0001:000b42df       __atan_default             004b52df     LIBCMT:_atan_.obj
 0001:000b4370       _ceil                      004b5370 f   LIBCMT:_ceil_pentium4_.obj
 0001:000b43b0       __ceil_pentium4            004b53b0 f   LIBCMT:_ceil_pentium4_.obj
 0001:000b4490       _floor                     004b5490 f   LIBCMT:_floor_pentium4_.obj
 0001:000b44d0       __floor_pentium4           004b54d0 f   LIBCMT:_floor_pentium4_.obj
 0001:000b45c0       _fmod                      004b55c0 f   LIBCMT:_87fmod_.obj
 0001:000b45ca       __CIfmod                   004b55ca f   LIBCMT:_87fmod_.obj
 0001:000b45f0       _log10                     004b55f0 f   LIBCMT:_log10_.obj
 0001:000b4630       __CIlog10                  004b5630 f   LIBCMT:_log10_.obj
 0001:000b466b       __CIlog10_default          004b566b f   LIBCMT:_log10_.obj
 0001:000b467f       __log10_default            004b567f     LIBCMT:_log10_.obj
 0001:000b4740       __CIsqrt                   004b5740 f   LIBCMT:_sqrt_.obj
 0001:000b4754       _sqrt                      004b5754     LIBCMT:_sqrt_.obj
 0001:000b4800       _tan                       004b5800 f   LIBCMT:_tan_.obj
 0001:000b4840       __CItan                    004b5840 f   LIBCMT:_tan_.obj
 0001:000b487b       __CItan_default            004b587b f   LIBCMT:_tan_.obj
 0001:000b488f       __tan_default              004b588f     LIBCMT:_tan_.obj
 0001:000b4a07       __stat64i32                004b5a07 f   LIBCMT:stati32.obj
 0001:000b4e5e       __localtime64_s            004b5e5e f   LIBCMT:loctim64.obj
 0001:000b50e6       __localtime64              004b60e6 f   LIBCMT:loctim64.obj
 0001:000b510d       __time64                   004b610d f   LIBCMT:time64.obj
 0001:000b515e       __endthreadex              004b615e f   LIBCMT:threadex.obj
 0001:000b5223       __beginthreadex            004b6223 f   LIBCMT:threadex.obj
 0001:000b52d0       _strstr                    004b62d0 f   LIBCMT:strstr.obj
 0001:000b5360       __alloca_probe_16          004b6360 f   LIBCMT:alloca16.obj
 0001:000b5376       __alloca_probe_8           004b6376     LIBCMT:alloca16.obj
 0001:000b538c       _atol                      004b638c f   LIBCMT:atox.obj
 0001:000b53a2       _atoi                      004b63a2 f   LIBCMT:atox.obj
 0001:000b53c0       _strchr                    004b63c0 f   LIBCMT:strchr.obj
 0001:000b53c6       ___from_strstr_to_strchr   004b63c6     LIBCMT:strchr.obj
 0001:000b547e       __fclose_nolock            004b647e f   LIBCMT:fclose.obj
 0001:000b54eb       _fclose                    004b64eb f   LIBCMT:fclose.obj
 0001:000b555f       _fsetpos                   004b655f f   LIBCMT:fsetpos.obj
 0001:000b559a       __ftell_nolock             004b659a f   LIBCMT:ftell.obj
 0001:000b572e       _ftell                     004b672e f   LIBCMT:ftell.obj
 0001:000b5793       __fseek_nolock             004b6793 f   LIBCMT:fseek.obj
 0001:000b581d       _fseek                     004b681d f   LIBCMT:fseek.obj
 0001:000b5899       _fgetpos                   004b6899 f   LIBCMT:fgetpos.obj
 0001:000b58f4       _rewind                    004b68f4 f   LIBCMT:rewind.obj
 0001:000b59b2       _feof                      004b69b2 f   LIBCMT:feoferr.obj
 0001:000b59da       _ferror                    004b69da f   LIBCMT:feoferr.obj
 0001:000b5a02       __fwrite_nolock            004b6a02 f   LIBCMT:fwrite.obj
 0001:000b5b59       _fwrite                    004b6b59 f   LIBCMT:fwrite.obj
 0001:000b5bd3       __fread_nolock_s           004b6bd3 f   LIBCMT:fread.obj
 0001:000b5d8f       _fread_s                   004b6d8f f   LIBCMT:fread.obj
 0001:000b5e1d       _fread                     004b6e1d f   LIBCMT:fread.obj
 0001:000b5e3a       _strcpy_s                  004b6e3a f   LIBCMT:strcpy_s.obj
 0001:000b5e99       _memmove_s                 004b6e99 f   LIBCMT:memmove_s.obj
 0001:000b5eec       _calloc                    004b6eec f   LIBCMT:calloc.obj
 0001:000b5f2c       __recalloc                 004b6f2c f   LIBCMT:recalloc.obj
 0001:000b5f9d       __resetstkoflw             004b6f9d f   LIBCMT:resetstk.obj
 0001:000b6090       __except_handler4          004b7090 f   LIBCMT:chandler4.obj
 0001:000b6220       _strncpy                   004b7220 f   LIBCMT:strncpy.obj
 0001:000b6344       _strncpy_s                 004b7344 f   LIBCMT:strncpy_s.obj
 0001:000b6400       _strpbrk                   004b7400 f   LIBCMT:strpbrk.obj
 0001:000b6440       _strcat_s                  004b7440 f   LIBCMT:strcat_s.obj
 0001:000b64ad       __fsopen                   004b74ad f   LIBCMT:fopen.obj
 0001:000b6569       _fopen                     004b7569 f   LIBCMT:fopen.obj
 0001:000b6580       __splitpath_s              004b7580 f   LIBCMT:splitpath_s.obj
 0001:000b677d       __strnicmp_l               004b777d f   LIBCMT:strnicmp.obj
 0001:000b685f       __strnicmp                 004b785f f   LIBCMT:strnicmp.obj
 0001:000b68c0       _strncat                   004b78c0 f   LIBCMT:strncat.obj
 0001:000b69f5       __vsprintf_l               004b79f5 f   LIBCMT:vsprintf.obj
 0001:000b6a79       _vsprintf                  004b7a79 f   LIBCMT:vsprintf.obj
 0001:000b6aa0       _atan2                     004b7aa0 f   LIBCMT:_87ctriga_.obj
 0001:000b6aaa       __CIatan2                  004b7aaa f   LIBCMT:_87ctriga_.obj
 0001:000b6ac0       __alloca_probe             004b7ac0     LIBCMT:chkstk.obj
 0001:000b6ac0       __chkstk                   004b7ac0 f   LIBCMT:chkstk.obj
 0001:000b6aeb       _localeconv                004b7aeb f   LIBCMT:lconv.obj
 0001:000b6b20       _memchr                    004b7b20 f   LIBCMT:memchr.obj
 0001:000b6bcd       _realloc                   004b7bcd f   LIBCMT:realloc.obj
 0001:000b6c7a       _setvbuf                   004b7c7a f   LIBCMT:setvbuf.obj
 0001:000b6e00       _qsort                     004b7e00 f   LIBCMT:qsort.obj
 0001:000b708b       _fprintf                   004b808b f   LIBCMT:fprintf.obj
 0001:000b7197       ___iob_func                004b8197 f   LIBCMT:_file.obj
 0001:000b719d       ___initstdio               004b819d f   LIBCMT:_file.obj
 0001:000b724e       ___endstdio                004b824e f   LIBCMT:_file.obj
 0001:000b726e       __lock_file                004b826e f   LIBCMT:_file.obj
 0001:000b72af       __lock_file2               004b82af f   LIBCMT:_file.obj
 0001:000b72e1       __unlock_file              004b82e1 f   LIBCMT:_file.obj
 0001:000b731d       __unlock_file2             004b831d f   LIBCMT:_file.obj
 0001:000b734c       __ftelli64_nolock          004b834c f   LIBCMT:ftelli64.obj
 0001:000b7696       __ftelli64                 004b8696 f   LIBCMT:ftelli64.obj
 0001:000b7703       __fseeki64_nolock          004b8703 f   LIBCMT:fseeki64.obj
 0001:000b779f       __fseeki64                 004b879f f   LIBCMT:fseeki64.obj
 0001:000b781e       __get_sys_err_msg          004b881e f i LIBCMT:strerror.obj
 0001:000b7846       _strerror                  004b8846 f   LIBCMT:strerror.obj
 0001:000b78b0       __get_errno_from_oserr     004b88b0 f   LIBCMT:dosmap.obj
 0001:000b78f2       __errno                    004b88f2 f   LIBCMT:dosmap.obj
 0001:000b7905       ___doserrno                004b8905 f   LIBCMT:dosmap.obj
 0001:000b7918       __dosmaperr                004b8918 f   LIBCMT:dosmap.obj
 0001:000b793b       __lseeki64_nolock          004b893b f   LIBCMT:lseeki64.obj
 0001:000b79c0       __lseeki64                 004b89c0 f   LIBCMT:lseeki64.obj
 0001:000b7ab0       _strlen                    004b8ab0 f   LIBCMT:strlen.obj
 0001:000b7b3b       __EH_prolog3               004b8b3b f   LIBCMT:ehprolg3.obj
 0001:000b7b6e       __EH_prolog3_catch         004b8b6e f   LIBCMT:ehprolg3.obj
 0001:000b7ba4       __EH_epilog3               004b8ba4 f   LIBCMT:ehprolg3.obj
 0001:000b7bb8       ??1bad_exception@std@@UAE@XZ 004b8bb8 f i LIBCMT:frame.obj
 0001:000b7bc3       ??_Gbad_exception@std@@UAEPAXI@Z 004b8bc3 f i LIBCMT:frame.obj
 0001:000b7bc3       ??_Ebad_exception@std@@UAEPAXI@Z 004b8bc3 f i LIBCMT:frame.obj
 0001:000b7bea       ___TypeMatch               004b8bea f   LIBCMT:frame.obj
 0001:000b7c49       ___FrameUnwindFilter       004b8c49 f   LIBCMT:frame.obj
 0001:000b7c98       ___FrameUnwindToState      004b8c98 f   LIBCMT:frame.obj
 0001:000b7db9       ___DestructExceptionObject 004b8db9 f   LIBCMT:frame.obj
 0001:000b7e0e       ___AdjustPointer           004b8e0e f   LIBCMT:frame.obj
 0001:000b7e37       ?__uncaught_exception@@YA_NXZ 004b8e37 f   LIBCMT:frame.obj
 0001:000b80a3       ___BuildCatchObjectHelper  004b90a3 f   LIBCMT:frame.obj
 0001:000b8222       ___BuildCatchObject        004b9222 f   LIBCMT:frame.obj
 0001:000b879e       ??0bad_exception@std@@QAE@ABV01@@Z 004b979e f i LIBCMT:frame.obj
 0001:000b87bb       ___InternalCxxFrameHandler 004b97bb f   LIBCMT:frame.obj
 0001:000b88a1       ___init_ctype              004b98a1 f   LIBCMT:initctyp.obj
 0001:000b8c48       ____lc_codepage_func       004b9c48 f   LIBCMT:initctyp.obj
 0001:000b8c6e       ____lc_handle_func         004b9c6e f   LIBCMT:initctyp.obj
 0001:000b8cba       __free_locale              004b9cba f   LIBCMT:setlocal.obj
 0001:000b8d7c       __strcats                  004b9d7c f   LIBCMT:setlocal.obj
 0001:000b8dbd       ___lc_strtolc              004b9dbd f   LIBCMT:setlocal.obj
 0001:000b8edc       ___lc_lctostr              004b9edc f   LIBCMT:setlocal.obj
 0001:000b90ac       __expandlocale             004ba0ac f   LIBCMT:setlocal.obj
 0001:000b9823       _setlocale                 004ba823 f   LIBCMT:setlocal.obj
 0001:000b9997       __freea                    004ba997 f i LIBCMT:a_map.obj
 0001:000b9b9e       ___crtLCMapStringA         004bab9e f   LIBCMT:a_map.obj
 0001:000b9be4       ___pctype_func             004babe4 f   LIBCMT:ctype.obj
 0001:000b9c0d       __isupper_l                004bac0d f i LIBCMT:_ctype.obj
 0001:000b9c5e       _isupper                   004bac5e f i LIBCMT:_ctype.obj
 0001:000b9c8c       __islower_l                004bac8c f i LIBCMT:_ctype.obj
 0001:000b9cdd       _islower                   004bacdd f i LIBCMT:_ctype.obj
 0001:000b9d0b       __isdigit_l                004bad0b f i LIBCMT:_ctype.obj
 0001:000b9d5c       _isdigit                   004bad5c f i LIBCMT:_ctype.obj
 0001:000b9d8a       __malloc_crt               004bad8a f   LIBCMT:crtheap.obj
 0001:000b9dcf       __calloc_crt               004badcf f   LIBCMT:crtheap.obj
 0001:000b9e1b       __realloc_crt              004bae1b f   LIBCMT:crtheap.obj
 0001:000b9e69       __recalloc_crt             004bae69 f   LIBCMT:crtheap.obj
 0001:000b9f75       __itoa_s                   004baf75 f   LIBCMT:xtoas.obj
 0001:000b9f9f       _abort                     004baf9f f   LIBCMT:abort.obj
 0001:000b9fd2       __set_abort_behavior       004bafd2 f   LIBCMT:abort.obj
 0001:000b9ff4       ___report_gsfailure        004baff4 f   LIBCMT:gs_report.obj
 0001:000ba0fa       __VEC_memcpy               004bb0fa f   LIBCMT:p4_memcpy.obj
 0001:000ba1fd       ___sse2_available_init     004bb1fd f   LIBCMT:cpu_disp.obj
 0001:000ba20d       ?_Type_info_dtor@type_info@@CAXPAV1@@Z 004bb20d f   LIBCMT:typname.obj
 0001:000ba280       _strcmp                    004bb280 f   LIBCMT:strcmp.obj
 0001:000ba308       __initp_heap_handler       004bb308 f   LIBCMT:handler.obj
 0001:000ba317       __callnewh                 004bb317 f   LIBCMT:handler.obj
 0001:000ba33f       __flsbuf                   004bb33f f   LIBCMT:_flsbuf.obj
 0001:000ba538       __output_l                 004bb538 f   LIBCMT:output.obj
 0001:000bb140       __initp_misc_invarg        004bc140 f   LIBCMT:invarg.obj
 0001:000bb14f       __call_reportfault         004bc14f f   LIBCMT:invarg.obj
 0001:000bb278       __invoke_watson            004bc278 f   LIBCMT:invarg.obj
 0001:000bb29d       __invalid_parameter        004bc29d f   LIBCMT:invarg.obj
 0001:000bb2ca       __invalid_parameter_noinfo 004bc2ca f   LIBCMT:invarg.obj
 0001:000bb2da       __vsnprintf_helper         004bc2da f   LIBCMT:vsnprnc.obj
 0001:000bb3a4       __vsprintf_s_l             004bc3a4 f   LIBCMT:vsnprnc.obj
 0001:000bb41b       __getdrive                 004bc41b f   LIBCMT:drive.obj
 0001:000bb4e9       __mtinitlocks              004bc4e9 f   LIBCMT:mlock.obj
 0001:000bb533       __mtdeletelocks            004bc533 f   LIBCMT:mlock.obj
 0001:000bb58a       __unlock                   004bc58a f   LIBCMT:mlock.obj
 0001:000bb5a1       __mtinitlocknum            004bc5a1 f   LIBCMT:mlock.obj
 0001:000bb663       __lock                     004bc663 f   LIBCMT:mlock.obj
 0001:000bb6a0       __SEH_prolog4              004bc6a0 f   LIBCMT:sehprolg4.obj
 0001:000bb6e5       __SEH_epilog4              004bc6e5 f   LIBCMT:sehprolg4.obj
 0001:000bb6f9       ?terminate@@YAXXZ          004bc6f9 f   LIBCMT:hooks.obj
 0001:000bb732       ?unexpected@@YAXXZ         004bc732 f   LIBCMT:hooks.obj
 0001:000bb745       ?_inconsistency@@YAXXZ     004bc745 f   LIBCMT:hooks.obj
 0001:000bb77d       __initp_eh_hooks           004bc77d f   LIBCMT:hooks.obj
 0001:000bb78e       __msize                    004bc78e f   LIBCMT:msize.obj
 0001:000bb7c1       ___crtCorExitProcess       004bc7c1 f   LIBCMT:crt0dat.obj
 0001:000bb7ec       ___crtExitProcess          004bc7ec f   LIBCMT:crt0dat.obj
 0001:000bb804       __lockexit                 004bc804 f   LIBCMT:crt0dat.obj
 0001:000bb80d       __unlockexit               004bc80d f   LIBCMT:crt0dat.obj
 0001:000bb816       __init_pointers            004bc816 f   LIBCMT:crt0dat.obj
 0001:000bb849       __initterm_e               004bc849 f   LIBCMT:crt0dat.obj
 0001:000bb86d       __cinit                    004bc86d f   LIBCMT:crt0dat.obj
 0001:000bba44       _exit                      004bca44 f   LIBCMT:crt0dat.obj
 0001:000bba5a       __exit                     004bca5a f   LIBCMT:crt0dat.obj
 0001:000bba70       __cexit                    004bca70 f   LIBCMT:crt0dat.obj
 0001:000bba7f       __c_exit                   004bca7f f   LIBCMT:crt0dat.obj
 0001:000bba8e       __amsg_exit                004bca8e f   LIBCMT:crt0dat.obj
 0001:000bbccf       ___updatetmbcinfo          004bcccf f   LIBCMT:mbctype.obj
 0001:000bbdef       __setmbcp_nolock           004bcdef f   LIBCMT:mbctype.obj
 0001:000bbfd8       __setmbcp                  004bcfd8 f   LIBCMT:mbctype.obj
 0001:000bc172       ___initmbctable            004bd172 f   LIBCMT:mbctype.obj
 0001:000bc190       ___addlocaleref            004bd190 f   LIBCMT:localref.obj
 0001:000bc21f       ___removelocaleref         004bd21f f   LIBCMT:localref.obj
 0001:000bc2b8       ___freetlocinfo            004bd2b8 f   LIBCMT:localref.obj
 0001:000bc403       __updatetlocinfoEx_nolock  004bd403 f   LIBCMT:localref.obj
 0001:000bc450       ___updatetlocinfo          004bd450 f   LIBCMT:localref.obj
 0001:000bc4c9       __encoded_null             004bd4c9 f   LIBCMT:tidtable.obj
 0001:000bc4d2       ___crtTlsAlloc@4           004bd4d2 f   LIBCMT:tidtable.obj
 0001:000bc4db       ___fls_getvalue@4          004bd4db f   LIBCMT:tidtable.obj
 0001:000bc4f5       ___get_flsindex            004bd4f5 f   LIBCMT:tidtable.obj
 0001:000bc4fb       ___set_flsgetvalue         004bd4fb f   LIBCMT:tidtable.obj
 0001:000bc52f       ___fls_setvalue@8          004bd52f f   LIBCMT:tidtable.obj
 0001:000bc54c       __mtterm                   004bd54c f   LIBCMT:tidtable.obj
 0001:000bc589       __initptd                  004bd589 f   LIBCMT:tidtable.obj
 0001:000bc63d       __getptd_noexit            004bd63d f   LIBCMT:tidtable.obj
 0001:000bc6b6       __getptd                   004bd6b6 f   LIBCMT:tidtable.obj
 0001:000bc6d0       __freefls@4                004bd6d0 f   LIBCMT:tidtable.obj
 0001:000bc7ff       __freeptd                  004bd7ff f   LIBCMT:tidtable.obj
 0001:000bc86d       __mtinit                   004bd86d f   LIBCMT:tidtable.obj
 0001:000bc9e8       __fltin2                   004bd9e8 f   LIBCMT:_cfin_.obj
 0001:000bca8f       __isctype_l                004bda8f f   LIBCMT:isctype.obj
 0001:000bcb47       ___strgtold12_l            004bdb47 f   LIBCMT:_strgtold_.obj
 0001:000bd223       ?__CxxUnhandledExceptionFilter@@YGJPAU_EXCEPTION_POINTERS@@@Z 004be223 f   LIBCMT:unhandld.obj
 0001:000bd265       ___CxxSetUnhandledExceptionFilter 004be265 f   LIBCMT:unhandld.obj
 0001:000bd273       __GET_RTERRMSG             004be273 f   LIBCMT:crt0msg.obj
 0001:000bd299       __NMSG_WRITE               004be299 f   LIBCMT:crt0msg.obj
 0001:000bd448       __FF_MSGBANNER             004be448 f   LIBCMT:crt0msg.obj
 0001:000bd481       __XcptFilter               004be481 f   LIBCMT:winxfltr.obj
 0001:000bd5cb       __wincmdln                 004be5cb f   LIBCMT:wincmdln.obj
 0001:000bd62a       __setenvp                  004be62a f   LIBCMT:stdenvp.obj
 0001:000bd8a0       __setargv                  004be8a0 f   LIBCMT:stdargv.obj
 0001:000bd95b       ___crtGetEnvironmentStringsA 004be95b f   LIBCMT:a_env.obj
 0001:000bd9f2       __ioinit                   004be9f2 f   LIBCMT:ioinit.obj
 0001:000bdc37       __RTC_Initialize           004bec37 f   LIBCMT:_initsect_.obj
 0001:000bdc5d       __RTC_Terminate            004bec5d f   LIBCMT:_initsect_.obj
 0001:000bdc83       __heap_init                004bec83 f   LIBCMT:heapinit.obj
 0001:000bdca1       ___security_init_cookie    004beca1 f   LIBCMT:gs_support.obj
 0001:000bdd3c       __forcdecpt_l              004bed3c f   LIBCMT:cvt.obj
 0001:000bddb0       __cropzeros_l              004bedb0 f   LIBCMT:cvt.obj
 0001:000bde32       __positive                 004bee32 f   LIBCMT:cvt.obj
 0001:000bde4e       __fassign_l                004bee4e f   LIBCMT:cvt.obj
 0001:000bde90       __fassign                  004bee90 f   LIBCMT:cvt.obj
 0001:000bdec9       __forcdecpt                004beec9 f   LIBCMT:cvt.obj
 0001:000bdedc       __cropzeros                004beedc f   LIBCMT:cvt.obj
 0001:000be050       __cftoe_l                  004bf050 f   LIBCMT:cvt.obj
 0001:000be117       __cftoe                    004bf117 f   LIBCMT:cvt.obj
 0001:000be137       __cftoa_l                  004bf137 f   LIBCMT:cvt.obj
 0001:000be5b0       __cftof_l                  004bf5b0 f   LIBCMT:cvt.obj
 0001:000be671       __cftog_l                  004bf671 f   LIBCMT:cvt.obj
 0001:000be75e       __cfltcvt_l                004bf75e f   LIBCMT:cvt.obj
 0001:000be7e6       __cfltcvt                  004bf7e6 f   LIBCMT:cvt.obj
 0001:000be809       __initp_misc_cfltcvt_tab   004bf809 f   LIBCMT:cmiscdat.obj
 0001:000be82c       __setdefaultprecision      004bf82c f   LIBCMT:fp8.obj
 0001:000be854       __sse2_mathfcns_init       004bf854 f   LIBCMT:_mathfcns_.obj
 0001:000be870       __CIcos_pentium4           004bf870 f   LIBCMT:_cos_pentium4_.obj
 0001:000be888       __cos_pentium4             004bf888     LIBCMT:_cos_pentium4_.obj
 0001:000bea20       __trandisp1                004bfa20 f   LIBCMT:_87disp_.obj
 0001:000bea87       __trandisp2                004bfa87 f   LIBCMT:_87disp_.obj
 0001:000beb13       __rttospopde               004bfb13     LIBCMT:_87disp_.obj
 0001:000beb18       __rttospop                 004bfb18     LIBCMT:_87disp_.obj
 0001:000beb1a       __rtnospop                 004bfb1a     LIBCMT:_87disp_.obj
 0001:000beb1c       __rttosnpop                004bfb1c     LIBCMT:_87disp_.obj
 0001:000beb1d       __rtnospopde               004bfb1d     LIBCMT:_87disp_.obj
 0001:000beb24       __rtzeropop                004bfb24     LIBCMT:_87disp_.obj
 0001:000beb26       __rtzeronpop               004bfb26     LIBCMT:_87disp_.obj
 0001:000beb2b       __rtonepop                 004bfb2b     LIBCMT:_87disp_.obj
 0001:000beb2d       __rtonenpop                004bfb2d     LIBCMT:_87disp_.obj
 0001:000beb32       __tosnan1                  004bfb32     LIBCMT:_87disp_.obj
 0001:000beb5d       __nosnan2                  004bfb5d     LIBCMT:_87disp_.obj
 0001:000beb5f       __tosnan2                  004bfb5f     LIBCMT:_87disp_.obj
 0001:000beb87       __nan2                     004bfb87     LIBCMT:_87disp_.obj
 0001:000bebc6       __rtindfpop                004bfbc6     LIBCMT:_87disp_.obj
 0001:000bebc8       __rtindfnpop               004bfbc8     LIBCMT:_87disp_.obj
 0001:000bebd9       __rttosnpopde              004bfbd9     LIBCMT:_87disp_.obj
 0001:000bebe3       __rtchsifneg               004bfbe3     LIBCMT:_87disp_.obj
 0001:000bebf0       __twoToTOS                 004bfbf0 f   LIBCMT:_common_.obj
 0001:000bec05       __load_CW                  004bfc05 f   LIBCMT:_common_.obj
 0001:000bec1c       __convertTOStoQNaN         004bfc1c f   LIBCMT:_common_.obj
 0001:000bec35       __fload_withFB             004bfc35 f   LIBCMT:_common_.obj
 0001:000bec78       __checkTOS_withFB          004bfc78 f   LIBCMT:_common_.obj
 0001:000bec8e       __fast_exit                004bfc8e f   LIBCMT:_common_.obj
 0001:000bec9b       __math_exit                004bfc9b f   LIBCMT:_common_.obj
 0001:000becc5       __check_overflow_exit      004bfcc5 f   LIBCMT:_common_.obj
 0001:000becd9       __check_range_exit         004bfcd9 f   LIBCMT:_common_.obj
 0001:000bed80       __startTwoArgErrorHandling 004bfd80 f   LIBCMT:_genexcep_.obj
 0001:000bed97       __startOneArgErrorHandling 004bfd97 f   LIBCMT:_genexcep_.obj
 0001:000bede0       __CIsin_pentium4           004bfde0 f   LIBCMT:_sin_pentium4_.obj
 0001:000bedf8       __sin_pentium4             004bfdf8     LIBCMT:_sin_pentium4_.obj
 0001:000befb0       __CallSettingFrame@12      004bffb0 f   LIBCMT:lowhelpr.obj
 0001:000befd7       __NLG_Return               004bffd7     LIBCMT:lowhelpr.obj
 0001:000beffc       ___getlocaleinfo           004bfffc f   LIBCMT:inithelp.obj
 0001:000bf1a8       __initp_misc_purevirt      004c01a8 f   LIBCMT:inithelp.obj
 0001:000bf1b7       __VEC_memzero              004c01b7 f   LIBCMT:p4_memset.obj
 0001:000bf271       __towlower_l               004c0271 f   LIBCMT:towlower.obj
 0001:000bf320       __CIacos_pentium4          004c0320 f   LIBCMT:_acos_pentium4_.obj
 0001:000bf338       __acos_pentium4            004c0338     LIBCMT:_acos_pentium4_.obj
 0001:000bf880       __CIasin_pentium4          004c0880 f   LIBCMT:_asin_pentium4_.obj
 0001:000bf898       __asin_pentium4            004c0898     LIBCMT:_asin_pentium4_.obj
 0001:000bfe00       __CIatan_pentium4          004c0e00 f   LIBCMT:_atan_pentium4_.obj
 0001:000bfe18       __atan_pentium4            004c0e18     LIBCMT:_atan_pentium4_.obj
 0001:000c00ec       ___libm_error_support      004c10ec f   LIBCMT:_libm_error_.obj
 0001:000c03b8       __ceil_default             004c13b8 f   LIBCMT:_ceil_.obj
 0001:000c0490       __floor_default            004c1490 f   LIBCMT:_floor_.obj
 0001:000c0570       __cintrindisp2             004c1570 f   LIBCMT:_87cdisp_.obj
 0001:000c05ae       __cintrindisp1             004c15ae f   LIBCMT:_87cdisp_.obj
 0001:000c05eb       __ctrandisp2               004c15eb f   LIBCMT:_87cdisp_.obj
 0001:000c077a       __ctrandisp1               004c177a f   LIBCMT:_87cdisp_.obj
 0001:000c07ad       __fload                    004c17ad f   LIBCMT:_87cdisp_.obj
 0001:000c07f0       __CIlog10_pentium4         004c17f0 f   LIBCMT:_log10_pentium4_.obj
 0001:000c0808       __log10_pentium4           004c1808     LIBCMT:_log10_pentium4_.obj
 0001:000c0a91       __fFEXP                    004c1a91     LIBCMT:_87tran_.obj
 0001:000c0ae8       __rtinfpopse               004c1ae8     LIBCMT:_87tran_.obj
 0001:000c0aea       __rtinfnpopse              004c1aea     LIBCMT:_87tran_.obj
 0001:000c0afa       __fFLN                     004c1afa     LIBCMT:_87tran_.obj
 0001:000c0baf       __rtinfpop                 004c1baf     LIBCMT:_87tran_.obj
 0001:000c0bb1       __rtinfnpop                004c1bb1     LIBCMT:_87tran_.obj
 0001:000c0bce       __ffexpm1                  004c1bce     LIBCMT:_87tran_.obj
 0001:000c0c80       __CItan_pentium4           004c1c80 f   LIBCMT:_tan_pentium4_.obj
 0001:000c0c98       __tan_pentium4             004c1c98     LIBCMT:_tan_pentium4_.obj
 0001:000c0ee0       __fullpath                 004c1ee0 f   LIBCMT:fullpath.obj
 0001:000c0fd7       ___dtoxmode                004c1fd7 f   LIBCMT:stat.obj
 0001:000c1094       __close_nolock             004c2094 f   LIBCMT:close.obj
 0001:000c1130       __close                    004c2130 f   LIBCMT:close.obj
 0001:000c1130       _close                     004c2130 f   LIBCMT:close.obj
 0001:000c11f4       __fstat64i32               004c21f4 f   LIBCMT:fstati32.obj
 0001:000c1c7a       _open                      004c2c7a f   LIBCMT:open.obj
 0001:000c1c7a       __open                     004c2c7a f   LIBCMT:open.obj
 0001:000c1d28       __sopen_helper             004c2d28 f   LIBCMT:open.obj
 0001:000c1dec       __sopen_s                  004c2dec f   LIBCMT:open.obj
 0001:000c1e0c       ___loctotime64_t           004c2e0c f   LIBCMT:dtoxtm64.obj
 0001:000c2073       __mbctolower_l             004c3073 f   LIBCMT:mbtolwr.obj
 0001:000c2119       __mbctolower               004c3119 f   LIBCMT:mbtolwr.obj
 0001:000c212c       __mbspbrk_l                004c312c f   LIBCMT:mbspbrk.obj
 0001:000c21f1       __mbspbrk                  004c31f1 f   LIBCMT:mbspbrk.obj
 0001:000c28e9       ___tzset                   004c38e9 f   LIBCMT:tzset.obj
 0001:000c2938       __isindst                  004c3938 f   LIBCMT:tzset.obj
 0001:000c2979       __gmtime64_s               004c3979 f   LIBCMT:gmtime64.obj
 0001:000c2bb2       __get_daylight             004c3bb2 f   LIBCMT:timeset.obj
 0001:000c2bdf       __get_dstbias              004c3bdf f   LIBCMT:timeset.obj
 0001:000c2c0c       __get_timezone             004c3c0c f   LIBCMT:timeset.obj
 0001:000c2c39       ___daylight                004c3c39 f   LIBCMT:timeset.obj
 0001:000c2c3f       ___dstbias                 004c3c3f f   LIBCMT:timeset.obj
 0001:000c2c45       ___timezone                004c3c45 f   LIBCMT:timeset.obj
 0001:000c2c4b       ___tzname                  004c3c4b f   LIBCMT:timeset.obj
 0001:000c2c60       __allrem                   004c3c60 f   LIBCMT:llrem.obj
 0001:000c2d12       ___getgmtimebuf            004c3d12 f   LIBCMT:gmtime.obj
 0001:000c2d50       __aulldiv                  004c3d50 f   LIBCMT:ulldiv.obj
 0001:000c2db8       __fileno                   004c3db8 f   LIBCMT:fileno.obj
 0001:000c2dde       __freebuf                  004c3dde f   LIBCMT:_freebuf.obj
 0001:000c2e0f       __flush                    004c3e0f f   LIBCMT:fflush.obj
 0001:000c2e77       __fflush_nolock            004c3e77 f   LIBCMT:fflush.obj
 0001:000c2f99       __flushall                 004c3f99 f   LIBCMT:fflush.obj
 0001:000c2fa2       __lseek_nolock             004c3fa2 f   LIBCMT:lseek.obj
 0001:000c3017       __lseek                    004c4017 f   LIBCMT:lseek.obj
 0001:000c30eb       __write_nolock             004c40eb f   LIBCMT:write.obj
 0001:000c37e8       _write                     004c47e8 f   LIBCMT:write.obj
 0001:000c37e8       __write                    004c47e8 f   LIBCMT:write.obj
 0001:000c38bc       __filbuf                   004c48bc f   LIBCMT:_filbuf.obj
 0001:000c39de       __read_nolock              004c49de f   LIBCMT:read.obj
 0001:000c3f95       __read                     004c4f95 f   LIBCMT:read.obj
 0001:000c408b       __calloc_impl              004c508b f   LIBCMT:calloc_impl.obj
 0001:000c4110       __local_unwind4            004c5110 f   LIBCMT:exsup4.obj
 0001:000c41e6       __seh_longjmp_unwind4@4    004c51e6 f   LIBCMT:exsup4.obj
 0001:000c4202       @_EH4_CallFilterFunc@8     004c5202 f   LIBCMT:exsup4.obj
 0001:000c4219       @_EH4_TransferToHandler@8  004c5219 f   LIBCMT:exsup4.obj
 0001:000c4232       @_EH4_GlobalUnwind2@8      004c5232 f   LIBCMT:exsup4.obj
 0001:000c424b       @_EH4_LocalUnwind@16       004c524b f   LIBCMT:exsup4.obj
 0001:000c4270       __ValidateImageBase        004c5270 f   LIBCMT:pesect.obj
 0001:000c42b0       __FindPESection            004c52b0 f   LIBCMT:pesect.obj
 0001:000c4300       __IsNonwritableInCurrentImage 004c5300 f   LIBCMT:pesect.obj
 0001:000c43bc       __openfile                 004c53bc f   LIBCMT:_open.obj
 0001:000c4653       __getstream                004c5653 f   LIBCMT:stream.obj
 0001:000c47d9       __ismbblead                004c57d9 f   LIBCMT:ismbbyte.obj
 0001:000c47f1       __tolower_l                004c57f1 f   LIBCMT:tolower.obj
 0001:000c4906       _tolower                   004c5906 f   LIBCMT:tolower.obj
 0001:000c4940       ___ascii_strnicmp          004c5940 f   LIBCMT:_strnicm.obj
 0001:000c49cc       __fFATN2                   004c59cc     LIBCMT:_87triga_.obj
 0001:000c4a1c       __rtpiby2                  004c5a1c     LIBCMT:_87triga_.obj
 0001:000c4a58       __stbuf                    004c5a58 f   LIBCMT:_sftbuf.obj
 0001:000c4af4       __ftbuf                    004c5af4 f   LIBCMT:_sftbuf.obj
 0001:000c4b28       __fcloseall                004c5b28 f   LIBCMT:closeall.obj
 0001:000c4bc4       ___sys_nerr                004c5bc4 f   LIBCMT:syserr.obj
 0001:000c4bca       ___sys_errlist             004c5bca f   LIBCMT:syserr.obj
 0001:000c4bd0       __vsnprintf_l              004c5bd0 f   LIBCMT:vsnprint.obj
 0001:000c4c7c       __vsnprintf                004c5c7c f   LIBCMT:vsnprint.obj
 0001:000c4c7c       _vsnprintf                 004c5c7c f   LIBCMT:vsnprint.obj
 0001:000c4c99       __set_osfhnd               004c5c99 f   LIBCMT:osfinfo.obj
 0001:000c4d1a       __free_osfhnd              004c5d1a f   LIBCMT:osfinfo.obj
 0001:000c4da0       __get_osfhandle            004c5da0 f   LIBCMT:osfinfo.obj
 0001:000c4e09       ___lock_fhandle            004c5e09 f   LIBCMT:osfinfo.obj
 0001:000c4ea8       __unlock_fhandle           004c5ea8 f   LIBCMT:osfinfo.obj
 0001:000c4ecf       __alloc_osfhnd             004c5ecf f   LIBCMT:osfinfo.obj
 0001:000c5068       ?_ValidateWrite@@YAHPAXI@Z 004c6068 f   LIBCMT:validate.obj
 0001:000c5068       ?_ValidateRead@@YAHPBXI@Z  004c6068 f   LIBCMT:validate.obj
 0001:000c5068       ?_ValidateExecute@@YAHP6GHXZ@Z 004c6068 f   LIBCMT:validate.obj
 0001:000c5161       ___crtGetStringTypeA       004c6161 f   LIBCMT:a_str.obj
 0001:000c59a0       ___free_lc_time            004c69a0 f   LIBCMT:inittime.obj
 0001:000c5d17       ___init_time               004c6d17 f   LIBCMT:inittime.obj
 0001:000c5d94       ___free_lconv_num          004c6d94 f   LIBCMT:initnum.obj
 0001:000c5dfd       ___init_numeric            004c6dfd f   LIBCMT:initnum.obj
 0001:000c5fed       ___free_lconv_mon          004c6fed f   LIBCMT:initmon.obj
 0001:000c60eb       ___init_monetary           004c70eb f   LIBCMT:initmon.obj
 0001:000c644b       ___init_dummy              004c744b f   LIBCMT:setlocal.obj
 0001:000c644b       ___init_collate            004c744b f   LIBCMT:initcoll.obj
 0001:000c644b       __matherr                  004c744b f   LIBCMT:_matherr_.obj
 0001:000c69db       ___get_qualified_locale    004c79db f   LIBCMT:getqloc.obj
 0001:000c6bcc       _memcmp                    004c7bcc f   LIBCMT:memcmp.obj
 0001:000c8120       __aulldvrm                 004c9120 f   LIBCMT:ulldvrm.obj
 0001:000c81b5       __initp_misc_winsig        004c91b5 f   LIBCMT:winsig.obj
 0001:000c820a       ___get_sigabrt             004c920a f   LIBCMT:winsig.obj
 0001:000c8217       _raise                     004c9217 f   LIBCMT:winsig.obj
 0001:000c83ba       __crt_debugger_hook        004c93ba f   LIBCMT:dbghook.obj
 0001:000c83c2       __getbuf                   004c93c2 f   LIBCMT:_getbuf.obj
 0001:000c840b       __isatty                   004c940b f   LIBCMT:isatty.obj
 0001:000c8461       __get_printf_count_output  004c9461 f   LIBCMT:printf.obj
 0001:000c8477       __wctomb_s_l               004c9477 f   LIBCMT:wctomb.obj
 0001:000c85cc       _wctomb_s                  004c95cc f   LIBCMT:wctomb.obj
 0001:000c85e9       __isleadbyte_l             004c95e9 f i LIBCMT:_wctype.obj
 0001:000c8621       _isleadbyte                004c9621 f i LIBCMT:_wctype.obj
 0001:000c8634       __output_s_l               004c9634 f   LIBCMT:outputs.obj
 0001:000c9270       __SEH_prolog4_GS           004ca270 f   LIBCMT:sehprolg4gs.obj
 0001:000c92b8       __SEH_epilog4_GS           004ca2b8 f   LIBCMT:sehprolg4gs.obj
 0001:000c92c7       __initp_misc_rand_s        004ca2c7 f   LIBCMT:rand_s.obj
 0001:000c92d6       __ld12tod                  004ca2d6 f   LIBCMT:_intrncvt_.obj
 0001:000c9827       __ld12tof                  004ca827 f   LIBCMT:_intrncvt_.obj
 0001:000c9d78       ___mtold12                 004cad78 f   LIBCMT:_mantold_.obj
 0001:000c9f5c       ___crtMessageBoxW          004caf5c f   LIBCMT:crtmboxw.obj
 0001:000ca0c8       _wcscat_s                  004cb0c8 f   LIBCMT:wcscat_s.obj
 0001:000ca13d       _wcsncpy_s                 004cb13d f   LIBCMT:wcsncpy_s.obj
 0001:000ca20a       _wcslen                    004cb20a f   LIBCMT:wcslen.obj
 0001:000ca225       _wcscpy_s                  004cb225 f   LIBCMT:wcscpy_s.obj
 0001:000ca288       __set_error_mode           004cb288 f   LIBCMT:errmode.obj
 0001:000ca2d0       _strrchr                   004cb2d0 f   LIBCMT:strrchr.obj
 0001:000ca2fd       __atodbl_l                 004cb2fd f   LIBCMT:atodbl.obj
 0001:000ca3a5       __atoflt_l                 004cb3a5 f   LIBCMT:atodbl.obj
 0001:000ca44d       __fptostr                  004cb44d f   LIBCMT:_fptostr.obj
 0001:000ca500       ___dtold                   004cb500 f   LIBCMT:_cfout_.obj
 0001:000ca5b3       __fltout2                  004cb5b3 f   LIBCMT:_cfout_.obj
 0001:000ca650       __alldvrm                  004cb650 f   LIBCMT:lldvrm.obj
 0001:000ca730       __aullshr                  004cb730 f   LIBCMT:ullshr.obj
 0001:000ca74f       __fptrap                   004cb74f f   LIBCMT:crt0fp.obj
 0001:000ca758       __controlfp_s              004cb758 f   LIBCMT:_contrlfp_.obj
 0001:000ca7b7       __87except                 004cb7b7 f   LIBCMT:_87except_.obj
 0001:000ca900       __global_unwind2           004cb900 f   LIBCMT:exsup.obj
 0001:000ca965       __local_unwind2            004cb965 f   LIBCMT:exsup.obj
 0001:000ca9e9       __abnormal_termination     004cb9e9 f   LIBCMT:exsup.obj
 0001:000caa0c       __NLG_Notify1              004cba0c f   LIBCMT:exsup.obj
 0001:000caa15       __NLG_Notify               004cba15 f   LIBCMT:exsup.obj
 0001:000caa2c       __NLG_Dispatch2            004cba2c     LIBCMT:exsup.obj
 0001:000caa2c       __NLG_Dispatch             004cba2c     LIBCMT:exsup.obj
 0001:000caa34       __NLG_Call                 004cba34 f   LIBCMT:exsup.obj
 0001:000caa36       __NLG_Return2              004cba36     LIBCMT:exsup.obj
 0001:000cab11       ___crtGetLocaleInfoA       004cbb11 f   LIBCMT:a_loc.obj
 0001:000cab4b       ___crtLCMapStringW         004cbb4b f   LIBCMT:w_map.obj
 0001:000cab7a       _iswctype                  004cbb7a f   LIBCMT:iswctype.obj
 0001:000cabcf       __raise_exc_ex             004cbbcf f   LIBCMT:_fpexcept_.obj
 0001:000caeab       __raise_exc                004cbeab f   LIBCMT:_fpexcept_.obj
 0001:000caece       __handle_exc               004cbece f   LIBCMT:_fpexcept_.obj
 0001:000cb0b2       __set_errno_from_matherr   004cc0b2 f   LIBCMT:_fpexcept_.obj
 0001:000cb0df       __errcode                  004cc0df f   LIBCMT:_fpexcept_.obj
 0001:000cb113       __umatherr                 004cc113 f   LIBCMT:_fpexcept_.obj
 0001:000cb1b3       __handle_qnan1             004cc1b3 f   LIBCMT:_fpexcept_.obj
 0001:000cb208       __except1                  004cc208 f   LIBCMT:_fpexcept_.obj
 0001:000cb2d2       __frnd                     004cc2d2 f   LIBCMT:_frnd_.obj
 0001:000cb2e6       __set_exp                  004cc2e6 f   LIBCMT:_util_.obj
 0001:000cb313       __sptype                   004cc313 f   LIBCMT:_util_.obj
 0001:000cb379       __decomp                   004cc379 f   LIBCMT:_util_.obj
 0001:000cb43c       __statfp                   004cc43c f   LIBCMT:_fpctrl_.obj
 0001:000cb44c       __clrfp                    004cc44c f   LIBCMT:_fpctrl_.obj
 0001:000cb45d       __ctrlfp                   004cc45d f   LIBCMT:_fpctrl_.obj
 0001:000cb488       __set_statfp               004cc488 f   LIBCMT:_fpctrl_.obj
 0001:000cb4e0       ___set_fpsr_sse2           004cc4e0 f   LIBCMT:_fpctrl_.obj
 0001:000cb552       __d_inttype                004cc552 f   LIBCMT:_powhlp_.obj
 0001:000cb5bc       __powhlp                   004cc5bc f   LIBCMT:_powhlp_.obj
 0001:000cb6e7       __mbsicmp_l                004cc6e7 f   LIBCMT:mbsicmp.obj
 0001:000cb8de       __mbsicmp                  004cc8de f   LIBCMT:mbsicmp.obj
 0001:000cb8f5       __mbsrchr_l                004cc8f5 f   LIBCMT:mbsrchr.obj
 0001:000cb99f       __mbsrchr                  004cc99f f   LIBCMT:mbsrchr.obj
 0001:000cb9b6       __chsize_nolock            004cc9b6 f   LIBCMT:chsize.obj
 0001:000cbb6c       __setmode_nolock           004ccb6c f   LIBCMT:setmode.obj
 0001:000cbc27       __get_fmode                004ccc27 f   LIBCMT:setmode.obj
 0001:000cbc54       __setmode                  004ccc54 f   LIBCMT:setmode.obj
 0001:000cbc54       _setmode                   004ccc54 f   LIBCMT:setmode.obj
 0001:000cbd3f       __getenv_helper_nolock     004ccd3f f   LIBCMT:getenv.obj
 0001:000cbdc6       __commit                   004ccdc6 f   LIBCMT:commit.obj
 0001:000cbe9f       __putwch_nolock            004cce9f f   LIBCMT:putwch.obj
 0001:000cbee1       __mbtowc_l                 004ccee1 f   LIBCMT:mbtowc.obj
 0001:000cbff7       _mbtowc                    004ccff7 f   LIBCMT:mbtowc.obj
 0001:000cc011       __mbsnbicmp_l              004cd011 f   LIBCMT:mbsnbicm.obj
 0001:000cc215       __mbsnbicmp                004cd215 f   LIBCMT:mbsnbicm.obj
 0001:000cc22f       __mbsnbcmp_l               004cd22f f   LIBCMT:mbsnbcmp.obj
 0001:000cc37b       __mbsnbcmp                 004cd37b f   LIBCMT:mbsnbcmp.obj
 0001:000cc395       ___ascii_stricmp           004cd395 f   LIBCMT:stricmp.obj
 0001:000cc3ce       __stricmp_l                004cd3ce f   LIBCMT:stricmp.obj
 0001:000cc48e       __stricmp                  004cd48e f   LIBCMT:stricmp.obj
 0001:000cc4d5       _$I10_OUTPUT               004cd4d5 f   LIBCMT:_x10fout_.obj
 0001:000ccefb       __control87                004cdefb f i LIBCMT:_ieee87_.obj
 0001:000cd20d       _wcsnlen                   004ce20d f   LIBCMT:wcslen_s.obj
 0001:000cd22d       __fpclass                  004ce22d f   LIBCMT:_ieeemisc_.obj
 0001:000cd2ca       __mbsnbicoll_l             004ce2ca f   LIBCMT:mbsnbico.obj
 0001:000cd3a8       __mbsnbicoll               004ce3a8 f   LIBCMT:mbsnbico.obj
 0001:000cd3c2       ___wtomb_environ           004ce3c2 f   LIBCMT:wtombenv.obj
 0001:000cd459       ___initconout              004ce459 f   LIBCMT:initcon.obj
 0001:000cd478       ___termconout              004ce478 f   LIBCMT:initcon.obj
 0001:000cd6fd       ___crtCompareStringA       004ce6fd f   LIBCMT:a_cmp.obj
 0001:000cd73f       __strnicoll_l              004ce73f f   LIBCMT:strnicol.obj
 0001:000cd8db       ___crtsetenv               004ce8db f   LIBCMT:setenv.obj
 0001:000cdb1d       __strdup                   004ceb1d f   LIBCMT:strdup.obj
 0001:000cdb6f       __mbschr_l                 004ceb6f f   LIBCMT:mbschr.obj
 0001:000cdc1f       __mbschr                   004cec1f f   LIBCMT:mbschr.obj
 0001:000cdc36       _GdipFree@4                004cec36 f   gdiplus:gdiplus.dll
 0001:000cdc3c       _GdipAlloc@4               004cec3c f   gdiplus:gdiplus.dll
 0001:000cdc42       _GdipDeleteGraphics@4      004cec42 f   gdiplus:gdiplus.dll
 0001:000cdc48       _GdipDisposeImage@4        004cec48 f   gdiplus:gdiplus.dll
 0001:000cdc4e       _GdipSaveImageToFile@16    004cec4e f   gdiplus:gdiplus.dll
 0001:000cdc54       _GdipGetImageWidth@8       004cec54 f   gdiplus:gdiplus.dll
 0001:000cdc5a       _GdipGetImageHeight@8      004cec5a f   gdiplus:gdiplus.dll
 0001:000cdc60       _GdipGetImagePixelFormat@8 004cec60 f   gdiplus:gdiplus.dll
 0001:000cdc66       _GdipGetImagePaletteSize@8 004cec66 f   gdiplus:gdiplus.dll
 0001:000cdc6c       _GdipGetImagePalette@12    004cec6c f   gdiplus:gdiplus.dll
 0001:000cdc72       _GdipCreateBitmapFromFile@8 004cec72 f   gdiplus:gdiplus.dll
 0001:000cdc78       _GdipCreateBitmapFromScan0@24 004cec78 f   gdiplus:gdiplus.dll
 0001:000cdc7e       _GdipCreateBitmapFromHBITMAP@12 004cec7e f   gdiplus:gdiplus.dll
 0001:000cdc84       _GdipBitmapLockBits@20     004cec84 f   gdiplus:gdiplus.dll
 0001:000cdc8a       _GdipBitmapUnlockBits@8    004cec8a f   gdiplus:gdiplus.dll
 0001:000cdc90       _GdipGetImageEncodersSize@8 004cec90 f   gdiplus:gdiplus.dll
 0001:000cdc96       _GdipGetImageEncoders@12   004cec96 f   gdiplus:gdiplus.dll
 0001:000cdc9c       _GdiplusStartup@12         004cec9c f   gdiplus:gdiplus.dll
 0001:000cdca2       _GdiplusShutdown@4         004ceca2 f   gdiplus:gdiplus.dll
 0001:000cdca8       _GdipGetImageGraphicsContext@8 004ceca8 f   gdiplus:gdiplus.dll
 0001:000cdcae       _GdipDrawImageI@16         004cecae f   gdiplus:gdiplus.dll
 0001:000cdcb4       _GdipCloneImage@8          004cecb4 f   gdiplus:gdiplus.dll
 0001:000cdcba       _RtlUnwind@16              004cecba f   kernel32:KERNEL32.dll
 0001:000cdcc0       __fdopen                   004cecc0 f   LIBCMT:fdopen.obj
 0001:000cdcc0       _fdopen                    004cecc0 f   LIBCMT:fdopen.obj
 0002:00000000       __imp__RegOpenKeyExA@20    004dc000     advapi32:ADVAPI32.dll
 0002:00000004       __imp__RegQueryValueExA@24 004dc004     advapi32:ADVAPI32.dll
 0002:00000008       __imp__RegCloseKey@4       004dc008     advapi32:ADVAPI32.dll
 0002:0000000c       \177ADVAPI32_NULL_THUNK_DATA 004dc00c     advapi32:ADVAPI32.dll
 0002:00000010       __imp__PrintDlgA@4         004dc010     comdlg32:COMDLG32.dll
 0002:00000014       __imp__GetOpenFileNameA@4  004dc014     comdlg32:COMDLG32.dll
 0002:00000018       __imp__CommDlgExtendedError@0 004dc018     comdlg32:COMDLG32.dll
 0002:0000001c       \177COMDLG32_NULL_THUNK_DATA 004dc01c     comdlg32:COMDLG32.dll
 0002:00000020       __imp__DirectInput8Create@20 004dc020     AGKWindows:DINPUT8.dll
 0002:00000024       \177DINPUT8_NULL_THUNK_DATA 004dc024     AGKWindows:DINPUT8.dll
 0002:00000028       __imp__DirectSoundCreate8@12 004dc028     AGKWindows:DSOUND.dll
 0002:0000002c       \177DSOUND_NULL_THUNK_DATA 004dc02c     AGKWindows:DSOUND.dll
 0002:00000030       __imp__StretchBlt@44       004dc030     gdi32:GDI32.dll
 0002:00000034       __imp__CreateBitmap@20     004dc034     gdi32:GDI32.dll
 0002:00000038       __imp__StartPage@4         004dc038     gdi32:GDI32.dll
 0002:0000003c       __imp__StartDocA@8         004dc03c     gdi32:GDI32.dll
 0002:00000040       __imp__DeleteObject@4      004dc040     gdi32:GDI32.dll
 0002:00000044       __imp__BitBlt@36           004dc044     gdi32:GDI32.dll
 0002:00000048       __imp__EndPage@4           004dc048     gdi32:GDI32.dll
 0002:0000004c       __imp__GetDIBits@28        004dc04c     gdi32:GDI32.dll
 0002:00000050       __imp__SwapBuffers@4       004dc050     gdi32:GDI32.dll
 0002:00000054       __imp__ChoosePixelFormat@8 004dc054     gdi32:GDI32.dll
 0002:00000058       __imp__SetPixelFormat@12   004dc058     gdi32:GDI32.dll
 0002:0000005c       __imp__GetObjectA@12       004dc05c     gdi32:GDI32.dll
 0002:00000060       __imp__CreateDIBSection@24 004dc060     gdi32:GDI32.dll
 0002:00000064       __imp__CreateCompatibleDC@4 004dc064     gdi32:GDI32.dll
 0002:00000068       __imp__DeleteDC@4          004dc068     gdi32:GDI32.dll
 0002:0000006c       __imp__SelectObject@8      004dc06c     gdi32:GDI32.dll
 0002:00000070       __imp__SetDIBColorTable@16 004dc070     gdi32:GDI32.dll
 0002:00000074       __imp__EndDoc@4            004dc074     gdi32:GDI32.dll
 0002:00000078       __imp__GetDeviceCaps@8     004dc078     gdi32:GDI32.dll
 0002:0000007c       \177GDI32_NULL_THUNK_DATA  004dc07c     gdi32:GDI32.dll
 0002:00000080       __imp__gluBuild2DMipmaps@28 004dc080     AGKWindows:GLU32.dll
 0002:00000084       \177GLU32_NULL_THUNK_DATA  004dc084     AGKWindows:GLU32.dll
 0002:00000088       __imp__SetLastError@4      004dc088     kernel32:KERNEL32.dll
 0002:0000008c       __imp__GetModuleFileNameW@12 004dc08c     kernel32:KERNEL32.dll
 0002:00000090       __imp__FreeEnvironmentStringsW@4 004dc090     kernel32:KERNEL32.dll
 0002:00000094       __imp__TlsFree@4           004dc094     kernel32:KERNEL32.dll
 0002:00000098       __imp__TlsSetValue@8       004dc098     kernel32:KERNEL32.dll
 0002:0000009c       __imp__TlsGetValue@4       004dc09c     kernel32:KERNEL32.dll
 0002:000000a0       __imp__TlsAlloc@0          004dc0a0     kernel32:KERNEL32.dll
 0002:000000a4       __imp__IsValidCodePage@4   004dc0a4     kernel32:KERNEL32.dll
 0002:000000a8       __imp__GetOEMCP@0          004dc0a8     kernel32:KERNEL32.dll
 0002:000000ac       __imp__GetACP@0            004dc0ac     kernel32:KERNEL32.dll
 0002:000000b0       __imp__ExitProcess@4       004dc0b0     kernel32:KERNEL32.dll
 0002:000000b4       __imp__GetCurrentDirectoryW@8 004dc0b4     kernel32:KERNEL32.dll
 0002:000000b8       __imp__IsProcessorFeaturePresent@4 004dc0b8     kernel32:KERNEL32.dll
 0002:000000bc       __imp__IsDebuggerPresent@0 004dc0bc     kernel32:KERNEL32.dll
 0002:000000c0       __imp__SetUnhandledExceptionFilter@4 004dc0c0     kernel32:KERNEL32.dll
 0002:000000c4       __imp__UnhandledExceptionFilter@4 004dc0c4     kernel32:KERNEL32.dll
 0002:000000c8       __imp__GetCurrentProcess@0 004dc0c8     kernel32:KERNEL32.dll
 0002:000000cc       __imp__TerminateProcess@8  004dc0cc     kernel32:KERNEL32.dll
 0002:000000d0       __imp__LCMapStringW@24     004dc0d0     kernel32:KERNEL32.dll
 0002:000000d4       __imp__GetCPInfo@8         004dc0d4     kernel32:KERNEL32.dll
 0002:000000d8       __imp__SetFilePointer@16   004dc0d8     kernel32:KERNEL32.dll
 0002:000000dc       __imp__ReadFile@20         004dc0dc     kernel32:KERNEL32.dll
 0002:000000e0       __imp__VirtualQuery@12     004dc0e0     kernel32:KERNEL32.dll
 0002:000000e4       __imp__GetSystemInfo@4     004dc0e4     kernel32:KERNEL32.dll
 0002:000000e8       __imp__GetModuleHandleW@4  004dc0e8     kernel32:KERNEL32.dll
 0002:000000ec       __imp__GetProcAddress@8    004dc0ec     kernel32:KERNEL32.dll
 0002:000000f0       __imp__VirtualAlloc@16     004dc0f0     kernel32:KERNEL32.dll
 0002:000000f4       __imp__VirtualProtect@16   004dc0f4     kernel32:KERNEL32.dll
 0002:000000f8       __imp__CreateThread@24     004dc0f8     kernel32:KERNEL32.dll
 0002:000000fc       __imp__GetCurrentThreadId@0 004dc0fc     kernel32:KERNEL32.dll
 0002:00000100       __imp__ExitThread@4        004dc100     kernel32:KERNEL32.dll
 0002:00000104       __imp__GetSystemTimeAsFileTime@4 004dc104     kernel32:KERNEL32.dll
 0002:00000108       __imp__FindFirstFileExA@24 004dc108     kernel32:KERNEL32.dll
 0002:0000010c       __imp__GetDriveTypeA@4     004dc10c     kernel32:KERNEL32.dll
 0002:00000110       __imp__FileTimeToLocalFileTime@8 004dc110     kernel32:KERNEL32.dll
 0002:00000114       __imp__FileTimeToSystemTime@8 004dc114     kernel32:KERNEL32.dll
 0002:00000118       __imp__FindClose@4         004dc118     kernel32:KERNEL32.dll
 0002:0000011c       __imp__RtlUnwind@16        004dc11c     kernel32:KERNEL32.dll
 0002:00000120       __imp__GetStartupInfoW@4   004dc120     kernel32:KERNEL32.dll
 0002:00000124       __imp__HeapSetInformation@16 004dc124     kernel32:KERNEL32.dll
 0002:00000128       __imp__GetCommandLineA@0   004dc128     kernel32:KERNEL32.dll
 0002:0000012c       __imp__GetFullPathNameA@16 004dc12c     kernel32:KERNEL32.dll
 0002:00000130       __imp__GetDriveTypeW@4     004dc130     kernel32:KERNEL32.dll
 0002:00000134       __imp__DecodePointer@4     004dc134     kernel32:KERNEL32.dll
 0002:00000138       __imp__GetEnvironmentStringsW@0 004dc138     kernel32:KERNEL32.dll
 0002:0000013c       __imp__GetStdHandle@4      004dc13c     kernel32:KERNEL32.dll
 0002:00000140       __imp__InitializeCriticalSection@4 004dc140     kernel32:KERNEL32.dll
 0002:00000144       __imp__EnterCriticalSection@4 004dc144     kernel32:KERNEL32.dll
 0002:00000148       __imp__LeaveCriticalSection@4 004dc148     kernel32:KERNEL32.dll
 0002:0000014c       __imp__InterlockedExchange@8 004dc14c     kernel32:KERNEL32.dll
 0002:00000150       __imp__MultiByteToWideChar@24 004dc150     kernel32:KERNEL32.dll
 0002:00000154       __imp__GetLastError@0      004dc154     kernel32:KERNEL32.dll
 0002:00000158       __imp__SizeofResource@8    004dc158     kernel32:KERNEL32.dll
 0002:0000015c       __imp__LockResource@4      004dc15c     kernel32:KERNEL32.dll
 0002:00000160       __imp__LoadResource@8      004dc160     kernel32:KERNEL32.dll
 0002:00000164       __imp__FindResourceW@12    004dc164     kernel32:KERNEL32.dll
 0002:00000168       __imp__FindResourceExW@16  004dc168     kernel32:KERNEL32.dll
 0002:0000016c       __imp__FindNextFileA@8     004dc16c     kernel32:KERNEL32.dll
 0002:00000170       __imp__GetCurrentDirectoryA@8 004dc170     kernel32:KERNEL32.dll
 0002:00000174       __imp__FindFirstFileA@8    004dc174     kernel32:KERNEL32.dll
 0002:00000178       __imp__SetCurrentDirectoryA@4 004dc178     kernel32:KERNEL32.dll
 0002:0000017c       __imp__GetModuleHandleA@4  004dc17c     kernel32:KERNEL32.dll
 0002:00000180       __imp__QueryPerformanceFrequency@4 004dc180     kernel32:KERNEL32.dll
 0002:00000184       __imp__QueryPerformanceCounter@4 004dc184     kernel32:KERNEL32.dll
 0002:00000188       __imp__Sleep@4             004dc188     kernel32:KERNEL32.dll
 0002:0000018c       __imp__RemoveDirectoryA@4  004dc18c     kernel32:KERNEL32.dll
 0002:00000190       __imp__WaitForSingleObject@8 004dc190     kernel32:KERNEL32.dll
 0002:00000194       __imp__OutputDebugStringA@4 004dc194     kernel32:KERNEL32.dll
 0002:00000198       __imp__CreateEventA@16     004dc198     kernel32:KERNEL32.dll
 0002:0000019c       __imp__SetEvent@4          004dc19c     kernel32:KERNEL32.dll
 0002:000001a0       __imp__CloseHandle@4       004dc1a0     kernel32:KERNEL32.dll
 0002:000001a4       __imp__DeleteFileA@4       004dc1a4     kernel32:KERNEL32.dll
 0002:000001a8       __imp__ResetEvent@4        004dc1a8     kernel32:KERNEL32.dll
 0002:000001ac       __imp__CopyFileA@12        004dc1ac     kernel32:KERNEL32.dll
 0002:000001b0       __imp__CreateDirectoryA@8  004dc1b0     kernel32:KERNEL32.dll
 0002:000001b4       __imp__lstrlenA@4          004dc1b4     kernel32:KERNEL32.dll
 0002:000001b8       __imp__GetModuleFileNameA@12 004dc1b8     kernel32:KERNEL32.dll
 0002:000001bc       __imp__DeleteCriticalSection@4 004dc1bc     kernel32:KERNEL32.dll
 0002:000001c0       __imp__LocalFree@4         004dc1c0     kernel32:KERNEL32.dll
 0002:000001c4       __imp__FormatMessageA@28   004dc1c4     kernel32:KERNEL32.dll
 0002:000001c8       __imp__RaiseException@16   004dc1c8     kernel32:KERNEL32.dll
 0002:000001cc       __imp__InitializeCriticalSectionAndSpinCount@8 004dc1cc     kernel32:KERNEL32.dll
 0002:000001d0       __imp__HeapDestroy@4       004dc1d0     kernel32:KERNEL32.dll
 0002:000001d4       __imp__HeapAlloc@12        004dc1d4     kernel32:KERNEL32.dll
 0002:000001d8       __imp__HeapFree@12         004dc1d8     kernel32:KERNEL32.dll
 0002:000001dc       __imp__HeapReAlloc@16      004dc1dc     kernel32:KERNEL32.dll
 0002:000001e0       __imp__HeapSize@12         004dc1e0     kernel32:KERNEL32.dll
 0002:000001e4       __imp__GetProcessHeap@0    004dc1e4     kernel32:KERNEL32.dll
 0002:000001e8       __imp__InterlockedDecrement@4 004dc1e8     kernel32:KERNEL32.dll
 0002:000001ec       __imp__InterlockedIncrement@4 004dc1ec     kernel32:KERNEL32.dll
 0002:000001f0       __imp__WideCharToMultiByte@32 004dc1f0     kernel32:KERNEL32.dll
 0002:000001f4       __imp__SetHandleCount@4    004dc1f4     kernel32:KERNEL32.dll
 0002:000001f8       __imp__GetFileType@4       004dc1f8     kernel32:KERNEL32.dll
 0002:000001fc       __imp__HeapCreate@12       004dc1fc     kernel32:KERNEL32.dll
 0002:00000200       __imp__GetTickCount@0      004dc200     kernel32:KERNEL32.dll
 0002:00000204       __imp__GetCurrentProcessId@0 004dc204     kernel32:KERNEL32.dll
 0002:00000208       __imp__GetLocaleInfoW@16   004dc208     kernel32:KERNEL32.dll
 0002:0000020c       __imp__GetFileInformationByHandle@8 004dc20c     kernel32:KERNEL32.dll
 0002:00000210       __imp__PeekNamedPipe@24    004dc210     kernel32:KERNEL32.dll
 0002:00000214       __imp__CreateFileA@28      004dc214     kernel32:KERNEL32.dll
 0002:00000218       __imp__GetTimeZoneInformation@4 004dc218     kernel32:KERNEL32.dll
 0002:0000021c       __imp__GetConsoleCP@0      004dc21c     kernel32:KERNEL32.dll
 0002:00000220       __imp__GetConsoleMode@8    004dc220     kernel32:KERNEL32.dll
 0002:00000224       __imp__SetStdHandle@8      004dc224     kernel32:KERNEL32.dll
 0002:00000228       __imp__GetStringTypeW@16   004dc228     kernel32:KERNEL32.dll
 0002:0000022c       __imp__GetUserDefaultLCID@0 004dc22c     kernel32:KERNEL32.dll
 0002:00000230       __imp__GetLocaleInfoA@16   004dc230     kernel32:KERNEL32.dll
 0002:00000234       __imp__EnumSystemLocalesA@8 004dc234     kernel32:KERNEL32.dll
 0002:00000238       __imp__IsValidLocale@8     004dc238     kernel32:KERNEL32.dll
 0002:0000023c       __imp__SetEnvironmentVariableA@8 004dc23c     kernel32:KERNEL32.dll
 0002:00000240       __imp__LoadLibraryW@4      004dc240     kernel32:KERNEL32.dll
 0002:00000244       __imp__SetEndOfFile@4      004dc244     kernel32:KERNEL32.dll
 0002:00000248       __imp__FlushFileBuffers@4  004dc248     kernel32:KERNEL32.dll
 0002:0000024c       __imp__WriteConsoleW@20    004dc24c     kernel32:KERNEL32.dll
 0002:00000250       __imp__WriteFile@20        004dc250     kernel32:KERNEL32.dll
 0002:00000254       __imp__CreateFileW@28      004dc254     kernel32:KERNEL32.dll
 0002:00000258       __imp__CompareStringW@24   004dc258     kernel32:KERNEL32.dll
 0002:0000025c       __imp__EncodePointer@4     004dc25c     kernel32:KERNEL32.dll
 0002:00000260       \177KERNEL32_NULL_THUNK_DATA 004dc260     kernel32:KERNEL32.dll
 0002:00000264       __imp__glDepthMask@4       004dc264     OpenGL32:OPENGL32.dll
 0002:00000268       __imp__glTexImage2D@36     004dc268     OpenGL32:OPENGL32.dll
 0002:0000026c       __imp__glGenTextures@8     004dc26c     OpenGL32:OPENGL32.dll
 0002:00000270       __imp__glReadPixels@28     004dc270     OpenGL32:OPENGL32.dll
 0002:00000274       __imp__glReadBuffer@4      004dc274     OpenGL32:OPENGL32.dll
 0002:00000278       __imp__glDrawArrays@12     004dc278     OpenGL32:OPENGL32.dll
 0002:0000027c       __imp__glColorPointer@16   004dc27c     OpenGL32:OPENGL32.dll
 0002:00000280       __imp__glVertexPointer@16  004dc280     OpenGL32:OPENGL32.dll
 0002:00000284       __imp__glTexCoordPointer@16 004dc284     OpenGL32:OPENGL32.dll
 0002:00000288       __imp__glDrawElements@16   004dc288     OpenGL32:OPENGL32.dll
 0002:0000028c       __imp__glGetFloatv@8       004dc28c     OpenGL32:OPENGL32.dll
 0002:00000290       __imp__glTexEnvf@12        004dc290     OpenGL32:OPENGL32.dll
 0002:00000294       __imp__glPointSize@4       004dc294     OpenGL32:OPENGL32.dll
 0002:00000298       __imp__glTexParameteri@12  004dc298     OpenGL32:OPENGL32.dll
 0002:0000029c       __imp__glGetTexImage@20    004dc29c     OpenGL32:OPENGL32.dll
 0002:000002a0       __imp__glTexSubImage2D@36  004dc2a0     OpenGL32:OPENGL32.dll
 0002:000002a4       __imp__glDeleteTextures@8  004dc2a4     OpenGL32:OPENGL32.dll
 0002:000002a8       __imp__glDisableClientState@4 004dc2a8     OpenGL32:OPENGL32.dll
 0002:000002ac       __imp__glBindTexture@8     004dc2ac     OpenGL32:OPENGL32.dll
 0002:000002b0       __imp__glScissor@16        004dc2b0     OpenGL32:OPENGL32.dll
 0002:000002b4       __imp__glFlush@0           004dc2b4     OpenGL32:OPENGL32.dll
 0002:000002b8       __imp__glViewport@16       004dc2b8     OpenGL32:OPENGL32.dll
 0002:000002bc       __imp__glClearColor@16     004dc2bc     OpenGL32:OPENGL32.dll
 0002:000002c0       __imp__glClearDepth@8      004dc2c0     OpenGL32:OPENGL32.dll
 0002:000002c4       __imp__glClear@4           004dc2c4     OpenGL32:OPENGL32.dll
 0002:000002c8       __imp__glEnableClientState@4 004dc2c8     OpenGL32:OPENGL32.dll
 0002:000002cc       __imp__wglGetProcAddress@4 004dc2cc     OpenGL32:OPENGL32.dll
 0002:000002d0       __imp__glGetString@4       004dc2d0     OpenGL32:OPENGL32.dll
 0002:000002d4       __imp__wglMakeCurrent@8    004dc2d4     OpenGL32:OPENGL32.dll
 0002:000002d8       __imp__wglCreateContext@4  004dc2d8     OpenGL32:OPENGL32.dll
 0002:000002dc       __imp__glOrtho@48          004dc2dc     OpenGL32:OPENGL32.dll
 0002:000002e0       __imp__glEnable@4          004dc2e0     OpenGL32:OPENGL32.dll
 0002:000002e4       __imp__glDepthFunc@4       004dc2e4     OpenGL32:OPENGL32.dll
 0002:000002e8       __imp__glShadeModel@4      004dc2e8     OpenGL32:OPENGL32.dll
 0002:000002ec       __imp__glLoadIdentity@0    004dc2ec     OpenGL32:OPENGL32.dll
 0002:000002f0       __imp__glMatrixMode@4      004dc2f0     OpenGL32:OPENGL32.dll
 0002:000002f4       __imp__glRotatef@16        004dc2f4     OpenGL32:OPENGL32.dll
 0002:000002f8       __imp__glScalef@12         004dc2f8     OpenGL32:OPENGL32.dll
 0002:000002fc       __imp__glTranslatef@12     004dc2fc     OpenGL32:OPENGL32.dll
 0002:00000300       __imp__glDisable@4         004dc300     OpenGL32:OPENGL32.dll
 0002:00000304       __imp__glBlendFunc@8       004dc304     OpenGL32:OPENGL32.dll
 0002:00000308       __imp__glAlphaFunc@8       004dc308     OpenGL32:OPENGL32.dll
 0002:0000030c       __imp__glTexParameterf@12  004dc30c     OpenGL32:OPENGL32.dll
 0002:00000310       \177OPENGL32_NULL_THUNK_DATA 004dc310     OpenGL32:OPENGL32.dll
 0002:00000314       __imp__SHGetSpecialFolderPathA@16 004dc314     shell32:SHELL32.dll
 0002:00000318       __imp__ShellExecuteA@24    004dc318     shell32:SHELL32.dll
 0002:0000031c       \177SHELL32_NULL_THUNK_DATA 004dc31c     shell32:SHELL32.dll
 0002:00000320       __imp__PathFindExtensionW@4 004dc320     shlwapi:SHLWAPI.dll
 0002:00000324       __imp__PathFindExtensionA@4 004dc324     shlwapi:SHLWAPI.dll
 0002:00000328       \177SHLWAPI_NULL_THUNK_DATA 004dc328     shlwapi:SHLWAPI.dll
 0002:0000032c       __imp__ReleaseCapture@0    004dc32c     user32:USER32.dll
 0002:00000330       __imp__AdjustWindowRectEx@16 004dc330     user32:USER32.dll
 0002:00000334       __imp__DispatchMessageA@4  004dc334     user32:USER32.dll
 0002:00000338       __imp__ShowWindow@8        004dc338     user32:USER32.dll
 0002:0000033c       __imp__GetDesktopWindow@0  004dc33c     user32:USER32.dll
 0002:00000340       __imp__DefWindowProcA@16   004dc340     user32:USER32.dll
 0002:00000344       __imp__PeekMessageA@20     004dc344     user32:USER32.dll
 0002:00000348       __imp__CreateWindowExA@48  004dc348     user32:USER32.dll
 0002:0000034c       __imp__MessageBoxA@16      004dc34c     user32:USER32.dll
 0002:00000350       __imp__UpdateWindow@4      004dc350     user32:USER32.dll
 0002:00000354       __imp__GetSystemMetrics@4  004dc354     user32:USER32.dll
 0002:00000358       __imp__TranslateMessage@4  004dc358     user32:USER32.dll
 0002:0000035c       __imp__LoadIconA@8         004dc35c     user32:USER32.dll
 0002:00000360       __imp__SetCapture@4        004dc360     user32:USER32.dll
 0002:00000364       __imp__PostQuitMessage@4   004dc364     user32:USER32.dll
 0002:00000368       __imp__RegisterClassExA@4  004dc368     user32:USER32.dll
 0002:0000036c       __imp__GetWindowRect@8     004dc36c     user32:USER32.dll
 0002:00000370       __imp__SetWindowTextA@8    004dc370     user32:USER32.dll
 0002:00000374       __imp__GetClientRect@8     004dc374     user32:USER32.dll
 0002:00000378       __imp__SetWindowPos@28     004dc378     user32:USER32.dll
 0002:0000037c       __imp__SetWindowLongA@12   004dc37c     user32:USER32.dll
 0002:00000380       __imp__GetWindowLongA@8    004dc380     user32:USER32.dll
 0002:00000384       __imp__DestroyWindow@4     004dc384     user32:USER32.dll
 0002:00000388       __imp__ShowCursor@4        004dc388     user32:USER32.dll
 0002:0000038c       __imp__LoadCursorA@8       004dc38c     user32:USER32.dll
 0002:00000390       __imp__GetDC@4             004dc390     user32:USER32.dll
 0002:00000394       \177USER32_NULL_THUNK_DATA 004dc394     user32:USER32.dll
 0002:00000398       __imp__InternetCloseHandle@4 004dc398     AGKWindows:WININET.dll
 0002:0000039c       __imp__InternetReadFile@16 004dc39c     AGKWindows:WININET.dll
 0002:000003a0       __imp__HttpQueryInfoA@20   004dc3a0     AGKWindows:WININET.dll
 0002:000003a4       __imp__HttpSendRequestA@20 004dc3a4     AGKWindows:WININET.dll
 0002:000003a8       __imp__HttpOpenRequestA@32 004dc3a8     AGKWindows:WININET.dll
 0002:000003ac       __imp__InternetConnectA@32 004dc3ac     AGKWindows:WININET.dll
 0002:000003b0       __imp__InternetOpenA@20    004dc3b0     AGKWindows:WININET.dll
 0002:000003b4       __imp__HttpEndRequestA@16  004dc3b4     AGKWindows:WININET.dll
 0002:000003b8       __imp__InternetWriteFile@16 004dc3b8     AGKWindows:WININET.dll
 0002:000003bc       __imp__HttpSendRequestExA@20 004dc3bc     AGKWindows:WININET.dll
 0002:000003c0       __imp__HttpAddRequestHeadersA@16 004dc3c0     AGKWindows:WININET.dll
 0002:000003c4       \177WININET_NULL_THUNK_DATA 004dc3c4     AGKWindows:WININET.dll
 0002:000003c8       __imp__getpeername@12      004dc3c8     AGKWindows:WSOCK32.dll
 0002:000003cc       __imp__sendto@24           004dc3cc     AGKWindows:WSOCK32.dll
 0002:000003d0       __imp__inet_addr@4         004dc3d0     AGKWindows:WSOCK32.dll
 0002:000003d4       __imp__inet_ntoa@4         004dc3d4     AGKWindows:WSOCK32.dll
 0002:000003d8       __imp__recvfrom@24         004dc3d8     AGKWindows:WSOCK32.dll
 0002:000003dc       __imp__ioctlsocket@12      004dc3dc     AGKWindows:WSOCK32.dll
 0002:000003e0       __imp__recv@16             004dc3e0     AGKWindows:WSOCK32.dll
 0002:000003e4       __imp__shutdown@8          004dc3e4     AGKWindows:WSOCK32.dll
 0002:000003e8       __imp__connect@12          004dc3e8     AGKWindows:WSOCK32.dll
 0002:000003ec       __imp__setsockopt@20       004dc3ec     AGKWindows:WSOCK32.dll
 0002:000003f0       __imp__send@16             004dc3f0     AGKWindows:WSOCK32.dll
 0002:000003f4       __imp__WSAStartup@8        004dc3f4     AGKWindows:WSOCK32.dll
 0002:000003f8       __imp__WSACleanup@0        004dc3f8     AGKWindows:WSOCK32.dll
 0002:000003fc       __imp__closesocket@4       004dc3fc     AGKWindows:WSOCK32.dll
 0002:00000400       __imp__bind@12             004dc400     AGKWindows:WSOCK32.dll
 0002:00000404       __imp__htons@4             004dc404     AGKWindows:WSOCK32.dll
 0002:00000408       __imp__WSAGetLastError@0   004dc408     AGKWindows:WSOCK32.dll
 0002:0000040c       __imp__listen@8            004dc40c     AGKWindows:WSOCK32.dll
 0002:00000410       __imp__accept@12           004dc410     AGKWindows:WSOCK32.dll
 0002:00000414       __imp__socket@12           004dc414     AGKWindows:WSOCK32.dll
 0002:00000418       \177WSOCK32_NULL_THUNK_DATA 004dc418     AGKWindows:WSOCK32.dll
 0002:0000041c       __imp__GdipBitmapUnlockBits@8 004dc41c     gdiplus:gdiplus.dll
 0002:00000420       __imp__GdipBitmapLockBits@20 004dc420     gdiplus:gdiplus.dll
 0002:00000424       __imp__GdipGetImageEncoders@12 004dc424     gdiplus:gdiplus.dll
 0002:00000428       __imp__GdipCreateBitmapFromHBITMAP@12 004dc428     gdiplus:gdiplus.dll
 0002:0000042c       __imp__GdipCreateBitmapFromFile@8 004dc42c     gdiplus:gdiplus.dll
 0002:00000430       __imp__GdiplusStartup@12   004dc430     gdiplus:gdiplus.dll
 0002:00000434       __imp__GdiplusShutdown@4   004dc434     gdiplus:gdiplus.dll
 0002:00000438       __imp__GdipGetImageGraphicsContext@8 004dc438     gdiplus:gdiplus.dll
 0002:0000043c       __imp__GdipDrawImageI@16   004dc43c     gdiplus:gdiplus.dll
 0002:00000440       __imp__GdipCloneImage@8    004dc440     gdiplus:gdiplus.dll
 0002:00000444       __imp__GdipCreateBitmapFromScan0@24 004dc444     gdiplus:gdiplus.dll
 0002:00000448       __imp__GdipFree@4          004dc448     gdiplus:gdiplus.dll
 0002:0000044c       __imp__GdipAlloc@4         004dc44c     gdiplus:gdiplus.dll
 0002:00000450       __imp__GdipDeleteGraphics@4 004dc450     gdiplus:gdiplus.dll
 0002:00000454       __imp__GdipDisposeImage@4  004dc454     gdiplus:gdiplus.dll
 0002:00000458       __imp__GdipSaveImageToFile@16 004dc458     gdiplus:gdiplus.dll
 0002:0000045c       __imp__GdipGetImageWidth@8 004dc45c     gdiplus:gdiplus.dll
 0002:00000460       __imp__GdipGetImageHeight@8 004dc460     gdiplus:gdiplus.dll
 0002:00000464       __imp__GdipGetImagePixelFormat@8 004dc464     gdiplus:gdiplus.dll
 0002:00000468       __imp__GdipGetImagePaletteSize@8 004dc468     gdiplus:gdiplus.dll
 0002:0000046c       __imp__GdipGetImagePalette@12 004dc46c     gdiplus:gdiplus.dll
 0002:00000470       __imp__GdipGetImageEncodersSize@8 004dc470     gdiplus:gdiplus.dll
 0002:00000474       \177gdiplus_NULL_THUNK_DATA 004dc474     gdiplus:gdiplus.dll
 0002:00000478       __imp__CoCreateInstance@20 004dc478     ole32:ole32.dll
 0002:0000047c       __imp__CreateBindCtx@8     004dc47c     ole32:ole32.dll
 0002:00000480       __imp__CoUninitialize@0    004dc480     ole32:ole32.dll
 0002:00000484       __imp__CoInitialize@4      004dc484     ole32:ole32.dll
 0002:00000488       \177ole32_NULL_THUNK_DATA  004dc488     ole32:ole32.dll
 0002:0000048c       ___xc_a                    004dc48c     LIBCMT:crt0init.obj
 0002:000005e8       ___xc_z                    004dc5e8     LIBCMT:crt0init.obj
 0002:000005ec       ___xi_a                    004dc5ec     LIBCMT:crt0init.obj
 0002:0000060c       ___xi_z                    004dc60c     LIBCMT:crt0init.obj
 0002:00000610       ___xp_a                    004dc610     LIBCMT:crt0init.obj
 0002:0000061c       ___xp_z                    004dc61c     LIBCMT:crt0init.obj
 0002:00000620       ___xt_a                    004dc620     LIBCMT:crt0init.obj
 0002:00000624       ___xt_z                    004dc624     LIBCMT:crt0init.obj
 0002:0000688c       ??_7b2Draw@@6B@            004e288c     AGKWindows:Wrapper.obj
 0002:000068ac       ??_7b2Shape@@6B@           004e28ac     AGKWindows:Wrapper.obj
 0002:000068cc       ??_7b2RayCastCallback@@6B@ 004e28cc     AGKWindows:Wrapper.obj
 0002:000068d4       __real@3f333333            004e28d4     AGKWindows:Wrapper.obj
 0002:000068d8       __real@bf800000            004e28d8     AGKWindows:Wrapper.obj
 0002:000068e0       ??_7DebugDraw@AGK@@6B@     004e28e0     AGKWindows:Wrapper.obj
 0002:00006900       __real@406fe00000000000    004e2900     AGKWindows:Wrapper.obj
 0002:00006908       __real@4f800000            004e2908     AGKWindows:Wrapper.obj
 0002:00006910       __real@4056800000000000    004e2910     AGKWindows:Wrapper.obj
 0002:00006918       __real@43870000            004e2918     AGKWindows:Wrapper.obj
 0002:0000691c       __real@42b40000            004e291c     AGKWindows:Wrapper.obj
 0002:00006920       __real@43340000            004e2920     AGKWindows:Wrapper.obj
 0002:00006928       __real@4012d97c80000000    004e2928     AGKWindows:Wrapper.obj
 0002:00006930       __real@3ff921fb60000000    004e2930     AGKWindows:Wrapper.obj
 0002:00006938       __real@4096cbe4            004e2938     AGKWindows:Wrapper.obj
 0002:0000693c       __real@3fc90fdb            004e293c     AGKWindows:Wrapper.obj
 0002:00006940       __real@40490fdb            004e2940     AGKWindows:Wrapper.obj
 0002:00006948       __real@4074000000000000    004e2948     AGKWindows:Wrapper.obj
 0002:00006950       __real@3fe0000000000000    004e2950     AGKWindows:Wrapper.obj
 0002:0000695c       ??_7b2PolygonShape@@6B@    004e295c     AGKWindows:Wrapper.obj
 0002:00006978       __real@3c23d70a            004e2978     AGKWindows:Wrapper.obj
 0002:00006980       __real@403e000000000000    004e2980     AGKWindows:Wrapper.obj
 0002:00006988       __real@bff19999a0000000    004e2988     AGKWindows:Wrapper.obj
 0002:00006990       __real@3fa99999a0000000    004e2990     AGKWindows:Wrapper.obj
 0002:00006998       __real@3fee666660000000    004e2998     AGKWindows:Wrapper.obj
 0002:000069a0       __real@42700000            004e29a0     AGKWindows:Wrapper.obj
 0002:000069a8       __real@3fc99999a0000000    004e29a8     AGKWindows:Wrapper.obj
 0002:000069b0       __real@408f400000000000    004e29b0     AGKWindows:Wrapper.obj
 0002:000069b8       __real@38d1b717            004e29b8     AGKWindows:Wrapper.obj
 0002:000069c0       __real@3f1a36e2e0000000    004e29c0     AGKWindows:Wrapper.obj
 0002:000069c8       __real@3fe3333340000000    004e29c8     AGKWindows:Wrapper.obj
 0002:000069d0       __real@3fd0000000000000    004e29d0     AGKWindows:Wrapper.obj
 0002:000069d8       __real@3fe6666660000000    004e29d8     AGKWindows:Wrapper.obj
 0002:000069e0       __real@4014000000000000    004e29e0     AGKWindows:Wrapper.obj
 0002:000069e8       __real@43a00000            004e29e8     AGKWindows:Wrapper.obj
 0002:000069f0       __real@4015333340000000    004e29f0     AGKWindows:Wrapper.obj
 0002:000069f8       __real@405e000000000000    004e29f8     AGKWindows:Wrapper.obj
 0002:00006a00       __real@3a83126f            004e2a00     AGKWindows:Wrapper.obj
 0002:00006a04       __real@3727c5ac            004e2a04     AGKWindows:Wrapper.obj
 0002:00006a08       __real@3f4ccccd            004e2a08     AGKWindows:Wrapper.obj
 0002:00006a10       __real@4008000000000000    004e2a10     AGKWindows:Wrapper.obj
 0002:00006a18       __real@bfa99999a0000000    004e2a18     AGKWindows:Wrapper.obj
 0002:00006a20       __real@4034000000000000    004e2a20     AGKWindows:Wrapper.obj
 0002:00006a28       __real@4006666660000000    004e2a28     AGKWindows:Wrapper.obj
 0002:00006a30       __real@4059000000000000    004e2a30     AGKWindows:Wrapper.obj
 0002:00006a38       __real@3fc0000000000000    004e2a38     AGKWindows:Wrapper.obj
 0002:00006a40       __real@43b40000            004e2a40     AGKWindows:Wrapper.obj
 0002:00006a44       __real@c3340000            004e2a44     AGKWindows:Wrapper.obj
 0002:00006a48       __real@401c000000000000    004e2a48     AGKWindows:Wrapper.obj
 0002:00006a50       __real@4076800000000000    004e2a50     AGKWindows:Wrapper.obj
 0002:00006a58       __real@47c35000            004e2a58     AGKWindows:Wrapper.obj
 0002:00006a5c       __real@3e19999a            004e2a5c     AGKWindows:Wrapper.obj
 0002:00006a60       __real@41200000            004e2a60     AGKWindows:Wrapper.obj
 0002:00006a64       __real@3f2aaaab            004e2a64     AGKWindows:Wrapper.obj
 0002:00006a68       __real@3c888889            004e2a68     AGKWindows:Wrapper.obj
 0002:00006a70       __real@4059466660000000    004e2a70     AGKWindows:Wrapper.obj
 0002:000081a4       ??_7Image@Gdiplus@@6B@     004e41a4     AGKWindows:WindowsCore.obj
 0002:000081b0       ??_7Bitmap@Gdiplus@@6B@    004e41b0     AGKWindows:WindowsCore.obj
 0002:000081bc       ??_7CImage@ATL@@6B@        004e41bc     AGKWindows:WindowsCore.obj
 0002:000081c0       __real@4020000000000000    004e41c0     AGKWindows:WindowsCore.obj
 0002:000081c8       __real@4032000000000000    004e41c8     AGKWindows:WindowsCore.obj
 0002:000081d0       __real@4036000000000000    004e41d0     AGKWindows:WindowsCore.obj
 0002:000081d8       __real@406f400000000000    004e41d8     AGKWindows:WindowsCore.obj
 0002:000081e0       __real@bff0000000000000    004e41e0     AGKWindows:WindowsCore.obj
 0002:000081e8       __real@3d4ccccd            004e41e8     AGKWindows:WindowsCore.obj
 0002:000081ec       __real@46240400            004e41ec     AGKWindows:WindowsCore.obj
 0002:000081f0       __real@47012f00            004e41f0     AGKWindows:WindowsCore.obj
 0002:000081f8       __real@3f999999a0000000    004e41f8     AGKWindows:WindowsCore.obj
 0002:00008200       __real@3f8374bc60000000    004e4200     AGKWindows:WindowsCore.obj
 0002:00008208       __real@4058000000000000    004e4208     AGKWindows:WindowsCore.obj
 0002:00008210       __real@4064000000000000    004e4210     AGKWindows:WindowsCore.obj
 0002:00008218       __real@3f80000000000000    004e4218     AGKWindows:WindowsCore.obj
 0002:00008220       __real@4440c000            004e4220     AGKWindows:WindowsCore.obj
 0002:00008224       __real@cb189680            004e4224     AGKWindows:WindowsCore.obj
 0002:00008228       __real@4b189680            004e4228     AGKWindows:WindowsCore.obj
 0002:00008230       __real@4060000000000000    004e4230     AGKWindows:WindowsCore.obj
 0002:00008238       __real@4030000000000000    004e4238     AGKWindows:WindowsCore.obj
 0002:00008240       __real@41800000            004e4240     AGKWindows:WindowsCore.obj
 0002:00008248       __real@3fd921fb60000000    004e4248     AGKWindows:WindowsCore.obj
 0002:00008250       __real@42800000            004e4250     AGKWindows:WindowsCore.obj
 0002:00008254       __real@42000000            004e4254     AGKWindows:WindowsCore.obj
 0002:00008258       __real@c61c4000            004e4258     AGKWindows:WindowsCore.obj
 0002:00008260       __real@40c3880000000000    004e4260     AGKWindows:WindowsCore.obj
 0002:00008268       __real@3f00000000000000    004e4268     AGKWindows:WindowsCore.obj
 0002:00008270       __real@3fbc28f5c0000000    004e4270     AGKWindows:WindowsCore.obj
 0002:00008278       __real@3fe2e147a0000000    004e4278     AGKWindows:WindowsCore.obj
 0002:00008280       __real@3fd3333340000000    004e4280     AGKWindows:WindowsCore.obj
 0002:00008288       ??_C@_13PJJBFPED@?$AA?$DL?$AA?$AA@ 004e4288     AGKWindows:WindowsCore.obj
 0002:000082ec       __real@40800000            004e42ec     AGKWindows:cText.obj
 0002:00009150       ??_7AGKThread@AGK@@6B@     004e5150     AGKWindows:Network.obj
 0002:00009164       ??_7cFileSender@AGK@@6B@   004e5164     AGKWindows:Network.obj
 0002:00009178       ??_7cFileReceiver@AGK@@6B@ 004e5178     AGKWindows:Network.obj
 0002:0000918c       ??_7cFileBroadcaster@AGK@@6B@ 004e518c     AGKWindows:Network.obj
 0002:000091a0       ??_7cNetwork@AGK@@6B@      004e51a0     AGKWindows:Network.obj
 0002:000091fc       __real@41a00000            004e51fc     AGKWindows:Joystick.obj
 0002:00009a28       __real@404ca5dc00000000    004e5a28     AGKWindows:cSprite.obj
 0002:00009a30       __real@401921fb60000000    004e5a30     AGKWindows:cSprite.obj
 0002:00009a38       __real@40c90fdb            004e5a38     AGKWindows:cSprite.obj
 0002:00009a40       __real@3f91df46a0000000    004e5a40     AGKWindows:cSprite.obj
 0002:00009a48       __real@3dcccccd            004e5a48     AGKWindows:cSprite.obj
 0002:00009a4c       __real@3e99999a            004e5a4c     AGKWindows:cSprite.obj
 0002:00009a54       ??_7b2CircleShape@@6B@     004e5a54     AGKWindows:cSprite.obj
 0002:00009a70       __real@3f70000000000000    004e5a70     AGKWindows:cSprite.obj
 0002:00009a78       __real@34000000            004e5a78     AGKWindows:cSprite.obj
 0002:00009a7c       __real@ff7fffff            004e5a7c     AGKWindows:cSprite.obj
 0002:0000ab68       ??_7AGKSocket@AGK@@6B@     004e6b68     AGKWindows:WindowsNetwork.obj
 0002:0000ab7c       ??_7cNetworkListener@AGK@@6B@ 004e6b7c     AGKWindows:WindowsNetwork.obj
 0002:0000ab90       ??_7Broadcaster@AGK@@6B@   004e6b90     AGKWindows:WindowsNetwork.obj
 0002:0000aba4       ??_7cHTTPConnection@AGK@@6B@ 004e6ba4     AGKWindows:WindowsNetwork.obj
 0002:0000abb4       __real@42c7cccd            004e6bb4     AGKWindows:WindowsNetwork.obj
 0002:0000ac28       __real@407f400000000000    004e6c28     AGKWindows:Particles.obj
 0002:0000ac30       __real@3fb99999a0000000    004e6c30     AGKWindows:Particles.obj
 0002:0000ac38       __real@461c4000            004e6c38     AGKWindows:Particles.obj
 0002:0000ac40       __real@40efffe000000000    004e6c40     AGKWindows:Particles.obj
 0002:0000ac54       __real@3fc00000            004e6c54     AGKWindows:cTextEntry.obj
 0002:0000ac58       __real@3f19999a            004e6c58     AGKWindows:cTextEntry.obj
 0002:0000ac5c       __real@41900000            004e6c5c     AGKWindows:cTextEntry.obj
 0002:0000ae60       __real@3feffffd80000000    004e6e60     AGKWindows:b2World.obj
 0002:0000ae6c       ??_7cSpriteMgr@AGK@@6B@    004e6e6c     AGKWindows:cSpriteMgr.obj
 0002:0000ae74       __real@3f451eb8            004e6e74     AGKWindows:cSpriteMgr.obj
 0002:0000ae78       __real@3ecccccd            004e6e78     AGKWindows:cSpriteMgr.obj
 0002:0000ae80       ??_7MyRayCastCallback@AGK@@6B@ 004e6e80     AGKWindows:DebugDraw.obj
 0002:0000ae88       __real@4042000000000000    004e6e88     AGKWindows:cTouch.obj
 0002:0000b298       __real@3fd5555560000000    004e7298     AGKWindows:b2PolygonShape.obj
 0002:0000b2a0       __real@3fb5555560000000    004e72a0     AGKWindows:b2PolygonShape.obj
 0002:0000b2ac       ??_7b2Joint@@6B@           004e72ac     AGKWindows:b2RevoluteJoint.obj
 0002:0000b2d0       ??_7b2RevoluteJoint@@6B@   004e72d0     AGKWindows:b2RevoluteJoint.obj
 0002:0000b2f0       __real@3d8efa36            004e72f0     AGKWindows:b2RevoluteJoint.obj
 0002:0000b2f4       __real@3d0efa36            004e72f4     AGKWindows:b2RevoluteJoint.obj
 0002:0000b2f8       __real@3ba3d70a            004e72f8     AGKWindows:b2RevoluteJoint.obj
 0002:0000b300       __real@3fa1df46c0000000    004e7300     AGKWindows:b2RevoluteJoint.obj
 0002:0000b308       __real@be0efa36            004e7308     AGKWindows:b2RevoluteJoint.obj
 0002:0000b30c       __real@3e0efa36            004e730c     AGKWindows:b2RevoluteJoint.obj
 0002:0000b314       ??_7b2PrismaticJoint@@6B@  004e7314     AGKWindows:b2PrismaticJoint.obj
 0002:0000b338       __real@3f747ae140000000    004e7338     AGKWindows:b2PrismaticJoint.obj
 0002:0000b340       __real@be4ccccd            004e7340     AGKWindows:b2PrismaticJoint.obj
 0002:0000b348       __real@bfc99999a0000000    004e7348     AGKWindows:b2PrismaticJoint.obj
 0002:0000b354       ??_7b2WheelJoint@@6B@      004e7354     AGKWindows:b2WheelJoint.obj
 0002:0000b378       ??_7b2MouseJoint@@6B@      004e7378     AGKWindows:b2MouseJoint.obj
 0002:0000b398       __real@3fef5c2900000000    004e7398     AGKWindows:b2MouseJoint.obj
 0002:0000b3a4       ??_7b2DistanceJoint@@6B@   004e73a4     AGKWindows:b2DistanceJoint.obj
 0002:0000b3c8       ??_7b2PulleyJoint@@6B@     004e73c8     AGKWindows:b2PulleyJoint.obj
 0002:0000b3e8       __real@3fa9999980000000    004e73e8     AGKWindows:b2PulleyJoint.obj
 0002:0000b3f4       ??_7b2WeldJoint@@6B@       004e73f4     AGKWindows:b2WeldJoint.obj
 0002:0000b414       _GUID_ATLVer30             004e7414     AGKWindows:atlbase.obj
 0002:0000b424       _GUID_ATLVer70             004e7424     AGKWindows:atlbase.obj
 0002:0000b434       _GUID_ATLVer100            004e7434     AGKWindows:atlbase.obj
 0002:0000b634       _c_dfDIJoystick            004e7634     AGKWindows:dilib3.obj
 0002:0000b64c       _GUID_POV                  004e764c     AGKWindows:dxguid.obj
 0002:0000b65c       _GUID_Slider               004e765c     AGKWindows:dxguid.obj
 0002:0000b66c       _GUID_RzAxis               004e766c     AGKWindows:dxguid.obj
 0002:0000b67c       _GUID_RyAxis               004e767c     AGKWindows:dxguid.obj
 0002:0000b68c       _GUID_RxAxis               004e768c     AGKWindows:dxguid.obj
 0002:0000b69c       _GUID_ZAxis                004e769c     AGKWindows:dxguid.obj
 0002:0000b6ac       _GUID_YAxis                004e76ac     AGKWindows:dxguid.obj
 0002:0000b6bc       _GUID_XAxis                004e76bc     AGKWindows:dxguid.obj
 0002:0000b6cc       _IID_IDirectInput8A        004e76cc     AGKWindows:dxguid.obj
 0002:0000b6dc       ??_7CWin32Heap@ATL@@6B@    004e76dc     AGKWindows:atlstr.obj
 0002:0000b6f0       ??_7CAtlStringMgr@ATL@@6B@ 004e76f0     AGKWindows:atlstr.obj
 0002:0000b70c       ??_7bad_alloc@std@@6B@     004e770c     AGKWindows:QRCodeReader.obj
 0002:0000b718       ??_7Counted@zxing@@6B@     004e7718     AGKWindows:QRCodeReader.obj
 0002:0000b720       ??_7QRCodeReader@qrcode@zxing@@6B@ 004e7720     AGKWindows:QRCodeReader.obj
 0002:0000b730       ??_7?$ArrayRef@E@zxing@@6B@ 004e7730     AGKWindows:QRCodeReader.obj
 0002:0000b734       ??_C@_0BD@OLBABOEK@vector?$DMT?$DO?5too?5long?$AA@ 004e7734     AGKWindows:QRCodeReader.obj
 0002:0000b74c       ??_7runtime_error@std@@6B@ 004e774c     AGKWindows:Str.obj
 0002:0000b758       ??_7system_error@std@@6B@  004e7758     AGKWindows:Str.obj
 0002:0000b764       ??_7failure@ios_base@std@@6B@ 004e7764     AGKWindows:Str.obj
 0002:0000b76c       ??_C@_0BF@OOHOMBOF@ios_base?3?3eofbit?5set?$AA@ 004e776c     AGKWindows:Str.obj
 0002:0000b784       ??_C@_0BG@FMKFHCIL@ios_base?3?3failbit?5set?$AA@ 004e7784     AGKWindows:Str.obj
 0002:0000b79c       ??_C@_0BF@PHHKMMFD@ios_base?3?3badbit?5set?$AA@ 004e779c     AGKWindows:Str.obj
 0002:0000b7b8       ??_7String@zxing@@6B@      004e77b8     AGKWindows:Str.obj
 0002:0000b7cc       ??_7facet@locale@std@@6B@  004e77cc     AGKWindows:Result.obj
 0002:0000b7d4       ??_7?$num_put@DV?$ostreambuf_iterator@DU?$char_traits@D@std@@@std@@@std@@6B@ 004e77d4     AGKWindows:Result.obj
 0002:0000b7f8       ??_C@_05LAPONLG@false?$AA@ 004e77f8     AGKWindows:Result.obj
 0002:0000b800       ??_C@_04LOAJBDKD@true?$AA@ 004e7800     AGKWindows:Result.obj
 0002:0000b808       ??_C@_0BA@ELKIONDK@bad?5locale?5name?$AA@ 004e7808     AGKWindows:Result.obj
 0002:0000b81c       ??_7?$numpunct@D@std@@6B@  004e781c     AGKWindows:Result.obj
 0002:0000b834       ??_C@_08EPJLHIJG@bad?5cast?$AA@ 004e7834     AGKWindows:Result.obj
 0002:0000b840       ??_C@_01KGKMHCOC@e?$AA@    004e7840     AGKWindows:Result.obj
 0002:0000b844       ??_C@_01DDCIFGEA@E?$AA@    004e7844     AGKWindows:Result.obj
 0002:0000b848       ??_C@_02EAOCLKAK@ld?$AA@   004e7848     AGKWindows:Result.obj
 0002:0000b84c       ??_C@_02BDDLJJBK@lu?$AA@   004e784c     AGKWindows:Result.obj
 0002:0000b850       ??_C@_02HIKPPMOK@Ld?$AA@   004e7850     AGKWindows:Result.obj
 0002:0000b854       ??_C@_02CLHGNPPK@Lu?$AA@   004e7854     AGKWindows:Result.obj
 0002:0000b858       __real@38aa95a5b7f87a0f    004e7858     AGKWindows:Result.obj
 0002:0000b860       __real@4202a05f20000000    004e7860     AGKWindows:Result.obj
 0002:0000b868       __real@4733426172c74d82    004e7868     AGKWindows:Result.obj
 0002:0000b870       ??_C@_02BBAHNLBA@?$CFp?$AA@ 004e7870     AGKWindows:Result.obj
 0002:0000b878       ??_7Result@zxing@@6B@      004e7878     AGKWindows:Result.obj
 0002:0000b87c       ?BARCODEFORMAT_QR_CODE_HINT@DecodeHints@zxing@@2IB 004e787c     AGKWindows:DecodeHints.obj
 0002:0000b880       ?BARCODEFORMAT_DATA_MATRIX_HINT@DecodeHints@zxing@@2IB 004e7880     AGKWindows:DecodeHints.obj
 0002:0000b884       ?BARCODEFORMAT_UPC_E_HINT@DecodeHints@zxing@@2IB 004e7884     AGKWindows:DecodeHints.obj
 0002:0000b888       ?BARCODEFORMAT_UPC_A_HINT@DecodeHints@zxing@@2IB 004e7888     AGKWindows:DecodeHints.obj
 0002:0000b88c       ?BARCODEFORMAT_EAN_8_HINT@DecodeHints@zxing@@2IB 004e788c     AGKWindows:DecodeHints.obj
 0002:0000b890       ?BARCODEFORMAT_EAN_13_HINT@DecodeHints@zxing@@2IB 004e7890     AGKWindows:DecodeHints.obj
 0002:0000b894       ?BARCODEFORMAT_CODE_128_HINT@DecodeHints@zxing@@2IB 004e7894     AGKWindows:DecodeHints.obj
 0002:0000b898       ?BARCODEFORMAT_CODE_39_HINT@DecodeHints@zxing@@2IB 004e7898     AGKWindows:DecodeHints.obj
 0002:0000b89c       ?BARCODEFORMAT_ITF_HINT@DecodeHints@zxing@@2IB 004e789c     AGKWindows:DecodeHints.obj
 0002:0000b8a0       ?CHARACTER_SET@DecodeHints@zxing@@2IB 004e78a0     AGKWindows:DecodeHints.obj
 0002:0000b8a4       ?TRYHARDER_HINT@DecodeHints@zxing@@2IB 004e78a4     AGKWindows:DecodeHints.obj
 0002:0000b8e4       ??_7Exception@zxing@@6B@   004e78e4     AGKWindows:DecodeHints.obj
 0002:0000b8f0       ??_7IllegalArgumentException@zxing@@6B@ 004e78f0     AGKWindows:DecodeHints.obj
 0002:0000b8fc       ??_7BinaryBitmap@zxing@@6B@ 004e78fc     AGKWindows:BinaryBitmap.obj
 0002:0000b954       ??_7GlobalHistogramBinarizer@zxing@@6B@ 004e7954     AGKWindows:GlobalHistogramBinarizer.obj
 0002:0000b968       ??_7?$Array@E@zxing@@6B@   004e7968     AGKWindows:GlobalHistogramBinarizer.obj
 0002:0000b9c8       ??_7GreyscaleLuminanceSource@zxing@@6B@ 004e79c8     AGKWindows:GreyscaleLuminanceSource.obj
 0002:0000ba2c       __real@49742400            004e7a2c     AGKWindows:Physics.obj
 0002:0000ba30       __real@b58637bd            004e7a30     AGKWindows:Physics.obj
 0002:0000ba34       __real@358637bd            004e7a34     AGKWindows:Physics.obj
 0002:0000ba38       __real@7f7fffff            004e7a38     AGKWindows:b2CollidePolygon.obj
 0002:0000ba40       __real@3f50624de0000000    004e7a40     AGKWindows:b2CollidePolygon.obj
 0002:0000ba48       __real@28800000            004e7a48     AGKWindows:b2Distance.obj
 0002:0000ba50       _zip_copyright             004e7a50     AGKWindows:zip.obj
 0002:0000baa0       _unz_copyright             004e7aa0     AGKWindows:unzip.obj
 0002:0000baf8       __real@3f53f6a220000000    004e7af8     AGKWindows:b2Island.obj
 0002:0000bb00       __real@4003bd3ce0000000    004e7b00     AGKWindows:b2Island.obj
 0002:0000bb08       __real@3f90624de0000000    004e7b08     AGKWindows:b2Island.obj
 0002:0000bb14       ??_7b2ContactFilter@@6B@   004e7b14     AGKWindows:b2ContactManager.obj
 0002:0000bb20       ??_7b2ContactListener@@6B@ 004e7b20     AGKWindows:b2ContactManager.obj
 0002:0000bb38       ??_7b2Contact@@6B@         004e7b38     AGKWindows:b2Contact.obj
 0002:0000bb40       __real@3aa3d70a            004e7b40     AGKWindows:b2TimeOfImpact.obj
 0002:0000bb48       __real@3f547ae140000000    004e7b48     AGKWindows:b2TimeOfImpact.obj
 0002:0000bb50       __real@3f8eb851e0000000    004e7b50     AGKWindows:b2TimeOfImpact.obj
 0002:0000c48c       ??_7?$ArrayRef@H@zxing@@6B@ 004e848c     AGKWindows:ReedSolomonDecoder.obj
 0002:0000c494       ??_7?$Array@H@zxing@@6B@   004e8494     AGKWindows:ReedSolomonDecoder.obj
 0002:0000c49c       ??_7ReedSolomonException@zxing@@6B@ 004e849c     AGKWindows:ReedSolomonDecoder.obj
 0002:0000c4a8       ??_7ReaderException@zxing@@6B@ 004e84a8     AGKWindows:Decoder.obj
 0002:0000c4b0       ??_C@_0BM@PAPJHAGI@invalid?5map?1set?$DMT?$DO?5iterator?$AA@ 004e84b0     AGKWindows:Decoder.obj
 0002:0000c4d0       ??_7?$ArrayRef@V?$ArrayRef@E@zxing@@@zxing@@6B@ 004e84d0     AGKWindows:DecoderResult.obj
 0002:0000c4d8       ??_7DecoderResult@zxing@@6B@ 004e84d8     AGKWindows:DecoderResult.obj
 0002:0000c4e0       ??_7DetectorResult@zxing@@6B@ 004e84e0     AGKWindows:DetectorResult.obj
 0002:0000c560       ??_7ios_base@std@@6B@      004e8560     AGKWindows:Detector.obj
 0002:0000c568       ??_7?$basic_ostream@DU?$char_traits@D@std@@@std@@6B@ 004e8568     AGKWindows:Detector.obj
 0002:0000c570       ??_7?$basic_ios@DU?$char_traits@D@std@@@std@@6B@ 004e8570     AGKWindows:Detector.obj
 0002:0000c578       ??_7?$ctype@D@std@@6B@     004e8578     AGKWindows:Detector.obj
 0002:0000c5a4       ??_7?$basic_streambuf@DU?$char_traits@D@std@@@std@@6B@ 004e85a4     AGKWindows:Detector.obj
 0002:0000c5e4       ??_7?$basic_stringbuf@DU?$char_traits@D@std@@V?$allocator@D@2@@std@@6B@ 004e85e4     AGKWindows:Detector.obj
 0002:0000c624       ??_7Detector@qrcode@zxing@@6B@ 004e8624     AGKWindows:Detector.obj
 0002:0000c62c       __real@40600000            004e862c     AGKWindows:Detector.obj
 0002:0000c630       __real@400c000000000000    004e8630     AGKWindows:Detector.obj
 0002:0000c63c       ??_7?$basic_ostringstream@DU?$char_traits@D@std@@V?$allocator@D@2@@std@@6B@ 004e863c     AGKWindows:Detector.obj
 0002:0000c640       __real@402c000000000000    004e8640     AGKWindows:Detector.obj
 0002:0000c648       ??_8?$basic_ostringstream@DU?$char_traits@D@std@@V?$allocator@D@2@@std@@7B@ 004e8648     AGKWindows:Detector.obj
 0002:0000c654       ??_7Binarizer@zxing@@6B@   004e8654     AGKWindows:Binarizer.obj
 0002:0000c6a4       ??_7BitArray@zxing@@6B@    004e86a4     AGKWindows:BitArray.obj
 0002:0000c73c       ??_7BitMatrix@zxing@@6B@   004e873c     AGKWindows:BitMatrix.obj
 0002:0000c7ac       ??_7LuminanceSource@zxing@@6B@ 004e87ac     AGKWindows:LuminanceSource.obj
 0002:0000c82c       ??_7GreyscaleRotatedLuminanceSource@zxing@@6B@ 004e882c     AGKWindows:GreyscaleRotatedLuminanceSource.obj
 0002:0000c850       _deflate_copyright         004e8850     AGKWindows:deflate.obj
 0002:0000c918       __real@35a00000            004e8918     AGKWindows:b2Collision.obj
 0002:0000e924       ??_7b2RopeJoint@@6B@       004ea924     AGKWindows:b2RopeJoint.obj
 0002:0000e948       ??_7b2FrictionJoint@@6B@   004ea948     AGKWindows:b2FrictionJoint.obj
 0002:0000e96c       ??_7b2GearJoint@@6B@       004ea96c     AGKWindows:b2GearJoint.obj
 0002:0000e990       __real@bf8eb851e0000000    004ea990     AGKWindows:b2ContactSolver.obj
 0002:0000e998       __real@bf7eb851e0000000    004ea998     AGKWindows:b2ContactSolver.obj
 0002:0000e9a0       __real@3fe8000000000000    004ea9a0     AGKWindows:b2ContactSolver.obj
 0002:0000e9ac       ??_7b2PolygonContact@@6B@  004ea9ac     AGKWindows:b2PolygonContact.obj
 0002:0000e9b8       ??_7b2CircleContact@@6B@   004ea9b8     AGKWindows:b2CircleContact.obj
 0002:0000e9c4       ??_7b2EdgeShape@@6B@       004ea9c4     AGKWindows:b2ChainAndPolygonContact.obj
 0002:0000e9e4       ??_7b2ChainAndPolygonContact@@6B@ 004ea9e4     AGKWindows:b2ChainAndPolygonContact.obj
 0002:0000e9f0       ??_7b2ChainAndCircleContact@@6B@ 004ea9f0     AGKWindows:b2ChainAndCircleContact.obj
 0002:0000e9fc       ??_7b2PolygonAndCircleContact@@6B@ 004ea9fc     AGKWindows:b2PolygonAndCircleContact.obj
 0002:0000ea08       ??_7b2EdgeAndPolygonContact@@6B@ 004eaa08     AGKWindows:b2EdgeAndPolygonContact.obj
 0002:0000ea14       ??_7b2EdgeAndCircleContact@@6B@ 004eaa14     AGKWindows:b2EdgeAndCircleContact.obj
 0002:0000ea1c       _z_errmsg                  004eaa1c     AGKWindows:zutil.obj
 0002:0000ea48       _inflate_copyright         004eaa48     AGKWindows:inftrees.obj
 0002:0000ec68       ??_7GF256Poly@zxing@@6B@   004eac68     AGKWindows:GF256Poly.obj
 0002:0000ec6c       ?ALPHANUMERIC_CHARS@DecodedBitStreamParser@qrcode@zxing@@0QBDB 004eac6c     AGKWindows:DecodedBitStreamParser.obj
 0002:0000ed68       ??_7BitSource@zxing@@6B@   004ead68     AGKWindows:DecodedBitStreamParser.obj
 0002:0000ed70       ??_7FormatException@zxing@@6B@ 004ead70     AGKWindows:DecodedBitStreamParser.obj
 0002:0000ed7c       ??_7?$Array@V?$ArrayRef@E@zxing@@@zxing@@6B@ 004ead7c     AGKWindows:DecodedBitStreamParser.obj
 0002:0000edd8       ??_7DataBlock@qrcode@zxing@@6B@ 004eadd8     AGKWindows:DataBlock.obj
 0002:0000ee60       ??_7BitMatrixParser@qrcode@zxing@@6B@ 004eae60     AGKWindows:BitMatrixParser.obj
 0002:0000ee80       ??_7FormatInformation@qrcode@zxing@@6B@ 004eae80     AGKWindows:FormatInformation.obj
 0002:0000eeac       ??_7PerspectiveTransform@zxing@@6B@ 004eaeac     AGKWindows:PerspectiveTransform.obj
 0002:0000ef00       ??_7AlignmentPatternFinder@qrcode@zxing@@6B@ 004eaf00     AGKWindows:AlignmentPatternFinder.obj
 0002:0000ef74       ??_7Version@qrcode@zxing@@6B@ 004eaf74     AGKWindows:Version.obj
 0002:0000ef7c       ??_7FinderPatternInfo@qrcode@zxing@@6B@ 004eaf7c     AGKWindows:FinderPatternInfo.obj
 0002:0000f5c8       __dist_code                004eb5c8     AGKWindows:trees.obj
 0002:0000f7c8       __length_code              004eb7c8     AGKWindows:trees.obj
 0002:0000f9b8       __real@bd0efa36            004eb9b8     AGKWindows:b2CollideEdge.obj
 0002:0000f9bc       __real@3ca3d70a            004eb9bc     AGKWindows:b2CollideEdge.obj
 0002:0000f9c4       ??_7b2ChainShape@@6B@      004eb9c4     AGKWindows:b2ChainShape.obj
 0002:0000fb30       ??_C@_0BE@JONHPENG@map?1set?$DMT?$DO?5too?5long?$AA@ 004ebb30     AGKWindows:CharacterSetECI.obj
 0002:0000fb4a       ?ASSUME_SHIFT_JIS@StringUtils@common@zxing@@2_NB 004ebb4a     AGKWindows:StringUtils.obj
 0002:0000fb4c       ?PLATFORM_DEFAULT_ENCODING@StringUtils@common@zxing@@0QBDB 004ebb4c     AGKWindows:StringUtils.obj
 0002:0000fb58       ?ASCII@StringUtils@common@zxing@@2QBDB 004ebb58     AGKWindows:StringUtils.obj
 0002:0000fb68       ?SHIFT_JIS@StringUtils@common@zxing@@2QBDB 004ebb68     AGKWindows:StringUtils.obj
 0002:0000fb70       ?GB2312@StringUtils@common@zxing@@2QBDB 004ebb70     AGKWindows:StringUtils.obj
 0002:0000fb7c       ?EUC_JP@StringUtils@common@zxing@@2QBDB 004ebb7c     AGKWindows:StringUtils.obj
 0002:0000fb88       ?UTF8@StringUtils@common@zxing@@2QBDB 004ebb88     AGKWindows:StringUtils.obj
 0002:0000fb98       ?ISO88591@StringUtils@common@zxing@@2QBDB 004ebb98     AGKWindows:StringUtils.obj
 0002:0000fc8c       ??_7DataMask@qrcode@zxing@@6B@ 004ebc8c     AGKWindows:DataMask.obj
 0002:0000fc98       ??_7DataMask000@qrcode@zxing@@6B@ 004ebc98     AGKWindows:DataMask.obj
 0002:0000fca4       ??_7DataMask001@qrcode@zxing@@6B@ 004ebca4     AGKWindows:DataMask.obj
 0002:0000fcb0       ??_7DataMask010@qrcode@zxing@@6B@ 004ebcb0     AGKWindows:DataMask.obj
 0002:0000fcbc       ??_7DataMask011@qrcode@zxing@@6B@ 004ebcbc     AGKWindows:DataMask.obj
 0002:0000fcc8       ??_7DataMask100@qrcode@zxing@@6B@ 004ebcc8     AGKWindows:DataMask.obj
 0002:0000fcd4       ??_7DataMask101@qrcode@zxing@@6B@ 004ebcd4     AGKWindows:DataMask.obj
 0002:0000fce0       ??_7DataMask110@qrcode@zxing@@6B@ 004ebce0     AGKWindows:DataMask.obj
 0002:0000fcec       ??_7DataMask111@qrcode@zxing@@6B@ 004ebcec     AGKWindows:DataMask.obj
 0002:0000fcf8       ??_7AlignmentPattern@qrcode@zxing@@6B@ 004ebcf8     AGKWindows:AlignmentPattern.obj
 0002:0000fd08       ??_7FinderPattern@qrcode@zxing@@6B@ 004ebd08     AGKWindows:FinderPattern.obj
 0002:0000fd28       ??_7ResultPoint@zxing@@6B@ 004ebd28     AGKWindows:ResultPoint.obj
 0002:0000fd34       _GUID_NULL                 004ebd34     uuid:cguid_i.obj
 0002:0000fd48       ??_7logic_error@std@@6B@   004ebd48     libcpmt:xthrow.obj
 0002:0000fd54       ??_7length_error@std@@6B@  004ebd54     libcpmt:xthrow.obj
 0002:0000fd60       ??_7out_of_range@std@@6B@  004ebd60     libcpmt:xthrow.obj
 0002:0000fd6c       ??_7error_category@std@@6B@ 004ebd6c     libcpmt:syserror.obj
 0002:0000fd84       ??_C@_07DCLBNMLN@generic?$AA@ 004ebd84     libcpmt:syserror.obj
 0002:0000fd90       ??_7_Generic_error_category@std@@6B@ 004ebd90     libcpmt:syserror.obj
 0002:0000fda8       ??_C@_08LLGCOLLL@iostream?$AA@ 004ebda8     libcpmt:syserror.obj
 0002:0000fdb8       ??_7_Iostream_error_category@std@@6B@ 004ebdb8     libcpmt:syserror.obj
 0002:0000fdd0       ??_C@_06FHFOAHML@system?$AA@ 004ebdd0     libcpmt:syserror.obj
 0002:0000fddc       ??_7_System_error_category@std@@6B@ 004ebddc     libcpmt:syserror.obj
 0002:0000fdf4       ??_C@_0BG@PADBLCHM@iostream?5stream?5error?$AA@ 004ebdf4     libcpmt:syserror.obj
 0002:0000fe0c       ??_C@_01NBENCBCI@?$CK?$AA@ 004ebe0c     libcpmt:locale0.obj
 0002:0000fe14       ??_7_Locimp@locale@std@@6B@ 004ebe14     libcpmt:locale0.obj
 0002:0000fe18       ??_C@_01GFHCPBMG@C?$AA@    004ebe18     libcpmt:locale0.obj
 0002:0000fe20       ?_BADOFF@std@@3_JB         004ebe20     libcpmt:ios.obj
 0002:0000fe2c       ??_7exception@std@@6B@     004ebe2c     LIBCMT:stdexcpt.obj
 0002:0000fe34       ??_C@_0BC@EOODALEL@Unknown?5exception?$AA@ 004ebe34     LIBCMT:stdexcpt.obj
 0002:0000fe4c       ??_7bad_cast@std@@6B@      004ebe4c     LIBCMT:stdexcpt.obj
 0002:0000fe58       ??_7type_info@@6B@         004ebe58     LIBCMT:typinfo.obj
 0002:0000fe5c       ??_C@_0P@GHFPNOJB@bad?5allocation?$AA@ 004ebe5c     LIBCMT:new.obj
 0002:0000fe6c       __FPinit                   004ebe6c     LIBCMT:_fpinit_.obj
 0002:0000ff30       __OP_FMODjmptab            004ebf30     LIBCMT:_87fmod_.obj
 0002:0000ff80       ??_C@_03LLEJOLGL@?4?1?2?$AA@ 004ebf80     LIBCMT:stati32.obj
 0002:0000ff84       ??_C@_02EAOCEIGI@?$DP?$CK?$AA@ 004ebf84     LIBCMT:stati32.obj
 0002:0000ff88       ??_C@_0BI@BKLFFAPO@SetThreadStackGuarantee?$AA@ 004ebf88     LIBCMT:resetstk.obj
 0002:0000ffa0       ??_C@_1BK@MGMFAEKH@?$AAk?$AAe?$AAr?$AAn?$AAe?$AAl?$AA3?$AA2?$AA?4?$AAd?$AAl?$AAl?$AA?$AA@ 004ebfa0     LIBCMT:resetstk.obj
 0002:0000ffc0       ??_C@_0EA@FCLIIPNN@Visual?5C?$CL?$CL?5CRT?3?5Not?5enough?5memor@ 004ebfc0     LIBCMT:strerror.obj
 0002:00010000       __pDestructExceptionObject 004ec000     LIBCMT:frame.obj
 0002:00010008       ??_7bad_exception@std@@6B@ 004ec008     LIBCMT:frame.obj
 0002:00010010       ??_C@_0O@DPKOEFFH@bad?5exception?$AA@ 004ec010     LIBCMT:frame.obj
 0002:00010020       ??_C@_07LCBHPJJN@LC_TIME?$AA@ 004ec020     LIBCMT:setlocal.obj
 0002:00010028       ??_C@_0L@DLHIECNL@LC_NUMERIC?$AA@ 004ec028     LIBCMT:setlocal.obj
 0002:00010034       ??_C@_0M@MIENIKLA@LC_MONETARY?$AA@ 004ec034     LIBCMT:setlocal.obj
 0002:00010040       ??_C@_08EADHIDAD@LC_CTYPE?$AA@ 004ec040     LIBCMT:setlocal.obj
 0002:0001004c       ??_C@_0L@KFJHEKIK@LC_COLLATE?$AA@ 004ec04c     LIBCMT:setlocal.obj
 0002:00010058       ??_C@_06NEFDFEKB@LC_ALL?$AA@ 004ec058     LIBCMT:setlocal.obj
 0002:00010060       ___lc_category             004ec060     LIBCMT:setlocal.obj
 0002:00010128       ??_C@_03EGDHDPFD@_?4?0?$AA@ 004ec128     LIBCMT:setlocal.obj
 0002:0001012c       ??_C@_01LFCBOECM@?4?$AA@   004ec12c     LIBCMT:setlocal.obj
 0002:00010130       ??_C@_01IDAFKMJL@_?$AA@    004ec130     LIBCMT:setlocal.obj
 0002:00010134       ??_C@_01ICJEACDI@?$DL?$AA@ 004ec134     LIBCMT:setlocal.obj
 0002:00010138       ??_C@_01NEMOKFLO@?$DN?$AA@ 004ec138     LIBCMT:setlocal.obj
 0002:0001013c       ??_C@_02BALPLPBG@?$DN?$DL?$AA@ 004ec13c     LIBCMT:setlocal.obj
 0002:00010140       ___newctype                004ec140     LIBCMT:ctype.obj
 0002:00010440       __wctype                   004ec440     LIBCMT:ctype.obj
 0002:00010648       ___newclmap                004ec648     LIBCMT:ctype.obj
 0002:000107c8       ___newcumap                004ec7c8     LIBCMT:ctype.obj
 0002:00010950       ??_C@_1O@CEDCILHN@?$AA?$CI?$AAn?$AAu?$AAl?$AAl?$AA?$CJ?$AA?$AA@ 004ec950     LIBCMT:output.obj
 0002:00010960       ??_C@_06OJHGLDPL@?$CInull?$CJ?$AA@ 004ec960     LIBCMT:output.obj
 0002:00010968       ___lookuptable             004ec968     LIBCMT:output.obj
 0002:000109c4       ??_C@_0P@MIGLKIOC@CorExitProcess?$AA@ 004ec9c4     LIBCMT:crt0dat.obj
 0002:000109d4       ??_C@_1BI@BGOHAHKC@?$AAm?$AAs?$AAc?$AAo?$AAr?$AAe?$AAe?$AA?4?$AAd?$AAl?$AAl?$AA?$AA@ 004ec9d4     LIBCMT:crt0dat.obj
 0002:000109ec       ??_C@_1BC@GDGBMEMK@?$AAH?$AAH?$AA?3?$AAm?$AAm?$AA?3?$AAs?$AAs?$AA?$AA@ 004ec9ec     LIBCMT:nlsdata2.obj
 0002:00010a00       ??_C@_1CI@KNAKOEBC@?$AAd?$AAd?$AAd?$AAd?$AA?0?$AA?5?$AAM?$AAM?$AAM?$AAM?$AA?5?$AAd?$AAd?$AA?0?$AA?5?$AAy?$AAy?$AAy?$AAy?$AA?$AA@ 004eca00     LIBCMT:nlsdata2.obj
 0002:00010a28       ??_C@_1BC@IEBCMHCM@?$AAM?$AAM?$AA?1?$AAd?$AAd?$AA?1?$AAy?$AAy?$AA?$AA@ 004eca28     LIBCMT:nlsdata2.obj
 0002:00010a3c       ??_C@_15CLMNNGEL@?$AAP?$AAM?$AA?$AA@ 004eca3c     LIBCMT:nlsdata2.obj
 0002:00010a44       ??_C@_15ODEHAHHF@?$AAA?$AAM?$AA?$AA@ 004eca44     LIBCMT:nlsdata2.obj
 0002:00010a4c       ??_C@_1BC@FEMKIFH@?$AAD?$AAe?$AAc?$AAe?$AAm?$AAb?$AAe?$AAr?$AA?$AA@ 004eca4c     LIBCMT:nlsdata2.obj
 0002:00010a60       ??_C@_1BC@BGLIFPF@?$AAN?$AAo?$AAv?$AAe?$AAm?$AAb?$AAe?$AAr?$AA?$AA@ 004eca60     LIBCMT:nlsdata2.obj
 0002:00010a74       ??_C@_1BA@EPANDLNG@?$AAO?$AAc?$AAt?$AAo?$AAb?$AAe?$AAr?$AA?$AA@ 004eca74     LIBCMT:nlsdata2.obj
 0002:00010a84       ??_C@_1BE@DKAAMBJL@?$AAS?$AAe?$AAp?$AAt?$AAe?$AAm?$AAb?$AAe?$AAr?$AA?$AA@ 004eca84     LIBCMT:nlsdata2.obj
 0002:00010a98       ??_C@_1O@PAHLKOAC@?$AAA?$AAu?$AAg?$AAu?$AAs?$AAt?$AA?$AA@ 004eca98     LIBCMT:nlsdata2.obj
 0002:00010aa8       ??_C@_19BIFMLPCD@?$AAJ?$AAu?$AAl?$AAy?$AA?$AA@ 004ecaa8     LIBCMT:nlsdata2.obj
 0002:00010ab4       ??_C@_19EPFLPGAP@?$AAJ?$AAu?$AAn?$AAe?$AA?$AA@ 004ecab4     LIBCMT:nlsdata2.obj
 0002:00010ac0       ??_C@_1M@GJNLMHFD@?$AAA?$AAp?$AAr?$AAi?$AAl?$AA?$AA@ 004ecac0     LIBCMT:nlsdata2.obj
 0002:00010acc       ??_C@_1M@IKEENEDF@?$AAM?$AAa?$AAr?$AAc?$AAh?$AA?$AA@ 004ecacc     LIBCMT:nlsdata2.obj
 0002:00010ad8       ??_C@_1BC@JGDDFFAM@?$AAF?$AAe?$AAb?$AAr?$AAu?$AAa?$AAr?$AAy?$AA?$AA@ 004ecad8     LIBCMT:nlsdata2.obj
 0002:00010aec       ??_C@_1BA@EFMEIEBA@?$AAJ?$AAa?$AAn?$AAu?$AAa?$AAr?$AAy?$AA?$AA@ 004ecaec     LIBCMT:nlsdata2.obj
 0002:00010afc       ??_C@_17EGKACKIF@?$AAD?$AAe?$AAc?$AA?$AA@ 004ecafc     LIBCMT:nlsdata2.obj
 0002:00010b04       ??_C@_17BBDMLCIG@?$AAN?$AAo?$AAv?$AA?$AA@ 004ecb04     LIBCMT:nlsdata2.obj
 0002:00010b0c       ??_C@_17FNLKOI@?$AAO?$AAc?$AAt?$AA?$AA@ 004ecb0c     LIBCMT:nlsdata2.obj
 0002:00010b14       ??_C@_17HCHCOKMG@?$AAS?$AAe?$AAp?$AA?$AA@ 004ecb14     LIBCMT:nlsdata2.obj
 0002:00010b1c       ??_C@_17ICPELBCN@?$AAA?$AAu?$AAg?$AA?$AA@ 004ecb1c     LIBCMT:nlsdata2.obj
 0002:00010b24       ??_C@_17IJPCKHK@?$AAJ?$AAu?$AAl?$AA?$AA@ 004ecb24     LIBCMT:nlsdata2.obj
 0002:00010b2c       ??_C@_17KCJGOCPB@?$AAJ?$AAu?$AAn?$AA?$AA@ 004ecb2c     LIBCMT:nlsdata2.obj
 0002:00010b34       ??_C@_17PNNKMEED@?$AAM?$AAa?$AAy?$AA?$AA@ 004ecb34     LIBCMT:nlsdata2.obj
 0002:00010b3c       ??_C@_17LFPOIHDD@?$AAA?$AAp?$AAr?$AA?$AA@ 004ecb3c     LIBCMT:nlsdata2.obj
 0002:00010b44       ??_C@_17CKNLEDEC@?$AAM?$AAa?$AAr?$AA?$AA@ 004ecb44     LIBCMT:nlsdata2.obj
 0002:00010b4c       ??_C@_17LMDJEKJN@?$AAF?$AAe?$AAb?$AA?$AA@ 004ecb4c     LIBCMT:nlsdata2.obj
 0002:00010b54       ??_C@_17DKNBKCHM@?$AAJ?$AAa?$AAn?$AA?$AA@ 004ecb54     LIBCMT:nlsdata2.obj
 0002:00010b5c       ??_C@_1BC@ENMNNPAJ@?$AAS?$AAa?$AAt?$AAu?$AAr?$AAd?$AAa?$AAy?$AA?$AA@ 004ecb5c     LIBCMT:nlsdata2.obj
 0002:00010b70       ??_C@_1O@PDICJHAG@?$AAF?$AAr?$AAi?$AAd?$AAa?$AAy?$AA?$AA@ 004ecb70     LIBCMT:nlsdata2.obj
 0002:00010b80       ??_C@_1BC@HHMNLIHE@?$AAT?$AAh?$AAu?$AAr?$AAs?$AAd?$AAa?$AAy?$AA?$AA@ 004ecb80     LIBCMT:nlsdata2.obj
 0002:00010b94       ??_C@_1BE@EBOGMDOH@?$AAW?$AAe?$AAd?$AAn?$AAe?$AAs?$AAd?$AAa?$AAy?$AA?$AA@ 004ecb94     LIBCMT:nlsdata2.obj
 0002:00010ba8       ??_C@_1BA@ENFBFFEK@?$AAT?$AAu?$AAe?$AAs?$AAd?$AAa?$AAy?$AA?$AA@ 004ecba8     LIBCMT:nlsdata2.obj
 0002:00010bb8       ??_C@_1O@MMNBFLIA@?$AAM?$AAo?$AAn?$AAd?$AAa?$AAy?$AA?$AA@ 004ecbb8     LIBCMT:nlsdata2.obj
 0002:00010bc8       ??_C@_1O@IHNHDHPB@?$AAS?$AAu?$AAn?$AAd?$AAa?$AAy?$AA?$AA@ 004ecbc8     LIBCMT:nlsdata2.obj
 0002:00010bd8       ??_C@_17GGIBDPIH@?$AAS?$AAa?$AAt?$AA?$AA@ 004ecbd8     LIBCMT:nlsdata2.obj
 0002:00010be0       ??_C@_17HFOLPPLP@?$AAF?$AAr?$AAi?$AA?$AA@ 004ecbe0     LIBCMT:nlsdata2.obj
 0002:00010be8       ??_C@_17PDPHAADD@?$AAT?$AAh?$AAu?$AA?$AA@ 004ecbe8     LIBCMT:nlsdata2.obj
 0002:00010bf0       ??_C@_17CJEDCEPE@?$AAW?$AAe?$AAd?$AA?$AA@ 004ecbf0     LIBCMT:nlsdata2.obj
 0002:00010bf8       ??_C@_17BMKGEGOJ@?$AAT?$AAu?$AAe?$AA?$AA@ 004ecbf8     LIBCMT:nlsdata2.obj
 0002:00010c00       ??_C@_17KBOMKBF@?$AAM?$AAo?$AAn?$AA?$AA@ 004ecc00     LIBCMT:nlsdata2.obj
 0002:00010c08       ??_C@_17MBGCMIPB@?$AAS?$AAu?$AAn?$AA?$AA@ 004ecc08     LIBCMT:nlsdata2.obj
 0002:00010c10       ??_C@_08JCCMCCIL@HH?3mm?3ss?$AA@ 004ecc10     LIBCMT:nlsdata2.obj
